pd:_glClearStencil
dTi:_UInt16_System_IConvertible_ToChar_m2096055221_AdjustorThunk
LCi:_Array_TrueForAll_TisRuntimeObject_m1084992726_gshared
_vd:__ZN5physx2Gu19gjkLocalPenetrationINS0_8CapsuleVENS0_17ShrunkConvexHullVEEEjRKT_RKT0_RKNS_6shdfnd3aos6FloatVERNSB_5Vec3VESG_SG_RSC_PhSI_Rhb
arm:__ZN6il2cpp2vm5Array13GetByteLengthEP11Il2CppArray
lrk:_Array_InternalArray__set_Item_TisDateTime_t3738529785_m1331437427_gshared
DAl:_KeyBuilder_get_Rng_m3373220441
e2a:__Z30GetIntermediateRendererManagerv
tt:__ZN10StateRange8TransferI14SafeBinaryReadEEvRT_
GJa:__Z21SourceMipLevelForBlitiiii
K6a:__ZN31CanvasBatchIntermediateRenderer15AddAsRenderNodeER15RenderNodeQueueRK20DeprecatedSourceData
sQi:_TimeSpan_get_Hours_m550761902
iak:__ZL57ParticleSystem_t1800779281_CustomAttributesCacheGeneratorP21CustomAttributesCache
SBl:_AnalyticsEventTracker_SendEvent_m1365958832
Yne:__ZNK5physx2Sc5Scene24getContactModifyCallbackEv
Dw:__ZN11UnityEngine9Animation28GenericAnimationBindingCacheD2Ev
cre:__ZN5physx2Sq10AABBPruner10addObjectsEPjPKNS_9PxBounds3EPKNS0_13PrunerPayloadEj
Wtk:_Array_Sort_TisUICharInfo_t75501106_TisUICharInfo_t75501106_m722747892_gshared
Tx:__ZN15AnimationBinder13SetFloatValueERK20BoundCurveDeprecatedf
Gdm:_il2cpp_runtime_unhandled_exception_policy_set
nc:invoke_viiiifiiiiif
wbc:__Z18RestoreRenderStateR20CameraRenderOldStateR17ShaderPassContext
SNb:__Z18Transfer_BlittableI18StreamedBinaryReadILb1EELb1E5RectTIfEEvRK29SerializationCommandArgumentsR31RuntimeSerializationCommandInfo
KJb:__Z18Transfer_BlittableI24GenerateTypeTreeTransferLb0E11ColorRGBA32EvRK29SerializationCommandArgumentsR31RuntimeSerializationCommandInfo
DSb:__Z25scripting_class_from_name17ScriptingImagePtrPKcS1_
Z9c:__Z56ParticleSystem_MainModule_CUSTOM_GetStartSizeXMultiplierP12Il2CppObject
PFi:_Array_InternalArray__IndexOf_TisKeyValuePair_2_t3699644050_m1021241249_gshared
Gbm:__ZN14dense_hash_mapI10KeyWrapperINSt3__24pairIPK12PropertyInfoP11Il2CppClassEEEj17ReflectionMapHashIS8_ENS9_14EqualsComparerINS1_8equal_toIS8_EEEENS1_9allocatorINS2_IKS9_jEEEEE15set_deleted_keyERSH_
cUb:__Z29scripting_class_enum_basetype17ScriptingClassPtr
rGd:__ZN5physx6shdfnd8PoolBaseINS_2Sc10NPhaseCore16ClothListElementENS0_19ReflectionAllocatorIS4_EEE17releaseEmptySlabsEv
qed:__ZN16PhysicsManager2D7RaycastERK3RayfiR12RaycastHit2D
$Je:__ZN5physx2Sc14ConstraintCore10breakApartEv
o0g:_InternalEnumerator_1_get_Current_m1477715453_gshared
fBb:__ZNK20LocalFileSystemPosix6ParentERK13FileEntryDataRN4core12basic_stringIcNS3_20StringStorageDefaultIcEEEE
_ti:_RectTransform_GetWorldCorners_m3553547973
PQe:__ZN5physx7Cooking20loadTriangleMeshDescERKNS_18PxTriangleMeshDescERNS_19TriangleMeshBuilderE
NDk:_Collection_1_System_Collections_IList_Remove_m1476284619_gshared
Rwg:_MonoType_IsPrimitiveImpl_m2401722705
uTh:_SHA1CryptoServiceProvider__ctor_m4195188793
uJd:__ZN5physx9NpFactory21releaseConnectorArrayEPNS_16NpConnectorArrayE
oii:_CSSMeasureFunc_BeginInvoke_m3802154595
lIf:_Graphic_get_defaultGraphicMaterial_m3107284931
Dic:__Z13RegisterClassI12InputManagerEvv
qXa:__ZN17PersistentManager22CheckInstanceIDsLoadedEPii
_xg:_NumberFormatter_NumberToString_m264078176
IBi:_Array_InternalArray__ICollection_Remove_TisLink_t3209266973_m897088622_gshared
Pyi:_Vector2_get_up_m2647420593
kHa:__ZN7ApiGLES17CopyBufferSubDataEjjlll
YIi:_Array_InternalArray__ICollection_CopyTo_TisUInt64_t4134040092_m691431926_gshared
hKh:_IPAddress_ToString_m1181734207
_Li:_StringBuilder_Append_m1965104174
XKc:__ZN5Unity9rapidjson15GenericDocumentINS0_4UTF8IcEE13JSONAllocatorS4_E11ParseStreamILj1ES3_NS0_25GenericInsituStringStreamIS3_EEEERS5_RT1_
b2i:_EqualityComparer_1__cctor_m3766928733_gshared
D3b:__ZN25CameraStackRenderingState20GetOrCreateBuiltinRTE24BuiltinRenderTextureTypeii17DepthBufferFormat19RenderTextureFormatj22RenderTextureReadWrite14VRTextureUsagei
Rul:_UnityAction_1_Invoke_m610765085_gshared
UZ:__ZN11AudioModule26SetDefaultMicrophoneDriverEPv
pEg:_Kernel_modInverse_m652700340
Skb:__ZNK14Texture2DArray26CanReuploadDataToGfxDeviceEv
S7b:__ZN17PrePassRenderLoop14RenderBasePassEP13RenderTextureRK14LightingLayersR13dynamic_arrayI16RenderObjectDataLj4EERbR10MinMaxAABB
MIc:__ZN5IMGUI18RepaintModalWindowER8GUIState
Ufa:__ZNK15dense_hashtableINSt3__24pairIKN9ShaderLab7Program23ShaderKeywordSetAndHashEPKNS2_10SubProgramEEES4_NS3_24ShaderKeywordHashFunctorEN14dense_hash_mapIS4_S8_SA_NS0_8equal_toIS4_EE13stl_allocatorIS9_L18MemLabelIdentifier67ELi16EEE9SelectKeyESD_SG_E23find_position_with_hashERS5_j
Mbi:_CompareInfo_Finalize_m404687489
Bjb:__Z23SetSpriteMeshIndexCountP14SharedMeshDataj
WNi:_UTF8Decoder_GetChars_m1236346907
Hwi:_TouchScreenKeyboard_Open_m231964201
Cbb:__ZN7Texture13SetFilterModeEi
Bsm:__ZN6il2cpp8metadata13GenericMethod9GetMethodEPK19Il2CppGenericMethod
$r:__ZNSt3__26vectorIN4core12basic_stringIcNS1_20StringStorageDefaultIcEEEENS_9allocatorIS5_EEE7reserveEj
CNf:_Default_SelectProperty_m1220817815
sjh:_RemotingConfiguration_IsRemotelyActivatedClientType_m4117048589
aui:_Transform_TransformPoint_m226827784
dBa:__ZN13GfxDeviceGLES11SetViewportERK5RectTIiE
p7c:__Z19UpdateSingleRow2TplIL27ParticleSystemCurveEvalMode3ELS0_2EEvfRK11MinMaxCurveS3_RK23ParticleSystemParticlesPfbiii
TEc:__Z24Time_Get_Custom_PropTimev
bc:invoke_vifiiii
Ie:_emscripten_glDepthRange
_Og:_SslStreamBase_BeginNegotiateHandshake_m4180435790
Yqd:__ZN5physx2Gu24contactConvexHeightfieldERKNS0_13GeometryUnionES3_RKNS_11PxTransformES6_RKfRNS0_5CacheERNS0_13ContactBufferE
XKd:__ZN5physx6shdfnd5ArrayIPvNS0_19ReflectionAllocatorINS_2Cm5BlockIS2_Lj8EEEEEE15growAndPushBackERKS2_
Ldc:__ZNSt3__26vectorINS_4pairIN4core12basic_stringIcNS2_20StringStorageDefaultIcEEEES6_EE13stl_allocatorIS7_L18MemLabelIdentifier38ELi16EEE12__move_rangeEPS7_SC_SC_
nua:__Z14resize_trimmedINSt3__26vectorIN9ShaderLab20SerializedSubProgram12UAVParameterENS0_9allocatorIS4_EEEEEvRT_j
pLc:__ZN5Unity9rapidjson13GenericReaderINS0_4UTF8IcEES3_13JSONAllocatorE11ParseObjectILj1ENS0_25GenericInsituStringStreamIS3_EENS0_15GenericDocumentIS3_S4_S4_EEEEvRT0_RT1_
lsc:__Z10DestripifyPKjjRNSt3__26vectorIj13stl_allocatorIjL18MemLabelIdentifier1ELi16EEEE
wBf:_StandaloneInputModule_GetRawMoveVector_m2737091079
Luc:__ZN13BuildSettings34ConvertScenePathToDisplayScenePathERKN4core12basic_stringIcNS0_20StringStorageDefaultIcEEEE
Mjk:__ZL62Selectable_t3250028441_CustomAttributesCacheGenerator_m_ColorsP21CustomAttributesCache
rPg:_SslStreamBase_EndWrite_m4073224031
rda:__ZNSt3__218__insertion_sort_3IRNS_6__lessI14ObjectLoadDataS2_EEPS2_EEvT0_S6_T_
rol:_Regex_GetGroupNamesArray_m3575729002
aJa:__ZN4crndL20crnd_default_reallocEPvjPjbS0_
uGm:__ZNSt3__212basic_stringIcNS_11char_traitsIcEENS_9allocatorIcEEEC2ERKS5_
fze:__ZN5physx24PxsComputeAABBLocalSpaceERKNS_18PxcAABBDataDynamicERNS_9PxBounds3E
rkb:__ZN18SpriteAtlasManager19AddRequestingSpriteE4PPtrI6SpriteE
msc:__ZN16PackedQuatVector9PackQuatsEP11Quaternionfi
CEc:__Z33Texture_CUSTOM_Internal_GetHeightP12Il2CppObject
lpc:__Z20IsValidRealtimeLightRK15SharedLightData9LightTypej
rbh:_ValueCollection_System_Collections_ICollection_get_SyncRoot_m3381653267_gshared
Pug:_UnmanagedMemoryStream_Write_m930787521
Bac:__ZN23ScriptableRenderContextC2Ev
EB:__ZN7mecanim9animation18ClipMuscleConstant8TransferI24GenerateTypeTreeTransferEEvRT_
SJf:_GridLayoutGroup_get_spacing_m2409263614
fZk:_List_1_CheckIndex_m581273900_gshared
Iaf:_UNITY_FT_Stream_GetChar
rOb:__Z18Transfer_BlittableI18StreamedBinaryReadILb1EELb1EdEvRK29SerializationCommandArgumentsR31RuntimeSerializationCommandInfo
Inm:__ZN6il2cpp2gc16GarbageCollector12RunFinalizerEPvS2_
Gre:__ZN5physx6shdfnd8internal8HashBaseINS0_4PairIKNS_2Sq13PrunerPayloadEjEES5_NS0_4HashIS5_EENS1_11HashMapBaseIS5_jS9_NS0_9AllocatorEE6GetKeyESB_Lb1EE5eraseERS6_
kUb:__Z26BuildSerializationCacheFor17ScriptingClassPtrRb
kPa:__ZN7ApiGLES15BlitFramebufferEN2gl6HandleILNS0_10ObjectTypeE9EEENS0_15FramebufferReadES3_S3_iiiiiiiiNS0_15FramebufferTypeE
yLe:__ZN5physx13GuMeshFactory16createConvexMeshERNS_13PxInputStreamE
gWe:__ZN5physx6shdfnd8internal8HashBaseINS0_4PairIKPKcjEES5_NS0_4HashIS5_EENS1_11HashMapBaseIS5_jS9_NS_7profile26WrapperReflectionAllocatorIjEEE6GetKeyESD_Lb1EE6createERS6_Rb
mlj:__Z112RuntimeInvoker_RuntimeObject_RuntimeObject_RuntimeObject_RuntimeObject_RuntimeObject_RuntimeObject_RuntimeObjectPFvvEPK10MethodInfoPvPS4_
D$g:_InternalEnumerator_1_System_Collections_IEnumerator_get_Current_m3553395619_AdjustorThunk
L3f:_Array_SetValue_m3998268557
mEf:_ColorBlock_set_highlightedColor_m2089444414_AdjustorThunk
Mti:_RectTransform_INTERNAL_set_anchoredPosition_m939517950
LLg:_Context_EndSwitchingSecurityParameters_m4148956166
M5e:_otv_PairPos_validate
zG:__ZN7mecanim9animation14CopyHumanPosesEPKNS0_18AnimationNodeStateEPS1_RKNS_6bitsetILj83EEE
W1l:__ZN6il2cpp6icalls8mscorlib6SystemL8IsStaticEPK12PropertyInfo
BVb:__Z9InitInputv
IKb:__Z29Transfer_Blittable_ArrayFieldI24GenerateTypeTreeTransfer11ColorRGBA32EvRT_R9ArrayInfoRK23StaticTransferFieldInfo
VCj:__Z126RuntimeInvoker_RuntimeObject_ParticleCollisionEvent_t4055032941_ParticleCollisionEvent_t4055032941_RuntimeObject_RuntimeObjectPFvvEPK10MethodInfoPvPS4_
wLe:__ZNK5physx13GuMeshFactory15getConvexMeshesEPPNS_12PxConvexMeshEjj
Tel:_CurveControlledBob__ctor_m3919276484
b7l:__ZN6il2cpp2gc19AppendOnlyGCHashMapINSt3__24pairIPK10MethodInfoP11Il2CppClassEEP22Il2CppReflectionMethod17ReflectionMapHashIS9_ENS2_8equal_toIS9_EEE3AddERKS9_SB_
kCb:__ZN16MemoryFileSystem6DeleteER13FileEntryDatab
Yfj:__Z81RuntimeInvoker_Void_t1185182177_RuntimeObject_Int64_t3736567304_Int32_t2950945753PFvvEPK10MethodInfoPvPS4_
q_k:_List_1_set_Item_m1979164443_gshared
YJa:__ZL21BlitScaleStbImageImplRK14ImageReferenceRS_NS_10ColorSpaceE
ZZd:__ZN5physx10NpMaterial17setStaticFrictionEf
kXc:__Z9UpdateTplIL27ParticleSystemCurveEvalMode0EEvRK11MinMaxCurveS3_S3_R23ParticleSystemParticlesjjRKN4math8float3x3ERKNS6_7_float4E
_ie:__ZNK5physx7NpScene18getStaticStructureEv
khd:__ZNSt3__26__sortIR31RayHitsByInverseDepthComparitorP12RaycastHit2DEEvT0_S5_T_
wie:__ZNK5physx7NpScene19getFilterShaderDataEv
Enh:_InputField_get_keyboardType_m1248105267
BFb:__Z29Transfer_Blittable_ArrayFieldI14SafeBinaryReadyEvRT_R9ArrayInfoRK23StaticTransferFieldInfo
JX:__ZN20SoundChannelInstance15setChannelGroupEPN4FMOD12ChannelGroupE
Jml:_Match__ctor_m2425511580
jFh:_KeyPairPersistence_Remove_m1876145547
aVd:__ZN5physx2Sc19ShapeInstancePairLL26onPoseChangedWhileSleepingEv
T2c:__ZN12LightsModule13AwakeFromLoadEP14ParticleSystemRK27ParticleSystemReadOnlyState
nte:__ZN5physx22PxcSweepCapsuleCapsuleERKNS_11PxsCCDShapeES2_PKNS_12PxsRigidBodyES5_RKNS_11PxTransformES8_S8_S8_fRNS_6PxVec3ESA_RNS_10PxcNpCacheERNS_18PxcNpThreadContextEf
ad:invoke_vifffii
tim:__ZN6il2cpp2vm9Exception27RaiseNullReferenceExceptionEv
$Ad:__ZNK5physx3Cct17CapsuleController21getHalfHeightInternalEv
g_a:__ZNK25MultiBlocksMemoryFileData5CloneEv
hym:_GC_add_ext_descriptor
s5l:__ZNK15dense_hashtableINSt3__24pairIK10KeyWrapperINS1_IPK14Il2CppAssemblyP11Il2CppClassEEEjEES9_17ReflectionMapHashIS8_EN14dense_hash_mapIS9_jSD_NS9_14EqualsComparerINS0_8equal_toIS8_EEEENS0_9allocatorISB_EEE9SelectKeyESI_SK_E23find_position_with_hashERSA_j
cwk:_LayoutGroup_SetProperty_TisSingle_t1397266774_m793506911_gshared
OEl:_AudioClip_InvokePCMSetPositionCallback_Internal_m3097960898
pAg:_CryptoConfig_CreateFromName_m1538277313
yNl:_Animation_GetStateCount_m3809146648
CId:__ZL30GeomOverlapCallback_CapsuleBoxRKN5physx10PxGeometryERKNS_11PxTransformES2_S5_PNS_2Gu12TriggerCacheE
CIm:dynCall_iiiiiiiiiiii
Pnh:_InputField_set_caretPositionInternal_m3823580651
qxh:_Selectable_set_interactable_m3105888815
W6a:__ZL26KeywordSetToStringDontSortRKNSt3__26vectorIN4core12basic_stringIcNS1_20StringStorageDefaultIcEEEENS_9allocatorIS5_EEEERS5_
Aof:__Z54Register_UnityEngine_Analytics_CustomEventData_AddCharv
QLa:__ZN6prcoreL17RemapGenericFloatI16TexFormatRGFloat17TexFormatRGBAHalfEEvPKNS_9InnerInfoE
SR:__ZN12AudioManager22CreateFMODSoundFromWWWEP10IWWWStream15FMOD_SOUND_TYPE17FMOD_SOUND_FORMATjjbbP10SampleClip
nmc:__ZNK32RendererMaterialAnimationBinding15GenerateBindingERKN4core12basic_stringIcNS0_20StringStorageDefaultIcEEEEbRN11UnityEngine9Animation14GenericBindingE
FYf:_TargetException__ctor_m4172127019
T1k:_List_1_CheckCollection_m274117203_gshared
nek:__ZL70EventSystem_t1003666588_CustomAttributesCacheGenerator_m_FirstSelectedP21CustomAttributesCache
N9:__ZN8Remapper23GetOrGenerateInstanceIDERK26SerializedObjectIdentifier
VA:__ZN17AnimationCurveTplI8Vector3fEC2ERKS1_
_Ef:_ColorTween_get_startColor_m3792586410_AdjustorThunk
mb:invoke_iiiiiifffiiifii
Vcj:__Z85RuntimeInvoker_Void_t1185182177_Int32_t2950945753_Int32_t2950945753_Int32_t2950945753PFvvEPK10MethodInfoPvPS4_
uLf:_CustomInfo__ctor_m426096741
Rxf:_EventSystem_ToString_m3779610692
nNg:_RecordProtocol_BeginReceiveRecord_m295321170
Mjb:__ZN6Sprite8TransferI24GenerateTypeTreeTransferEEvRT_
pTg:_InternalEnumerator_1_get_Current_m2223614542_AdjustorThunk
XFc:__Z48Register_UnityEngine_Transform_SetAsFirstSiblingv
BWg:_InternalEnumerator_1_System_Collections_IEnumerator_get_Current_m694606607_gshared
Pjb:__ZN7SubMesh8TransferI24GenerateTypeTreeTransferEEvRT_
rSd:__ZNK5physx19NpArticulationJoint28getTwistLimitContactDistanceEv
pvl:_UnityEvent_1_FindMethod_Impl_m2511430237_gshared
Ypd:__ZN5physx3Cct10Controller6setPosERKNS_14PxExtendedVec3E
rHk:_Collection_1_System_Collections_IList_Contains_m296643274_gshared
dsd:__ZN5physx2GuL14testFaceNormalERKNS0_13PolygonalDataES3_PNS0_12SupportLocalES5_RKNS_6shdfnd3aos15PsMatTransformVESA_RKNS7_6FloatVERSB_RjRNS7_5Vec3VENS0_13FeatureStatusERSI_
Sog:_DirectoryInfo__ctor_m126519516
dVf:_MethodBase_GetMethodFromIntPtr_m3014201362
vZg:_InternalEnumerator_1_get_Current_m2315302778_AdjustorThunk
nC:__ZN7mecanim5human9HumanGoal8TransferI18StreamedBinaryReadILb0EEEEvRT_
Kff:__ZNK20TextRenderingPrivate7GUIText22GetTypeVirtualInternalEv
Nvc:__ZN9Transform23SetSiblingIndexInternalEib
IId:__ZL32GeomOverlapCallback_ConvexConvexRKN5physx10PxGeometryERKNS_11PxTransformES2_S5_PNS_2Gu12TriggerCacheE
hFe:__Z11CopyBuffersRN5physx13PxcNpWorkUnitERNS_18PxcNpThreadContextEb
hfg:_Enumerator_MoveNext_m635366482
C0f:_X509Extension_Equals_m1222951829
TE:__ZN7mecanim5human12HumanPoseSubERNS0_9HumanPoseERKS1_S4_
zmm:__ZN6il2cpp8metadata15GenericMetadata15GetGenericClassEiPK17Il2CppGenericInst
aEb:__Z18Transfer_BlittableI14SafeBinaryReadLb0E10Matrix4x4fEvRK29SerializationCommandArgumentsR31RuntimeSerializationCommandInfo
BTb:__Z24GetFixedBehaviourManagerv
Hpi:_Object_DestroyObject_m1406874517
S0l:__ZN6il2cpp2vm10ThreadPool4WaitEP17Il2CppAsyncResultPPv
oHh:_PKCS12_Encrypt_m2617413749
Xll:_X509Crl_VerifySignature_m1377612461
V1f:_Activator_CreateInstance_m94526014
IDm:_vfprintf
jJc:__ZN10GUIManager12AddGUIScriptER8ListNodeI13MonoBehaviourE
wfg:_Stack_Clear_m2010200235
q2e:_cf2_getVStore
Hzf:_PointerEventData_set_pointerPressRaycast_m1363193059
z1b:__ZN20DynamicPropertySheetD0Ev
X_f:_SafeHandle_Dispose_m4229010569
Pdc:__ZN14SafeBinaryRead17RegisterConverterEPKcS1_PFbPvRS_E
V3j:__ZL77RuntimePlatform_t4159857903_CustomAttributesCacheGenerator_OSXDashboardPlayerP21CustomAttributesCache
Zja:__ZN35RegisterRuntimeInitializeAndCleanup8RegisterEPFvPvES2_iS0_
iRf:_FieldBuilder_SetValue_m828035213
yt:__ZN7mecanim6memory16ChainedAllocator7ReserveEj
xqk:_Array_InternalArray__Insert_TisSingle_t1397266774_m3161726127_gshared
a9a:__ZN20SphericalHarmonicsL215AddAmbientLightERK10ColorRGBAf
rte:__ZN5physx25PxcSweepConvexHeightfieldERKNS_11PxsCCDShapeES2_PKNS_12PxsRigidBodyES5_RKNS_11PxTransformES8_S8_S8_fRNS_6PxVec3ESA_RNS_10PxcNpCacheERNS_18PxcNpThreadContextEf
Sza:__ZN8Material26ResetAllCachedMaterialDataEP6Shader
Qjj:__Z63RuntimeInvoker_Void_t1185182177_RuntimeObject_Int16_t2552820387PFvvEPK10MethodInfoPvPS4_
Uaf:_UNITY_TT_Get_MM_Var
Nlh:_ObjectManager_AddFixup_m2154325362
P1g:_Comparer_1__cctor_m3761458313_gshared
k4h:_DateTimeOffset_CompareTo_m1350732322_AdjustorThunk
ba:invoke_diddi
ljf:__ZNK2UI6Canvas13GetRenderModeEv
hki:_PersistentCall__ctor_m1217622171
REi:_Array_compare_TisCustomAttributeTypedArgument_t2723150157_m1384644047_gshared
qFm:_unlink
lDb:__Z18Transfer_BlittableI14SafeBinaryReadLb0EiEvRK29SerializationCommandArgumentsR31RuntimeSerializationCommandInfo
E$l:__ZN6il2cpp2vm13MetadataCache30GetPropertyDefinitionFromIndexEi
LAl:_SymmetricTransform_Transform_m1683494363
dbe:__ZN5physx14NpRigidDynamic7releaseEv
Zrf:__ZN22BaseUnityConnectClient17InitializeSessionERKN4core12basic_stringIcNS0_20StringStorageDefaultIcEEEES6_N19CloudServiceHandler13InitModeFlagsE
hIj:__ZL56KeyCollection_t4251528776_CustomAttributesCacheGeneratorP21CustomAttributesCache
kqj:__Z74RuntimeInvoker_RuntimeObject_Int32_t2950945753_RuntimeObject_RuntimeObjectPFvvEPK10MethodInfoPvPS4_
j7h:_Decimal_op_Implicit_m1349849065
Hpe:__ZN5physx6shdfnd8PoolBaseINS_21PxsBodyTransformVault13PxsBody2WorldENS0_19ReflectionAllocatorIS3_EEE15disposeElementsEv
K8k:_List_1_get_Item_m200663048_gshared
Lu:__ZN15SerializeTraitsI9OffsetPtrIN7mecanim9animation23BlendDirectDataConstantEEE8TransferI24GenerateTypeTreeTransferEEvRS4_RT_
zPm:_emscripten_glDeleteBuffers__wrapper
Qxc:__ZN13MonoBehaviour34StopCoroutineFromEnumeratorManagedE18ScriptingObjectPtr
fyd:__ZN5physx2Gu30computeCapsule_TriangleMeshMTDERKNS_22PxTriangleMeshGeometryERKNS_11PxTransformERNS0_8CapsuleVEffbRNS_10PxSweepHitE
Gad:__ZN11UnityEngine9Analytics18SceneLoadTimeEvent12SetSceneLoadERKN4core12basic_stringIcNS2_20StringStorageDefaultIcEEEEiyyyy
Cvb:__ZN30RuntimeInitializeOnLoadManager8TransferI18StreamedBinaryReadILb0EEEEvRT_
w3h:_DateTimeOffset__ctor_m2084804982
h7e:_UNITY_tt_face_load_pclt
dxc:__ZL34GetComponentsImplementationRecurseILb1ELi0ELi2EEbR10GameObjectbRK17CompareParametersRK39GetComponentsImplementation_ReturnValue
jrk:_Array_InternalArray__set_Item_TisSlot_t3975888750_m3701794315_gshared
dkd:__ZN10ClipperLib7Clipper24InsertLocalMinimaIntoAELEx
m4f:_Array_Sort_m3698291233
ani:_Material_GetTexture_m3545614349
Uge:__ZThn8_N5physx2Sc19ShapeInstancePairLL10onActivateEj
Haj:__Z64RuntimeInvoker_RuntimeObject_Int32_t2950945753_Int16_t2552820387PFvvEPK10MethodInfoPvPS4_
Y1c:__ZN16CustomDataModule8TransferI19StreamedBinaryWriteILb0EEEEvRT_
Z2i:_EqualityComparer_1__cctor_m4244842342_gshared
W0b:__ZNK6Camera18WorldToScreenPointERK8Vector3fPb
xze:__ZN5physx2Cm12DelegateTaskINS_10PxsContextEXadL_ZNS2_28mergeCMDiscreteUpdateResultsEPNS_10PxBaseTaskEEEE11runInternalEv
nvi:_SendMouseEvents_DoSendMouseEvents_m2140870850
bnf:__ZN14UnityAnalyticsD0Ev
kQe:__ZN5physx19TriangleMeshBuilder10importMeshERKNS_18PxTriangleMeshDescERKNS_15PxCookingParamsEb
Jnl:_PatternCompiler_EmitJump_m3915926156
tOa:__Z18IsCompressedFormat14GraphicsFormat
AYf:_PropertyInfo_SetValue_m2777755129
NX:__ZN11AudioSource19ApplyMinMaxDistanceERKNS_14ParameterCacheE12SoundChannel
HQi:__Z33il2cpp_codegen_check_add_overflowxx
P8:__ZNSt3__227__insertion_sort_incompleteIRPFbRKN18AwakeFromLoadQueue4ItemES4_EPS2_EEbT0_S9_T_
b4j:__ZL73RuntimePlatform_t4159857903_CustomAttributesCacheGenerator_MetroPlayerARMP21CustomAttributesCache
jog:_InvalidOperationException__ctor_m1685032583
EZl:__ZN14dense_hash_mapI10KeyWrapperIN6il2cpp5utils13dynamic_arrayIPK10Il2CppTypeLj4EEEEPFvvENS1_8metadata19Il2CppSignatureHashENS8_14EqualsComparerINSB_22Il2CppSignatureCompareEEENSt3__29allocatorINSG_4pairIKS8_SA_EEEEE15set_deleted_keyERSJ_
nRi:_TimeSpan_op_Subtraction_m3592306516
a5i:_EqualityComparer_1_System_Collections_IEqualityComparer_GetHashCode_m1517903420_gshared
e4d:__ZN5physx6shdfnd5ArrayINS_18PxClothFabricPhaseENS0_19ReflectionAllocatorIS2_EEE8recreateEj
mhb:__ZN26EnlightenSystemInformation8TransferI14SafeBinaryReadEEvRT_
m2c:__ZN13InitialModule5ResetEv
Hub:__ZN24GenerateTypeTreeTransfer8TransferINSt3__26vectorIN15ResourceManager10DependencyE13stl_allocatorIS4_L18MemLabelIdentifier52ELi16EEEEEEvRT_PKc17TransferMetaFlags
UMl:_CanvasRenderer_SplitUIVertexStreams_m2753637362
Ssj:__Z119RuntimeInvoker_Void_t1185182177_RuntimeObject_Single_t1397266774_Single_t1397266774_SByte_t1669577662_Int32_t2950945753PFvvEPK10MethodInfoPvPS4_
ptf:__ZN11UnityEngine15PlatformWrapper20SetPlayerPrefsUInt64ERKN4core12basic_stringIcNS1_20StringStorageDefaultIcEEEEy
bob:__ZN12MeshRendererD0Ev
f$:__ZN12AudioManager35GetCurrentSpatializerDefinitionNameEv
jwd:__ZN5physx2Gu16sweepBoxTriangleERKNS_10PxTriangleERKNS_9PxBounds3ERKNS_6PxVec3ES9_RS7_SA_Rf
nSl:_CustomEventData_InternalDestroy_m2184675245
ti:_utime
WQe:__ZN5physx10writeChunkEaaaaRNS_14PxOutputStreamE
bql:_BalancingGroup_Compile_m2575117193
Dfl:_FPSCounter_Update_m1910513279
dM:__Z28SetExposedSkeletonTransformsRKN7mecanim9animation14AvatarConstantERKN11UnityEngine9Animation30AnimatorGenericBindingConstantERKNS_8skeleton13SkeletonPoseTIN4math4trsXEEERKNSA_INSB_7affineXEEERNS5_21AvatarBindingConstantEy
X0l:__ZN6il2cpp6icalls8mscorlib6System8MonoType18IsGenericParameterEPK10Il2CppType
z4l:__ZNSt3__26vectorIN6il2cpp2vm17TypeNameParseInfoENS_9allocatorIS3_EEE8allocateEj
_dh:_Context_NotifyDynamicSinks_m1841702879
Eml:_Mark_get_Index_m3048692661_AdjustorThunk
Un:FUNCTION_TABLE_viiiiif
p1g:_DefaultComparer_Compare_m3931992727_gshared
Ho:FUNCTION_TABLE_viiiiii
f0g:_InternalEnumerator_1_System_Collections_IEnumerator_get_Current_m1847780851_AdjustorThunk
Bzl:_GUILayoutUtility_get_spaceStyle_m3392862907
Zlg:_Int32_System_IConvertible_ToType_m3009233912_AdjustorThunk
x3h:_DateTimeOffset__ctor_m74032857
TWd:__ZN5physx2Sc9RigidCore13onShapeChangeERNS0_9ShapeCoreENS_7PxFlagsINS0_21ShapeChangeNotifyFlag4EnumEjEENS4_INS_11PxShapeFlag4EnumEhEE
FN:__ZN7mecanim9animation22DestroyAvatarWorkspaceEPNS0_15AvatarWorkspaceERNS_6memory9AllocatorE
gSi:_Type_type_is_assignable_from_m76737532
D8d:__ZN5physx6shdfnd5ArrayIPvNS0_15InlineAllocatorILj256ENS0_19ReflectionAllocatorINS_2Sc19ParticlePacketShapeEEEEEE15growAndPushBackERKS2_
Wve:__ZN5physx17solveContactBlockEPKNS_23PxcSolverConstraintDescEjRNS_16PxcSolverContextE
dRe:__ZN5physx6shdfnd10FoundationD2Ev
W7b:__ZN15LightmapSTCacheC2ER13BatchRendererR15RenderLoopStats
Rdb:__ZN14PlayableOutput17SetSourcePlayableEP8Playable
uvb:__ZNSt3__26vectorIN4core12basic_stringIcNS1_20StringStorageDefaultIcEEEE13stl_allocatorIS5_L18MemLabelIdentifier13ELi16EEE8__appendEj
boi:_Mesh_Internal_Create_m2853543051
VM:__ZN7mecanim9animation29MotionOutputGetDeltaTransformEPKNS0_12MotionOutputE
Fad:__ZN27PerformanceReportingManager21OnSceneTimingCallbackERK15SceneLoadTimingRKN4core12basic_stringIcNS3_20StringStorageDefaultIcEEEE
lFc:__Z43Transform_CUSTOM_INTERNAL_get_localRotationP12Il2CppObjectP11Quaternionf
cqe:__ZN5physx2Sc10NPhaseCoreD2Ev
FKd:__ZN5physx2Sc7BodySim18onConstraintDetachEv
Bym:__ZN6il2cpp6icalls8mscorlib6System10Reflection4Emit13ModuleBuilder13RegisterTokenEP29Il2CppReflectionModuleBuilderP12Il2CppObjecti
WMh:_X509Certificate2_GetValueAsString_m1348462142
u3l:__ZN6il2cpp2os4File9SetLengthEPNS0_10FileHandleExPi
hnc:__ZZL23RegisterLightPropertiesR22GenericPropertyBindingEN20Wrapper_LightColorr013SetFloatValueEPvf
wlh:_ObjectReader_ReadObjectGraph_m340866276
Yi:_emscripten_glGetTexParameteriv
Cie:__ZN5physx7NpScene8simulateEfPNS_10PxBaseTaskEPvjb
aPm:_glGenTextures__wrapper
Kua:__ZN9ShaderLab20SerializedSubProgram14ConstantBufferaSERKS1_
Iic:__Z13RegisterClassI4MeshEvv
v7j:__ZL74SharedBetweenAnimatorsAttribute_t2857104338_CustomAttributesCacheGeneratorP21CustomAttributesCache
gbb:__ZN8PlayableD0Ev
qh:emscriptenWebGLGetBufferBinding
vT:__ZN12AudioManager8TransferI19StreamedBinaryWriteILb0EEEEvRT_
cHf:_Dropdown_Hide_m504034854
BMl:_CanvasGroup_IsRaycastLocationValid_m2128397950
Txh:_Slider_UpdateCachedReferences_m3259451627
fPg:_SslStreamBase_get_KeyExchangeStrength_m217695965
kij:__Z50RuntimeInvoker_Double_t594665363_Double_t594665363PFvvEPK10MethodInfoPvPS4_
hPb:__ZN18StreamedBinaryReadILb1EE21TransferSTLStyleArrayI13dynamic_arrayI11ColorRGBA32Lj4EEEEvRT_17TransferMetaFlags
lfm:__ZN15dense_hashtableINSt3__24pairIK10KeyWrapperINS1_IP11Il2CppClassjEEES4_EES6_N6il2cpp8metadata14ArrayClassHashEN14dense_hash_mapIS6_S4_SB_NS6_14EqualsComparerINSA_17ArrayClassCompareEEENS0_9allocatorIS8_EEE9SelectKeyESF_SH_E6insertERKS8_
zHf:_U3CShowU3Ec__AnonStorey1_U3CU3Em__0_m2340880019
HTd:__ZN5physx18NpArticulationLink10clearForceENS_11PxForceMode4EnumE
T$h:_ASCIIEncoding_GetString_m58523364
Vsd:__ZN5physx2Gu30distanceSegmentTriangleSquaredERKNS_6PxVec3ES3_S3_S3_S3_PfS4_S4_
Fld:__ZN16CircleCollider2D10SmartResetEv
Qil:_TlsStream_Flush_m3793197834
PAb:__ZN22LocalFileSystemHandler9MakeLocalER13FileEntryDatab
Ztm:__ZN6il2cpp2vm8Profiler10AllocationEP12Il2CppObjectP11Il2CppClass
Crl:_Uri_IsHexEncoding_m3290929897
Fhk:__ZL61Graphic_t1660335611_CustomAttributesCacheGenerator_m_MaterialP21CustomAttributesCache
pff:__ZNSt3__23mapIN20TextRenderingPrivate7FontRefENS1_6OSFontENS_4lessIS2_EENS_9allocatorINS_4pairIKS2_S3_EEEEEixERS8_
n8g:_ShimEnumerator_get_Value_m153531060_gshared
Zra:__Z13FormatOrderedPKcz
D2l:__ZN6il2cpp2vm8basepathEPKc
GNh:_X509Chain_GetAuthorityKeyIdentifier_m614536199
Pcf:__ZN14SafeBinaryRead21TransferSTLStyleArrayI10vector_mapINSt3__24pairIttEEfN20TextRenderingPrivate8FontImpl14KerningCompareENS2_9allocatorINS3_IS4_fEEEEEEEvRT_17TransferMetaFlags
yKg:_TlsServerFinished__ctor_m1445633918
y1a:__ZN13dynamic_arrayI17SortingLayerEntryLj4EE6insertEPS0_jRKS0_
c4j:__ZL68RuntimePlatform_t4159857903_CustomAttributesCacheGenerator_WP8PlayerP21CustomAttributesCache
H7b:__ZN25DeferredRenderLoopScratchD0Ev
pH:__ZN27AnimationLayerMixerPlayable14SetInputWeightEif
kzf:_PhysicsRaycaster_Raycast_m776323695
gyi:_UnityException__ctor_m1456865679
PE:__ZN7mecanim9animation17EvaluateHumanPoseERKNS0_18ClipMuscleConstantERKNS0_15ClipMuscleInputEPKfRKNS0_12MotionOutputERNS_5human9HumanPoseE
AFh:_PKCS1_Encrypt_v15_m1016948107
Uta:__ZN15dense_hashtableINSt3__24pairIKiN4core17string_with_labelILi1EEEEEi18SInt32HashFunctionN14dense_hash_mapIiS5_S7_NS0_8equal_toIiEE13stl_allocatorIS6_L18MemLabelIdentifier1ELi16EEE9SelectKeyESA_SD_E9copy_fromERKSG_j
aOf:_CustomAttributeNamedArgument_GetHashCode_m2317130892
cub:__ZN15ResourceManagerD0Ev
fga:__ZN22CreateGpuProgramOutputD2Ev
$Bd:__ZNK5physx3Cct15ObstacleContext14getNbObstaclesEv
I7c:__Z17UpdateSprites2TplIL27ParticleSystemCurveEvalMode2ELS0_3EEvfRK11MinMaxCurveS3_RK23ParticleSystemParticlesPf
WNe:__ZN5physx6shdfnd8PoolBaseINS_11NpAggregateENS0_19ReflectionAllocatorIS2_EEE12allocateSlabEv
hu:__ZN7mecanim9animation23BlendDirectDataConstant8TransferI14SafeBinaryReadEEvRT_
wTh:_SHA1CryptoServiceProvider_Finalize_m1793183797
J6i:_HashSet_1_System_Collections_Generic_ICollectionU3CTU3E_CopyTo_m408073502_gshared
x9d:__ZN5physx7NpScene26removeFromParticleBaseListERNS_14PxParticleBaseE
l9d:__ZN5physx23NpParticleFluidReadData18getDataAccessFlagsEv
_zb:__ZN12HandlerChain4OpenER13FileEntryData14FilePermission16FileAutoBehavior
ozj:__Z72RuntimeInvoker_Void_t1185182177_Int32_t2950945753_RaycastHit_t1056001966PFvvEPK10MethodInfoPvPS4_
f7l:__ZN15dense_hashtableINSt3__24pairIK10KeyWrapperINS1_IPK10MethodInfoP11Il2CppClassEEEjEES9_17ReflectionMapHashIS8_EN14dense_hash_mapIS9_jSD_NS9_14EqualsComparerINS0_8equal_toIS8_EEEENS0_9allocatorISB_EEE9SelectKeyESI_SK_E6insertERKSB_
Rad:__ZN27PerformanceReportingManager29OnSceneLoadedAfterAwakeStaticEPS_iR18AwakeFromLoadQueueN19RuntimeSceneManager11LoadingModeE
JNi:_UTF8Encoding_GetCharCount_m2272165989
sgl:_TimedObjectActivator_Activate_m4140458854
J3f:_Array_SetValue_m394135409
Lca:__ZN14FileCacherReadD2Ev
axb:__ZN13RendererScene23UpdatePreviousFrameDataEii
Q_h:_String_Remove_m562998446
Pzc:__Z50Register_UnityEngine_CullingGroup_FinalizerFailurev
Kxb:__ZN27UnloadUnusedAssetsOperationD0Ev
tGm:__ZNKSt3__221__basic_string_commonILb1EE20__throw_out_of_rangeEv
Wse:__ZN5physx10PxsCCDPair12updateShapesEv
vEd:__ZNK5physx3Ext5JointINS_15PxDistanceJointENS_30PxDistanceJointGeneratedValuesEE16getInvMassScale1Ev
F3l:_UpdatedEventHandler_Invoke_m1320302085
iR:__ZN9AudioClip23VirtualRedirectTransferER18StreamedBinaryReadILb0EE
j8k:_List_1_AddEnumerable_m2724989594_gshared
m5d:__ZN5physx2Sc9ClothCore22removeCollisionCapsuleEj
Orj:__Z82RuntimeInvoker_Vector2_t2156229523_Vector2_t2156229523_RuntimeObject_RuntimeObjectPFvvEPK10MethodInfoPvPS4_
aTa:__ZN18GlslGpuProgramGLESC2ERK13dynamic_arrayIhLj1EER22CreateGpuProgramOutput
nHc:__Z70Register_UnityEngine_Playables_PlayableHandle_GetPlayableType_Injectedv
NLd:__ZN5physx16PxsIslandManager25setArticulationLinkHandleEjPvRKNS_20PxsIslandManagerHookIjLj4294967295EEE
yk:_glCopyTexSubImage2D
tWc:__ZNK21RotationBySpeedModule6UpdateERK27ParticleSystemReadOnlyStateRK19ParticleSystemStateR23ParticleSystemParticlesRKN4math7_float4Ejj
LSm:_glActiveTexture__wrapper
lyi:_UnitySynchronizationContext_ExecuteTasks_m1310741010
cSh:_RIPEMD160Managed_CompressFinal_m497690796
ddc:__ZN18ScreenManagerWebGL13SetShowCursorEb
aZb:__ZN13DrawImmediateC2ER9GfxDevice
TDm:_frexp
Dkf:__ZN2UI13CanvasManager14GetRenderOrderEPKNS_6CanvasE
CVd:__ZN5physx6shdfnd5ArrayIPNS_3Scb5ShapeENS0_15InlineAllocatorILj16ENS0_19ReflectionAllocatorIS4_EEEEE15growAndPushBackERKS4_
YDb:__Z18Transfer_BlittableI14SafeBinaryReadLb0E5RectTIfEEvRK29SerializationCommandArgumentsR31RuntimeSerializationCommandInfo
ung:_NumberFormatter_NumberToString_m2562899600
U5e:_otv_u_C_x_Ox
SFa:__ZN14GfxContextGLES14GetFramebufferEv
QPm:_emscripten_glGenVertexArrays__wrapper
tWi:_Version_Clone_m1749041863
BKa:__ZN6prcoreL21CreateRemapAnyBlitterE13TextureFormatS0_
DHg:_RSAManaged_ExportParameters_m1754454264
Ytc:__ZN17AnimationCurveTplIfE16StripInvalidKeysEv
H6f:_Boolean_Equals_m535526264_AdjustorThunk
tBi:_Array_InternalArray__ICollection_Contains_TisTouch_t1921856868_m354355717_gshared
sjf:__ZNK2UI6Canvas17GetSortingLayerIDEv
twc:__ZL12HashLen0to16PKcj
xhd:__ZN14Raycast2DQuery8RunQueryEb
zic:__Z13RegisterClassI17GlobalGameManagerEvv
Zha:__ZN8Renderer24SetupNewRendererForSceneEv
bSi:_Type_internal_from_name_m1721940673
Fgh:_RemotingServices_GetMethodBaseFromName_m3194612939
RPc:__Z35Transfer_Blittable_FixedBufferFieldI8JSONReadtEvRK29SerializationCommandArgumentsR31RuntimeSerializationCommandInfo
rEe:__ZN5physx2Sc8ClothSim16addCollisionMeshEPKNS0_8ShapeSimE
Xpc:__ZN14PlayableOutput6HandleEv
jjb:__ZNK6Sprite22GetTypeVirtualInternalEv
Fvf:__ZN13RuntimeStaticINSt3__26vectorI23UnityVRDeviceDefinition13stl_allocatorIS2_L18MemLabelIdentifier90ELi16EEEELb0EE13StaticDestroyEPv
Bo:FUNCTION_TABLE_iiiiiiiiiiiiii
uJe:__ZN5physx6shdfnd5ArrayIPKNS_10PxsCCDBodyENS0_19ReflectionAllocatorIS4_EEE8recreateEj
wVd:__ZN5physx6shdfnd4sortINS_2Cm19PreallocatingRegionENS0_4LessIS3_EENS0_19ReflectionAllocatorIS3_EEEEvPT_jRKT0_RKT1_j
L6e:_UNITY_tt_get_cmap_info
KKb:__Z29Transfer_Blittable_ArrayFieldI24GenerateTypeTreeTransfer5RectTIiEEvRT_R9ArrayInfoRK23StaticTransferFieldInfo
j8a:__ZN16ReflectionProbes8ScheduleEN18ReflectionProbeJob7JobTypeEP15ReflectionProbei
CKg:_ClientSessionInfo_KeepAlive_m1020179566
Cjf:__ZN13dynamic_arrayIN2UI13UIInstructionELj4EE12emplace_backEv
XXa:__Z18IsDirectoryCreatedRKN4core12basic_stringIcNS_20StringStorageDefaultIcEEEE
YVh:_String_FormatHelper_m3913915042
rif:__ZN2UI13CanvasManagerD2Ev
q9c:__ZZN14ParticleSystem15InitializeClassEvEN52PreLateUpdateParticleSystemBeginUpdateAllRegistrator7ForwardEv
PWl:__ZN15dense_hashtableINSt3__24pairIK10KeyWrapperIPKcEP11Il2CppClassEES5_N6il2cpp5utils11StringUtils12StringHasherIS4_EEN14dense_hash_mapIS5_S8_SE_NS5_14EqualsComparerINSB_13VmStringUtils21CaseSensitiveComparerEEENS0_9allocatorIS9_EEE9SelectKeyESJ_SL_E15set_deleted_keyERKS9_
I1f:_AttrListImpl_get_Names_m977594476
Sef:_UNITY_FT_GlyphLoader_Done
Rhd:__ZN19OverlapPointQuery2D14InitializeAABBER6b2AABB
g8h:_StackTrace_get_FrameCount_m344690939
ncl:_VirtualAxis__ctor_m3267701462
Bqg:_FileStream_BeginRead_m2419864669
Cug:_UnexceptionalStreamWriter_Write_m363195622
Dwe:__ZN5physx18ComputeSortedListsEPNS_2Cm10BitMapBaseINS_6shdfnd9AllocatorEEEjjPKjPPNS_8SapBox1DES7_PjSB_jRKNS_2Gu4AxesESB_RjSB_SG_RbSH_
fAi:_Array_get_swapper_TisRuntimeObject_m1378919517_gshared
hyf:_EventTrigger_OnInitializePotentialDrag_m2172162368
M7e:_tt_cmap14_char_var_index
hRl:_Physics2D_Raycast_m1700114981
Coh:_Selectable_OnPointerDown_m1086067264
Xbf:_psh_globals_new
TGf:_Dropdown_SetupTemplate_m628218778
aOi:_Thread_GetCompressedStack_m2923422412
xbg:_SynchronizedArrayListWrapper_CopyTo_m4207791406
VLh:_X509BasicConstraintsExtension_ToString_m1809935297
pAa:__ZN9GfxDevice20SetMaxBufferedFramesEi
Zwl:_TweenRunner_1_StartTween_m1055628540_gshared
Csk:_Array_qsort_TisUIVertex_t4057497605_TisUIVertex_t4057497605_m678708019_gshared
Cbd:__ZN10Collider2D19WakeAllBodyContactsEv
Qvk:_GameObject_GetComponents_TisRuntimeObject_m1246177135_gshared
XIm:dynCall_vdd
nvg:_MethodAccessException__ctor_m3542088436
ifc:__Z23ConvertIntegerToTypePtrIsEbPvR14SafeBinaryRead
Qdd:__ZN12b2MouseJoint11ShiftOriginERK6b2Vec2
LQd:__ZNK5physx14NpArticulation17releaseDriveCacheERNS_24PxArticulationDriveCacheE
m2i:_EqualityComparer_1_System_Collections_IEqualityComparer_GetHashCode_m2230215241_gshared
Tkk:__ZL60ContentSizeFitter_t3850442145_CustomAttributesCacheGeneratorP21CustomAttributesCache
Fdg:_Hashtable_Contains_m2145146412
cZj:__ZL64UnmarshalledAttribute_t1517743549_CustomAttributesCacheGeneratorP21CustomAttributesCache
Esc:__ZN4Mesh24UpdateSubMeshVertexRangeEi
P4d:__ZNK5physx2Sc9ClothCore25getSelfCollisionStiffnessEv
HUc:__Z13UpdateSizeTplIL27ParticleSystemCurveEvalMode3EEvRK11MinMaxCurveR23ParticleSystemParticlesbjj
jkg:_Int32_FindCurrency_m3541026887
KRh:_Interval_CompareTo_m3282557545
XQm:_pthread_cond_wait__wrapper
U6b:__ZNK14RenderSettings19GetFlatAmbientColorEv
bKa:__ZN6prcoreL10inner_flipILj4EEEvPhS1_j
Msb:__ZN18StreamedBinaryReadILb0EE21TransferSTLStyleArrayI10vector_mapIPKN5Unity4TypeE7Hash128NSt3__24lessIS6_EENS8_9allocatorINS8_4pairIS6_S7_EEEEEEEvRT_17TransferMetaFlags
mJ:__ZNK27StateMachineBehaviourPlayer15IsSenderEnabledEv
EDg:_RijndaelManagedTransform_TransformBlock_m1610137419
PFc:__Z40Register_UnityEngine_Transform_SetParentv
_kb:__ZN14Texture2DArray17UploadToGfxDeviceEv
Xxl:_Event_set_displayIndex_m1342258734
cV:__Z14FMODMemoryFreePvjPKc
Ljg:_Int16_System_IConvertible_ToType_m3672347013
aki:_NetFxCoreExtensions_GetMethodInfo_m444570327
Z4b:__Z14SetSHConstantsR13BatchRendererR17ShaderPassContextRK20SphericalHarmonicsL2b
K8e:_tt_cmap0_validate
g8f:_Char_System_IConvertible_ToDecimal_m3534906463
X2e:_cf2_glyphpath_moveTo
yme:__ZN5physx3Scb4Body9syncStateEv
lzi:_Vector3_get_magnitude_m27958459_AdjustorThunk
Uid:__ZNK13BoxCollider2D22GetTypeVirtualInternalEv
Yvi:_StackTraceUtility_SetProjectFolder_m830524047
VUd:__ZN5physx12PxsRigidBody23updatePoseDependenciesVERNS_10PxsContextE
PF:__ZN7mecanim23TransformValueArrayLoopEiiiRKN4math4trsXES3_RNS_10ValueArrayEf
RKg:_ClientSessionInfo_Finalize_m2165787049
eJc:__ZN5IMGUI14GUIWindowStateD2Ev
OJg:_ClientContext_Clear_m1774063253
Usc:__ZN4Mesh17SetIndicesComplexEPKvjj16GfxPrimitiveTypeij
I6c:__Z20UpdateWholeSheet2TplIL27ParticleSystemCurveEvalMode1ELS0_0EEvfRK11MinMaxCurveS3_RK23ParticleSystemParticlesPf
O2h:_DateTime_AddSeconds_m332574389_AdjustorThunk
$xi:_RequestAtlasCallback_Invoke_m378128467
o7f:_Byte_System_IConvertible_ToSByte_m1869482168
Bgm:__GLOBAL__sub_I_Assembly_cpp
uHf:_U3CDelayedDestroyDropdownListU3Ec__Iterator0_MoveNext_m213723240
UWb:__Z21PlayerStartFirstSceneb
fM:__ZN7mecanim5human10RetargetToEPKNS0_5HumanEPKNS0_9HumanPoseES6_RKN4math4trsXEPS4_PNS_8skeleton13SkeletonPoseTIS8_EESF_
HF:__ZN7mecanim9animation8SeekClipERKNS0_12StreamedClipERNS0_18StreamedClipMemoryEf
tHl:__ZL24UnresolvedVirtualCall_68P12Il2CppObjectS0_iS0_S0_S0_S0_S0_S0_PK10MethodInfo
kli:_GameObject_Internal_AddComponentWithType_m3797731663
fn:_emscripten_glIsTexture
iB:__ZN24CompressedAnimationCurveaSERKS_
Ml:_emscripten_glHint
_Tc:__ZN15PolynomialCurve22IsValidPolynomialCurveERK17AnimationCurveTplIfE
dBl:_Check_SourceAndPredicate_m2332465641
vnd:__ZZN10Collider2D15InitializeClassEvEN30FunctorImpl_98kDidAddComponent4CallEPviR11MessageData
cqj:__Z67RuntimeInvoker_Boolean_t97287965_TextGenerationSettings_t1351628751PFvvEPK10MethodInfoPvPS4_
Gaf:_ft_var_readpackeddeltas
nXh:_String_op_Inequality_m215368492
ONb:__Z35Transfer_Blittable_FixedBufferFieldI18StreamedBinaryReadILb1EEtEvRK29SerializationCommandArgumentsR31RuntimeSerializationCommandInfo
lUi:_UInt32_System_IConvertible_ToInt64_m2261037378
jn:_SDL_UpperBlit
KXk:_List_1_System_Collections_IList_Add_m49923158_gshared
f8a:__Z35GetTextureDecodeValuesWithIntensity16TextureUsageMode17TextureColorSpace10ColorSpacef
GBi:_Array_InternalArray__ICollection_Remove_TisChar_t3634460470_m4143749387_gshared
oZb:__ZN15dense_hashtableINSt3__24pairIK9TextureIDiEES2_14GfxGenericHashIS2_EN14GfxDoubleCacheIS2_iS6_NS0_8equal_toIS2_EEN31GfxDoubleCacheConcurrencyPolicy11LocklessGetE42GfxDoubleCacheDefaultEmptyDeletedGeneratorIS2_EE9SelectKeyES9_13stl_allocatorIS4_L18MemLabelIdentifier24ELi16EEE14squash_deletedEv
D0d:__ZNK5physx7NpShape16getContactOffsetEv
yye:__ZN5physx14PxsAABBManager21processAggregatePairsEPKNS_19AggregateSortedDataE
Ldd:__ZNK12b2MouseJoint10GetAnchorAEv
g2h:_GregorianCalendar__ctor_m979779718
eOg:_SslClientStream__ctor_m2402546929
JTb:__ZN14SafeBinaryRead20OverrideRootTypeNameEPKc
hIh:_DictionaryNodeEnumerator_get_Entry_m2309234501
Pca:__ZN14FileCacherRead16UnlockCacheBlockEj
cla:__ZN10InstancingL21OnGraphicsCapsChangedEv
aQi:_WaitHandle_get_Handle_m3260446580
UWk:_Enumerator_VerifyState_m1745883925_AdjustorThunk
Bd:_emscripten_glUniform1f
Ceg:_SortedList__ctor_m1261191695
Phc:__ZN13dynamic_arrayIS_I8Vector2fLj4EELj4EE18resize_initializedEjRKS1_12ResizePolicy
vff:__Z20ParseImageParametersR11UTF16StringRiRN20TextRenderingPrivate16TextFormatChangeE
Ikk:__ZL55CanvasScaler_t2767979955_CustomAttributesCacheGeneratorP21CustomAttributesCache
Gd:_emscripten_glUniform1i
gJb:__Z18Transfer_BlittableI24GenerateTypeTreeTransferLb1EN4math12int3_storageEEvRK29SerializationCommandArgumentsR31RuntimeSerializationCommandInfo
Oka:__Z33UnregisterDeviceEventCallbackImplPFv23UnityGfxDeviceEventTypeE
cIe:__ZN5physx2Sc19ShapeInstancePairLL23postIslandGenSecondPassEv
DTe:__ZN14PhysicsManager23VirtualRedirectTransferER19StreamedBinaryWriteILb0EE
Ova:__ZN9ShaderLab16SerializedTagMapaSERKS0_
P1:__ZN11UnityEngine15CloudWebService16SessionContainer20RestoreSessionHeaderERKN4core12basic_stringIcNS2_20StringStorageDefaultIcEEEES8_RNS0_13SessionHeaderE
Nre:__ZN5physx2Sq16BucketPrunerCore12updateObjectERKNS_9PxBounds3ERKNS0_13PrunerPayloadE
pHe:__ZN5physx18PxsDynamicsContext23atomIntegrationParallelEfPKPNS_11PxsBodyCoreEPKPNS_12PxsRigidBodyEjPKNS_2Cm13SpatialVectorEPNS_13PxcSolverBodyEPNS_17PxcSolverBodyDataEPSA_RjSI_RNS_10PxBaseTaskE
tN:__ZN11UnityEngine9Animation27CreateAvatarBindingConstantER9TransformPKN7mecanim9animation14AvatarConstantERNS3_6memory9AllocatorE
Bfj:__Z151RuntimeInvoker_RuntimeObject_Int32_t2950945753_RuntimeObject_ObjectU5BU5DU26_t712384779_RuntimeObject_RuntimeObject_RuntimeObject_ObjectU26_t2146539884PFvvEPK10MethodInfoPvPS4_
dyc:__ZN9BlobWriteC2ER13dynamic_arrayIhLj16EE24TransferInstructionFlags19BuildTargetPlatform
DDf:_CanvasUpdateRegistry__ctor_m2005397069
bba:__ZN14MessageHandler3GetEv
VVf:_MonoMethodInfo_GetCallingConvention_m3156036493
mIa:__ZN10DynamicVBO9DrawChunkERK21DynamicVBOChunkHandle17ShaderChannelMaskS3_P17VertexDeclarationPKNS_10DrawParamsEi
Xqh:_LayoutGroup_SetLayoutInputForAxis_m2458344630
Ud:_emscripten_glAttachShader
L6:__Z40DebugStringToFilePostprocessedStacktraceRK21DebugStringToFileData
tLf:_Image__cctor_m1927508576
ewa:__ZNSt3__26vectorIN4core12basic_stringIcNS1_20StringStorageDefaultIcEEEENS_9allocatorIS5_EEE6assignIPS5_EENS_9enable_ifIXaasr21__is_forward_iteratorIT_EE5valuesr16is_constructibleIS5_NS_15iterator_traitsISC_E9referenceEEE5valueEvE4typeESC_SC_
Gzd:__ZN5physx2Gu19GetRaycastFuncTableEv
j0g:_InternalEnumerator_1_get_Current_m3331252162_AdjustorThunk
FDb:__Z18Transfer_BlittableI14SafeBinaryReadLb0E11QuaternionfEvRK29SerializationCommandArgumentsR31RuntimeSerializationCommandInfo
Rid:__ZN13BoxCollider2D16CheckConsistencyEv
WHe:__ZN5physx17EdgeChangeManager23cleanupBrokenEdgeEventsEPKNS_4EdgeE
UQb:__Z18Transfer_BlittableI18StreamedBinaryReadILb0EELb1E12PropertyNameEvRK29SerializationCommandArgumentsR31RuntimeSerializationCommandInfo
s6:_tlsf_walk_heap
qfj:__Z49RuntimeInvoker_Void_t1185182177_OpCode_t123070264PFvvEPK10MethodInfoPvPS4_
KGd:__ZN5physx2Sc35ParticleElementRbElementInteraction7destroyEbj
T2l:__ZN6il2cpp2vm7Runtime6InvokeEPK10MethodInfoPvPS5_PP15Il2CppException
Kig:_Convert_ToUInt32_m3592050311
Fb:invoke_vif
Fvk:_Component_GetComponents_TisRuntimeObject_m2416546752_gshared
Gb:invoke_vid
LGm:__ZNSt3__212basic_stringIcNS_11char_traitsIcEENS_9allocatorIcEEE6insertEjPKc
Ib:invoke_vii
v0b:__ZNK12ImageFilters8DoRenderER17ShaderPassContextP13RenderTextureS3_RKNSt3__26vectorI11ImageFilterNS4_9allocatorIS6_EEEE
Rke:__ZN5physx13NpVolumeCacheD2Ev
JWa:__ZN12TLSAllocatorI14StackAllocatorE16ThreadInitializeEP13BaseAllocator
Qgj:__Z82RuntimeInvoker_Boolean_t97287965_SByte_t1669577662_RuntimeObject_SByte_t1669577662PFvvEPK10MethodInfoPvPS4_
PAa:__ZN9GfxDevice32UpdateStereoViewProjectionMatrixE21MonoOrStereoscopicEye
REe:__ZThn8_N5physx2Sc35ParticleElementRbElementInteraction12onDeactivateEj
slf:__Z41CanvasRenderer_CUSTOM_DisableRectClippingP12Il2CppObject
ywg:_MonoType_GetConstructorImpl_m441167626
Iue:__ZN5physx16PxsThreadContextC2EPNS_10PxsContextE
$Ff:_DefaultControls_CreateRawImage_m4219873755
eCk:_Collection_1_IsFixedSize_m3709118201_gshared
T_a:__ZN25SingleBlockMemoryFileDataD0Ev
QWa:__ZNSt3__26vectorI14ConstantStringNS_9allocatorIS1_EEE6assignINS_11__wrap_iterIPS1_EEEENS_9enable_ifIXaasr21__is_forward_iteratorIT_EE5valuesr16is_constructibleIS1_NS_15iterator_traitsISA_E9referenceEEE5valueEvE4typeESA_SA_
Zpd:__ZN5physx3Cct10Controller4moveERNS0_11SweptVolumeERKNS_6PxVec3EffRKNS_19PxControllerFiltersEPKNS_17PxObstacleContextEb
K1:__ZN11UnityEngine15CloudWebService16SessionContainer21ConvertFromFolderTimeERKN4core12basic_stringIcNS2_20StringStorageDefaultIcEEEEPjPt
ice:__ZN5physx14NpRigidDynamic17setAngularDampingEf
qFb:__ZNSt3__26vectorI8GUIStyle13stl_allocatorIS1_L18MemLabelIdentifier1ELi16EEE7reserveEj
qhm:__ZN6il2cpp6icalls8mscorlib6System9Threading6Thread27GetSerializedCurrentCultureEP12Il2CppThread
mLg:_Context_set_ReadSequenceNumber_m2154909392
zDg:_RijndaelTransform_SubByte_m3037693507
Dgc:__Z31CalculateHierarchyTransformType23TransformAccessReadOnly
Xic:__Z13RegisterClassI11TimeManagerEvv
VU:__ZN4FMOD8ChannelI11setPositionEjj
ukg:_NumberFormatter_FastIntegerToString_m390846811
jmi:_Input_INTERNAL_CALL_GetTouch_m3481893561
oBi:_Array_InternalArray__ICollection_Contains_TisParticleCollisionEvent_t4055032941_m655273163_gshared
kwm:_GC_set_fl_marks
tNd:__ZN5physx6shdfnd8PoolBaseINS_2Sc12SimStateDataENS0_19ReflectionAllocatorIS3_EEE17releaseEmptySlabsEv
uKf:_Image__ctor_m2551076292
SAa:__ZN9GfxDevice17SetStereoViewportE15StereoscopicEyeRK5RectTIiE
ura:__ZN17BaseObjectManager13StaticDestroyEPv
FMl:_CanvasRenderer_INTERNAL_CALL_GetColor_m597074473
uNi:_UTF7Decoder_GetChars_m3413809261
Otd:__ZN5physx2Gu22closestPtPointTriangleEPNS_6shdfnd3aos5Vec3VES4_S4_Rj
oXd:__ZN5physx2Cm8PtrTableC2Ev
lxi:_Vector3_get_forward_m3100859705
NT:__ZN4FMOD6Reverb13setPropertiesEPK22FMOD_REVERB_PROPERTIES
g2b:__ZN9DepthPass13PrepareSubsetEjRK10RenderNodeifRK17ShaderReplaceData
Sxe:__ZN5physx16PxsBroadPhaseMBP6updateEjjRKNS_23PxcBroadPhaseUpdateDataEPNS_10PxBaseTaskE
c$d:__ZN5physx9NpPhysics18createRigidDynamicERKNS_11PxTransformE
iId:__ZN5physx6shdfnd5ArrayIPvNS0_19ReflectionAllocatorINS_2Sc18TriggerInteractionEEEE15growAndPushBackERKS2_
Tua:__ZN9ShaderLab20SerializedSubProgram16TextureParameter8TransferI14SafeBinaryReadEEvRT_
ctc:__Z35SetMeshComponentFromArrayFromScriptR4Mesh30InternalScriptingShaderChannel34InternalScriptingVertexChannelTypei17ScriptingArrayPtri
Vuc:__Z18ExtractTagThrowingR11ICallString
xHi:_Array_InternalArray__ICollection_Add_TisCustomAttributeNamedArgument_t287865710_m4157175270_gshared
gxd:__ZN5physx2Gu17intersectRayAABB2ERKNS_6shdfnd3aos5Vec3VES5_S5_S5_RKNS2_6FloatVERS6_S9_
Ur:__ZN4core20StringStorageDefaultIcE6assignEPKcj
qVi:_UInt64_System_IConvertible_ToUInt64_m2135047981_AdjustorThunk
k0d:__ZNK5physx7NpShape17getSphereGeometryERNS_16PxSphereGeometryE
IEg:_BigInteger_ModPow_m3776562770
izd:__ZL18intersectAnyVsMeshILi1EEbPKN5physx2Gu6SphereEPKNS1_7CapsuleEPKNS1_3BoxERKNS1_13RTreeMidphaseERKNS0_11PxTransformERKNS0_11PxMeshScaleEP14LimitedResults
Lnm:__ZN15dense_hashtableINSt3__24pairIK10KeyWrapperIP12Il2CppObjectEN6il2cpp2gc9CachedCCWEEES5_NS7_5utils11PointerHashIS3_EEN14dense_hash_mapIS5_S9_SD_NS5_14EqualsComparerINS0_8equal_toIS4_EEEENS0_9allocatorISA_EEE9SelectKeyESI_SK_E3endEv
Lnc:__ZN15SharedLightDataC2E10MemLabelId
K9f:_ArrayList_IndexOf_m305368842
BLd:__ZN5physx6shdfnd5ArrayIPvNS0_15InlineAllocatorILj256ENS0_19ReflectionAllocatorINS_2Cm5BlockIhLj128EEEEEEEE15growAndPushBackERKS2_
hbc:__ZN6Camera6SetFarEf
pkh:_FormatterConverter_ToBoolean_m1680758923
huc:__ZNK17AnimationCurveTplI11QuaternionfE13EvaluateClampEfPNS1_5CacheE
rLa:__ZN6prcoreL12RemapGenericI17TexFormatABGR888817TexFormatARGB8888EEvPKNS_9InnerInfoE
P$a:__ZN11GameManager17MainThreadCleanupEv
NKk:_ReadOnlyCollection_1__ctor_m1345363288_gshared
Zmf:__Z50Register_UnityEngine_UISystemProfilerApi_EndSamplev
lc:invoke_vffff
eRl:_Physics2D_Raycast_m2082490717
ajd:__ZN10Collider2D12AddToManagerEv
kTc:__ZN14ParticleSystem10ResetSeedsEv
plh:_SerializationCallbacks_GetSerializationCallbacks_m2939476649
O2d:__ZNK5physx7NpCloth24getParticleAccelerationsEPNS_6PxVec4E
ldg:_Hashtable__cctor_m4112166779
p9e:_UNITY_tt_slot_init
p_b:__ZZ23InitPlayerLoopCallbacksvEN41PostLateUpdateUpdateResolutionRegistrator7ForwardEv
FSb:__Z25scripting_array_class_get17ScriptingClassPtrj
TNc:__ZL22Transfer_ManagedObjectI9JSONWriteLb1EEvRK29SerializationCommandArgumentsR31RuntimeSerializationCommandInfo
SQ:__ZNK10SampleClip22GetTypeVirtualInternalEv
$Ba:__ZN9GfxDevice20DestroyRenderSurfaceER12ObjectHandleI17RenderSurface_TagP17RenderSurfaceBaseE
qfg:_Stack__ctor_m2602729586
rhc:__ZL24PrepareSpriteRenderNodesILb1EEvR35RenderNodeQueuePrepareThreadContext
fVa:__ZN9GfxDevice22UpdateComputeResourcesEjPK9TextureIDPK16TextureDimensionPKijPKjjPK15ComputeBufferIDS7_PK20ComputeBufferCounterjSC_S2_S5_S9_SF_
Eda:__ZN12_GLOBAL__N_15qAsinEff
J2g:_Comparer_1__cctor_m3470905005_gshared
FTg:_InternalEnumerator_1_System_Collections_IEnumerator_get_Current_m2629988057_AdjustorThunk
KWa:__ZN12TLSAllocatorI14StackAllocatorE13ThreadCleanupEv
C_i:_Dictionary_2_get_Item_m2136868513_gshared
dWi:_ValueType_InternalEquals_m1384040357
Ttm:__ZThn4_N6il2cpp2vm13ComObjectBase16MarshalInterfaceEP13Il2CppIStreamRK10Il2CppGuidPvjS7_j
dhg:_Convert_ToDouble_m996590115
rVb:__Z27FindActiveTransformWithPathPKc
zPk:_ReadOnlyCollection_1_System_Collections_IList_Remove_m4169110229_gshared
RTi:_UInt16_ToString_m3020002356
Dge:__ZN5physx16PxsIslandManager14setEdgeRigidCMERKNS_20PxsIslandManagerHookIjLj4294967295EEEPNS_17PxsContactManagerE
trh:_LayoutRebuilder_LayoutComplete_m68578143
Q9a:__ZN7Texture5ResetEv
nzl:_GUIStyle_get_fixedWidth_m2576616348
ITh:_SHA1Internal_Initialize_m499810128
rMe:__ZN5physx2Gu11HeightField7releaseEv
Z7:__ZNK6Camera7GetNearEv
pRf:_GenericTypeParameterBuilder_GetConstructorImpl_m863833310
z6g:_Enumerator_get_Current_m3687673883_AdjustorThunk
mOa:__ZN7ApiGLES11UnmapBufferEjN2gl12BufferTargetE
fum:__ZN6il2cpp5utilsL24Utf32CharToSurrogatePairEjRA2_Ds
Tfb:__Z25GetNextAllowedTextureSizeib13TextureFormat
jVb:__ZN20LocalFileSystemWebGL4CopyER13FileEntryDataS1_
r4:__ZN19CloudServiceHandler6RetainEv
DLk:_ReadOnlyCollection_1_System_Collections_IList_IndexOf_m198887188_gshared
PJc:__Z36Event_CUSTOM_Internal_SetNativeEventPv
MMi:_UTF32Encoding_GetBytes_m3180303867
mfa:__ZN12BaseRenderer20FlattenToRenderQueueER15RenderNodeQueueRK20DeprecatedSourceData
sEe:__ZN5physx2Sc8ClothSim23addCollisionHeightfieldEPKNS0_8ShapeSimE
jNk:_ReadOnlyCollection_1_System_Collections_IList_Clear_m2007013334_gshared
Zxb:__Z34scripting_liveness_calculation_endPv
Fpm:__ZN6il2cpp2os6ThreadC2Ev
U4k:_List_1_set_Capacity_m725662605_gshared
z4h:_DateTimeOffset_get_UtcDateTime_m1021718282_AdjustorThunk
cF:__ZN21AnimationClipPlayable22ProcessAnimationNoClipEPK35AnimationPlayableEvaluationConstantPK32AnimationPlayableEvaluationInputP33AnimationPlayableEvaluationOutput
FHh:_HybridDictionary_get_Count_m1166314536
Lil:_TlsStream_Write_m1412844442
tPc:__Z18Transfer_BlittableI8JSONReadLb0E8Vector3fEvRK29SerializationCommandArgumentsR31RuntimeSerializationCommandInfo
MA:__ZN13AnimationClip12Vector3Curve8TransferI14SafeBinaryReadEEvRT_
Ifm:__ZN6il2cpp2vm6Thread6DetachEP12Il2CppThread
mjl:_GeneralNames_get_DNSNames_m3788548987
kcf:_Render_Single_Pass
rDd:__GLOBAL__sub_I_runtime_dynamics_2_cpp
zN:__ZN7mecanim8skeleton30SkeletonBuildReverseIndexArrayEPiPKiPKNS0_8SkeletonES6_
UHc:__Z19GetGUIBlendMaterialv
cvg:_Math_Round_m3018379666
uqm:__ZN6il2cpp2os10ThreadImpl5SleepEjb
qKk:_ReadOnlyCollection_1_System_Collections_Generic_IListU3CTU3E_set_Item_m519295790_gshared
FLk:_ReadOnlyCollection_1_System_Collections_IList_Remove_m1965826685_gshared
exe:__ZN5physx14SapPairManager12shrinkMemoryEv
gof:__ZN11UnityEngine9Analytics15UserCustomEvent3AddEPKcb
B7h:_Delegate_CreateDelegate_m1051651521
FQe:__ZN5physx6shdfnd8internal7median3IjKNS_19SortBoundsPredicateEEEvPT_iiRT0_
RCi:_PlayableHandle_IsPlayableOfType_TisRuntimeObject_m503495943_AdjustorThunk
Ts:__ZN18AnimatorController23VirtualRedirectTransferER24GenerateTypeTreeTransfer
qPm:_glBindSampler__wrapper
G$a:__ZNSt3__26vectorIN20ArchiveStorageHeader12StorageBlockE13stl_allocatorIS2_L18MemLabelIdentifier55ELi16EEE8__appendEj
Bg:_emscripten_set_mouseup_callback
Dta:__Z14resize_trimmedINSt3__26vectorIN9ShaderLab14SerializedPassENS0_9allocatorIS3_EEEEEvRT_j
Dni:_Mathf_Clamp_m3350697880
bhj:__Z165RuntimeInvoker_Void_t1185182177_UInt32U26_t3735378166_Int32_t2950945753_UInt32U26_t3735378166_Int32_t2950945753_Int32_t2950945753_Int32_t2950945753_Int32_t2950945753PFvvEPK10MethodInfoPvPS4_
GZk:_List_1_System_Collections_IList_Remove_m3140917266_gshared
tol:_CompositeExpression__ctor_m2434860303
bZg:_InternalEnumerator_1_get_Current_m2112392701_AdjustorThunk
pje:__ZN5physx7NpScene22removeBroadPhaseRegionEj
BId:__ZL34GeomOverlapCallback_CapsuleCapsuleRKN5physx10PxGeometryERKNS_11PxTransformES2_S5_PNS_2Gu12TriggerCacheE
Ydl:_U3CStartU3Ec__Iterator0_MoveNext_m1328472023
hdc:__ZNK18ScreenManagerWebGL8GetWidthEv
xie:__ZNK5physx7NpScene23getFilterShaderDataSizeEv
ZCc:__Z39Random_CUSTOM_INTERNAL_get_onUnitSphereP8Vector3f
PQ:__ZN10SampleClipD2Ev
Osl:_Predicate_1_Invoke_m2389850270_gshared
sxb:__Z13GetGISettingsv
b4:__ZN11UnityEngine15CloudWebService20WebRequestRestClientC2Ev
I4e:_cff_cmap_unicode_init
PAi:_Array_InternalArray__ICollection_Contains_TisRuntimeObject_m4067783231_gshared
FAk:_Collection_1_IsValidItem_m3080586124_gshared
Kka:__ZNSt3__26__treeI19RepeatingLogMessageNS_4lessIS1_EE13stl_allocatorIS1_L18MemLabelIdentifier73ELi16EEE4findIS1_EENS_15__tree_iteratorIS1_PNS_11__tree_nodeIS1_PvEEiEERKT_
dEf:_ClipperRegistry_Register_m2407166513
kFm:_readlink
a9l:__ZN15dense_hashtableINSt3__24pairIK10KeyWrapperINS1_IPK9EventInfoP11Il2CppClassEEEjEES9_17ReflectionMapHashIS8_EN14dense_hash_mapIS9_jSD_NS9_14EqualsComparerINS0_8equal_toIS8_EEEENS0_9allocatorISB_EEE9SelectKeyESI_SK_E12resize_deltaEjj
QVf:_MonoCMethod_Invoke_m2700167622
heg:_KeyMarker__cctor_m2590194914
wVc:__ZN14ParticleSystem38UpdateModulesPostSimulationIncrementalER24ParticleSystemUpdateDataR23ParticleSystemParticlesjRKf
qAm:__ZN6il2cpp8metadata14Il2CppTypeHash4HashEPK10Il2CppType
Y3g:_Enumerator_Reset_m627751027_AdjustorThunk
wBm:__ZN6il2cpp2os13SemaphoreImplC2Eii
jWi:_Version__ctor_m872301635
Fpb:__ZNK6Sprite9GetBoundsE8Vector2fbb
d3a:__ZNK19RenderEventsContext21CleanupCommandBuffersEv
QLl:_TextGenerator_PopulateWithErrors_m1222498386
Yt:__ZN7mecanim12statemachine13StateConstant8TransferI14SafeBinaryReadEEvRT_
fOk:_ReadOnlyCollection_1_System_Collections_Generic_ICollectionU3CTU3E_Clear_m2102011098_gshared
VFa:__ZN11ContextGLES6CreateEi
Iyd:__ZN5physx6shdfnd5ArrayINS_10PxTriangleENS0_19ReflectionAllocatorIS2_EEE15growAndPushBackERKS2_
e1k:_List_1_set_Capacity_m3382070520_gshared
z6h:_Decimal_CompareTo_m3502307243_AdjustorThunk
IRb:__Z19TransferField_ArrayI18StreamedBinaryReadILb0EE27Converter_SimpleNativeClassI17AnimationCurveTplIfEEEvRK23StaticTransferFieldInfoR31RuntimeSerializationCommandInfoRT0_
lWa:__ZN14StackAllocator16FrameMaintenanceEb
_td:__ZL11SweepBoxBoxPKN5physx3Cct9SweepTestEPKNS0_11SweptVolumeEPKNS0_11TouchedGeomERKNS_14PxExtendedVec3ERKNS_6PxVec3ERNS0_12SweptContactE
wnd:__ZZN10Collider2D15InitializeClassEvEN33FunctorImpl_99kDidRemoveComponent4CallEPviR11MessageData
tuh:_Scrollbar_get_value_m760470106
c8:__ZNK10GameObject20QueryComponentByTypeEPKN5Unity4TypeE
O5h:_Decimal_System_IConvertible_ToInt32_m1488426794_AdjustorThunk
Fvg:_MonoCustomAttrs_IsUserCattrProvider_m2878058089
lik:__ZL71InputField_t3762917431_CustomAttributesCacheGenerator_m_HideMobileInputP21CustomAttributesCache
dfb:__ZN11TextureData5ResetEv
zAc:__Z53Register_UnityEngine_GameObject_get_activeInHierarchyv
iVh:_ToBase64Transform_InternalTransformFinalBlock_m360524956
P1f:_ActivationContext_Dispose_m2038725770
taa:__ZL30InitializeCoreScriptingClassesv
yh:_glBlitFramebuffer
toe:__ZNK5physx2Sc5Scene17prefetchForRemoveERKNS0_10StaticCoreE
dHb:__Z35Transfer_Blittable_SingleValueFieldI14SafeBinaryReadhEvRT_R17GeneralMonoObjectRK23StaticTransferFieldInfo
etf:__ZN22BaseUnityConnectClientC2ERN11UnityEngine7Connect20BasePersistentValuesE
DIi:_Array_InternalArray__ICollection_CopyTo_TisInt64_t3736567304_m2845057751_gshared
ieb:__ZNK12CubemapArray22GetTypeVirtualInternalEv
cp:FUNCTION_TABLE_vif
dp:FUNCTION_TABLE_vid
fp:FUNCTION_TABLE_vii
iyb:__Z40scripting_liveness_calculation_from_root18ScriptingObjectPtrPv
d3c:__ZN13InitialModuleD2Ev
Zab:__ZN7Texture23VirtualRedirectTransferER24GenerateTypeTreeTransfer
lef:_UNITY_FT_Set_Transform
Omm:__ZN6il2cpp8metadata15GenericMetadata20RegisterGenericClassEP18Il2CppGenericClass
VOm:_glDeleteFramebuffers__wrapper
ydj:__Z220RuntimeInvoker_Boolean_t97287965_RuntimeObject_Int32U26_t1369213839_Int32_t2950945753_Int32_t2950945753_Int32_t2950945753_RuntimeObject_SByte_t1669577662_Int32_t2950945753_ContractionU26_t961830454_ContextU26_t3937453398PFvvEPK10MethodInfoPvPS4_
dBc:__Z36Register_UnityEngine_RectOffset_Initv
Q2e:_cff_blend_build_vector
ZKh:_WebHeaderCollection_ToString_m1263025316
Mmc:__ZZN12MeshRenderer15InitializeClassEvEN29FunctorImpl_134kDidDeleteMesh4CallEPviR11MessageData
YXf:_GetterAdapter_Invoke_m3767885970
h2k:_List_1__ctor_m747758800_gshared
OPk:_ReadOnlyCollection_1_System_Collections_Generic_ICollectionU3CTU3E_Add_m4137362799_gshared
t$h:_String_CreateString_m2818852475
Xhc:__Z22GenerateBoxTilingShapeP22GenerateTilingAreaInfo
ohb:__ZN28EnlightenRendererInformation8TransferI14SafeBinaryReadEEvRT_
ha:invoke_viiiiiifi
bNl:_CanvasRenderer_get_hasMoved_m2236392341
UXd:__ZN5physx12NpBatchQuery13getUserMemoryEv
spi:_MessageEvent__ctor_m1231650089
gta:__ZNK15Lz4Decompressor16DecompressMemoryEPKvPjPvS2_
H7e:_UNITY_tt_face_build_cmaps
YUi:_UInt64_System_IConvertible_ToDecimal_m806594027
Ehc:__ZN4core8hash_mapINS_12basic_stringIcNS_20StringStorageDefaultIcEEEE10vector_setI4PPtrI11SpriteAtlasENSt3__24lessIS8_EE13stl_allocatorIS8_L18MemLabelIdentifier81ELi16EEENS_4hashIS4_EENS9_8equal_toIS4_EEEixERKS4_
Jmd:__ZN11Rigidbody2D8TransferI24GenerateTypeTreeTransferEEvRT_
edb:__Z35UnityPropertySheet_MakeSortedColorsRKNSt3__23mapIN9ShaderLab16FastPropertyNameE10ColorRGBAfNS_4lessIS2_EENS_9allocatorINS_4pairIKS2_S3_EEEEEER10vector_mapIS2_S3_S5_NS6_INS7_IS2_S3_EEEEE
b7e:_UNITY_tt_face_load_os2
lCe:__ZN5physx2GuL34fullContactsGenerationSphereConvexERKNS0_8CapsuleVERKNS0_11ConvexHullVERKNS_6shdfnd3aos12PsTransformVESB_PNS0_17PersistentContactERjRNS0_13ContactBufferEbRNS0_25PersistentContactManifoldERNS8_5Vec3VERKNS8_6FloatVEb
pLd:__ZN5physx6shdfnd8PoolBaseINS_2Sc19ConstraintGroupNodeENS0_19ReflectionAllocatorIS3_EEE17releaseEmptySlabsEv
xGb:__Z29Transfer_Blittable_ArrayFieldI14SafeBinaryRead8Vector4fEvRT_R9ArrayInfoRK23StaticTransferFieldInfo
w_e:__ZNSt3__27__sort4IRNS_6__lessI24InterpolationDepthHandleS2_EEPS2_EEjT0_S6_S6_S6_T_
ONi:_UTF8Encoding_GetMaxCharCount_m3762459613
FOf:_ModuleBuilder_RegisterToken_m4166846047
g_b:__ZZ23InitPlayerLoopCallbacksvEN51PostLateUpdateUpdateCustomRenderTexturesRegistrator7ForwardEv
Cth:_RawImage_OnPopulateMesh_m1115858855
N$l:__ZN6il2cpp2vm13MetadataCache25GetStringLiteralFromIndexEi
o2f:_Hashtable_ToPrime_m33531354
AF:__ZN7mecanim9animation12EvaluateClipEPKNS0_4ClipEPKNS0_9ClipInputEPNS0_10ClipMemoryEPNS0_10ClipOutputE
XHk:_Collection_1_IsSynchronized_m1117613618_gshared
s7g:_KeyCollection_System_Collections_Generic_ICollectionU3CTKeyU3E_Remove_m2555909644_gshared
kCd:__ZN5physx3Cct9SweepTest15onObstacleAddedEjPKNS_17PxObstacleContextERKNS_6PxVec3ES7_f
Sff:__ZN20TextRenderingPrivate7GUIText18GetFontAndMaterialEv
WSi:_TypeInitializationException__ctor_m3546444694
Uvc:__ZNK9Transform16GetLocalRotationEv
B3:__ZN11UnityEngine15CloudWebService23WebRequestUploadHandler17ConsumeUploadDataEj
ltj:__Z68RuntimeInvoker_Void_t1185182177_Single_t1397266774_SByte_t1669577662PFvvEPK10MethodInfoPvPS4_
Brg:_MemoryStream_set_Position_m3169779190
$9b:__ZN13RenderManager29SetCurrentCameraAndStackStateEP6CameraP25CameraStackRenderingState
Qyf:_ExecuteEvents_get_scrollHandler_m2659345019
C1a:__ZNSt3__26__treeINS_12__value_typeIjN4core12basic_stringIcNS2_20StringStorageDefaultIcEEEEEENS_19__map_value_compareIjS7_NS_4lessIjEELb1EEE13stl_allocatorIS7_L18MemLabelIdentifier7ELi16EEE7destroyEPNS_11__tree_nodeIS7_PvEE
tfm:__ZN15dense_hashtableINSt3__24pairIK10KeyWrapperINS1_IP11Il2CppClassjEEES4_EES6_N6il2cpp8metadata14ArrayClassHashEN14dense_hash_mapIS6_S4_SB_NS6_14EqualsComparerINSA_17ArrayClassCompareEEENS0_9allocatorIS8_EEE9SelectKeyESF_SH_E12resize_deltaEjj
Ni:_JS_WebRequest_Release
i2:__ZN11UnityEngine15CloudWebService14DataErrorEventD0Ev
ijm:__ZN6il2cpp6icalls8mscorlib6System4Type20internal_from_handleEi
t6f:_Boolean_System_IConvertible_ToUInt16_m3465173538_AdjustorThunk
o2c:__ZN14EmissionModule5ResetEv
Bdh:_Context__ctor_m254302079
Lse:__ZN5physx13PxsCCDContext12postCCDSweepEPNS_10PxBaseTaskE
Kmm:__ZN6il2cpp8metadata15GenericMetadata7InflateEPK19Il2CppGenericMethodPK20Il2CppGenericContext
Fgb:__ZN19ShaderPropertySheet16SetArrayPropertyEN9ShaderLab16FastPropertyNameENS_12PropertyTypeEPKvj
bvh:_Selectable_FindSelectable_m2348614027
BHf:_DropdownItem_OnPointerEnter_m1492957598
lRe:__ZN5physx6shdfnd10Foundation19AlignCheckAllocator28deregisterAllocationListenerERNS_20PxAllocationListenerE
mJc:__ZN8GUIState8EndOnGUIEv
w9e:_UNITY_TT_Get_VMetrics
Zue:__ZN5physx33solveContactCoulombBlockWriteBackEPKNS_23PxcSolverConstraintDescEjRNS_16PxcSolverContextEPNS_25PxcThresholdStreamElementEjPi
_ag:_SimpleEnumerator__cctor_m2844299657
Rug:_LocalDataStoreSlot__ctor_m4104083971
SPk:_ReadOnlyCollection_1_System_Collections_Generic_IListU3CTU3E_RemoveAt_m3849058645_gshared
eFl:_AudioSource_ReadExtensionName_m725112169
mll:_X509CertificateEnumerator_System_Collections_IEnumerator_Reset_m2039524926
MCe:__ZN5physx9PxTaskMgr17submitUnnamedTaskERNS_6PxTaskENS_10PxTaskType4EnumE
kkj:__Z128RuntimeInvoker_Void_t1185182177_RuntimeObject_BooleanU26_t4125257963_SByte_t1669577662_Int32U26_t1369213839_Int32U26_t1369213839PFvvEPK10MethodInfoPvPS4_
MIa:__ZN7Texture21GetMasterTextureLimitEv
Qbc:__Z12CanAddScriptR10GameObject17ScriptingClassPtrPS1_S2_
acm:__ZN6il2cpp2vm10Reflection12HasAttributeEP12Il2CppObjectP11Il2CppClass
PSk:_Comparison_1_BeginInvoke_m3263247262_gshared
yla:__ZN9ShaderLabL25StaticInitializeShaderLabEPv
Eqe:__ZNK5physx2Sq12BucketPruner5sweepERKNS0_9ShapeDataERKNS_6PxVec3ERfRNS0_14PrunerCallbackE
U:Math_max
blk:__ZL64HorizontalLayoutGroup_t2586782146_CustomAttributesCacheGeneratorP21CustomAttributesCache
Ccm:_il2cpp_class_get_methods
iQl:_SpringJoint_set_spring_m3317999832
wvi:_HitInfo_SendMessage_m1343099429_AdjustorThunk
jJb:__Z18Transfer_BlittableI24GenerateTypeTreeTransferLb0EN4math12int2_storageEEvRK29SerializationCommandArgumentsR31RuntimeSerializationCommandInfo
jBl:_AesManaged_GenerateKey_m2004209814
f8h:_StackTrace_get_trace_m1194606084
WYh:_Single_CompareTo_m2785801815_AdjustorThunk
Npm:__ZN6il2cpp2os6Thread16GetCurrentThreadEv
Sqk:_Array_InternalArray__Insert_TisUILineInfo_t4195266810_m3191124053_gshared
Voc:__ZN10GameObject13ComponentPair15SetComponentPtrEPN5Unity9ComponentE
jNm:_glBlitFramebuffer__wrapper
qZe:__ZN5physx6shdfnd8internal8HashBaseINS0_4PairIKPKNS0_14NamedAllocatorEPKcEES6_NS0_4HashIS6_EENS1_11HashMapBaseIS6_S9_SC_NS0_20NonTrackingAllocatorEE6GetKeyESE_Lb1EE15reserveInternalEj
Jic:__Z13RegisterClassI10MeshFilterEvv
cxi:_Transform_INTERNAL_set_position_m3627767375
I1a:__ZN10TagManager8TransferI19StreamedBinaryWriteILb0EEEEvRT_
Dxb:__ZN11PreloadData23VirtualRedirectTransferER18StreamedBinaryReadILb0EE
Rqi:_PropertyNameUtils_PropertyNameFromString_Injected_m1259736140
e8f:_Char_System_IConvertible_ToDateTime_m3564102661
Beg:_SyncHashtable_Clone_m3726939774
hjb:__ZN6Sprite17MainThreadCleanupEv
vNm:_glBlendFuncSeparate__wrapper
AW:__ZN10AudioMixer14UpdateMuteSoloEv
w_d:__ZN5physx6shdfnd5ArrayINS_3Scb13MaterialEventENS0_19ReflectionAllocatorIS3_EEE15growAndPushBackERKS3_
V0a:__ZN9Transform35SetLocalPositionWithoutNotificationERKN4math7_float3Ey
Tjj:__Z69RuntimeInvoker_UInt64_t4134040092_Int32_t2950945753_SByte_t1669577662PFvvEPK10MethodInfoPvPS4_
Oj:_JS_Eval_ClearTimeout
TSm:_glDepthFunc__wrapper
cuh:_Raycast2DCallback_Invoke_m1500574149
wNa:__ZN7ApiGLES16SetPatchVerticesEi
xql:_CharacterClass_Compile_m3296067317
eNd:__ZN5physx2Sc5Scene11onBodySleepEPNS0_7BodySimE
Erm:__ZN6il2cpp2gc16GarbageCollector16InvokeFinalizersEv
n7f:_Byte_System_IConvertible_ToInt64_m285584218_AdjustorThunk
Isi:_Rect_get_size_m477575021_AdjustorThunk
lUl:__ZN6il2cpp2vm5Class20FromGenericParameterEPK22Il2CppGenericParameter
FFi:_Array_IndexOf_TisVector3_t3722313464_m4284163268_gshared
Iqd:__ZL28GeomMTDCallback_PlaneCapsuleRN5physx6PxVec3ERfRKNS_10PxGeometryERKNS_11PxTransformES5_S8_
Mqa:__ZN15GlobalCallbacksC2Ev
ced:__ZN7b2World10CreateBodyEPK9b2BodyDef
_2g:_Comparer_1_System_Collections_IComparer_Compare_m2016223770_gshared
FKi:_Encoding_GetBytes_m3823106599
ijj:__Z74RuntimeInvoker_DateTime_t3738529785_DateTime_t3738529785_Int32_t2950945753PFvvEPK10MethodInfoPvPS4_
Aff:_UNITY_FT_New_Memory_Face
LDk:_Collection_1_System_Collections_IList_IndexOf_m3271188411_gshared
Edf:__ZN20TextRenderingPrivate21TextMeshGeneratorImpl5FlushEv
nrg:_MonoIO_GetFileStat_m678141354
fGf:__Z15CastclassSealedP12Il2CppObjectP11Il2CppClass
T_d:__ZN5physx9NpPhysics16createConvexMeshERNS_13PxInputStreamE
o6h:_Decimal_IsZero_m4250358244_AdjustorThunk
Dug:_UnmanagedMemoryStream_get_CanRead_m3770815400
Iac:__ZN16ReflectionProbes40UpdateRealtimeReflectionProbesTimeslicedEv
e6h:_Decimal_u64_m3374804932
rMd:__ZN5physx2Sq17SceneQueryManager8addShapeERKNS_7NpShapeERKNS_12PxRigidActorEbPNS_9PxBounds3E
nTi:_UInt16_System_IConvertible_ToInt32_m1950778303_AdjustorThunk
Sub:__ZNK30RuntimeInitializeOnLoadManager22GetTypeVirtualInternalEv
YYl:__ZN15dense_hashtableINSt3__24pairIK10KeyWrapperIN6il2cpp5utils13dynamic_arrayIPK10Il2CppTypeLj4EEEEPFvvEEESA_NS3_8metadata19Il2CppSignatureHashEN14dense_hash_mapISA_SD_SG_NSA_14EqualsComparerINSF_22Il2CppSignatureCompareEEENS0_9allocatorISE_EEE9SelectKeyESK_SM_E12resize_deltaEjj
Tlc:__ZN16ReflectionProbes15InitializeClassEv
evk:_Dictionary_2_Do_ICollectionCopyTo_TisKeyValuePair_2_t3699644050_m4159638770_gshared
Lkm:__ZN6il2cpp2vm5Image9GetCorlibEv
rzi:_Vector3_get_left_m2428419009
DK:__ZN8Animator13BatchedFKPassERK13dynamic_arrayIP14PlayableOutputLj4EE
Gue:__ZNK5physx2Gu29EPASupportMapPairRelativeImplINS0_8CapsuleVES2_E9doSupportERKNS_6shdfnd3aos5Vec3VERS6_S9_S9_
Dyf:_ExecuteEvents_Execute_m113814934
hna:__ZN13RuntimeStaticINSt3__23mapIN4core12basic_stringIcNS2_20StringStorageDefaultIcEEEES6_NS0_4lessIS6_EE13stl_allocatorINS0_4pairIKS6_S6_EEL18MemLabelIdentifier13ELi16EEEELb0EE13StaticDestroyEPv
fsm:__ZN14dense_hash_mapI10KeyWrapperIPK19Il2CppGenericMethodEP10MethodInfoN6il2cpp8metadata23Il2CppGenericMethodHashENS4_14EqualsComparerINS8_26Il2CppGenericMethodCompareEEENSt3__29allocatorINSD_4pairIKS4_S6_EEEEE13set_empty_keyERSG_
ssk:_Array_qsort_TisColor32_t2600501292_m1362211604_gshared
wQe:__ZN5physx10SubSortSAH5sort4EPjjRNS_6shdfnd5ArrayINS_11RTreeNodeNQENS2_19ReflectionAllocatorIS4_EEEERjjPS4_
f3g:_Enumerator_System_Collections_IEnumerator_get_Current_m2979767597_AdjustorThunk
WCg:_MD5CryptoServiceProvider_ProcessFinalBlock_m2241588515
lwh:_ScrollRect_GetBounds_m449872505
Nk:_glIsVertexArray
_0f:_SmallXmlParser_Read_m3485223434
Cyl:_GUILayoutUtility_LayoutFreeGroup_m2955697397
_jg:_Int16_Parse_m2276856944
ia:invoke_fff
$Em:_mbsinit
uCi:_Array_InternalArray__ICollection_Remove_TisContactPoint2D_t3390240644_m284878234_gshared
RLm:b14
zYe:__ZN5physx2Sc7PhysicsC2ERKNS_17PxTolerancesScaleERKNS_14PxvOffsetTableE
s_e:__ZNSt3__26__sortIRNS_6__lessI24InterpolationDepthHandleS2_EEPS2_EEvT0_S6_T_
qhf:__ZN2UI6Canvas17MainThreadCleanupEv
Sqb:__ZNSt3__26vectorI14SubstanceInputNS_9allocatorIS1_EEE6assignINS_11__wrap_iterIPS1_EEEENS_9enable_ifIXaasr21__is_forward_iteratorIT_EE5valuesr16is_constructibleIS1_NS_15iterator_traitsISA_E9referenceEEE5valueEvE4typeESA_SA_
$Ka:__ZN6prcoreL12RemapGenericI17TexFormatARGB155517TexFormatRGBA8888EEvPKNS_9InnerInfoE
iWl:__ZN13Il2CppHashMapIPK19Il2CppGenericMethodPK26Il2CppGenericMethodIndicesN6il2cpp8metadata23Il2CppGenericMethodHashENS7_26Il2CppGenericMethodCompareENSt3__29allocatorINSA_4pairIK10KeyWrapperIS2_ES5_EEEEEC2EjRKS8_RKS9_
jUf:_TypeBuilder_HasElementTypeImpl_m1871001960
$Xh:_SecurityFrame__ctor_m2140076703_AdjustorThunk
K1i:_DefaultComparer_Equals_m2458578172_gshared
_Oa:__ZN7ApiGLES13CreateProgramEv
e4g:_Enumerator_VerifyState_m4003066746_gshared
$Ia:__ZN4crnd12crn_unpackerD2Ev
$k:_emscripten_glTexImage2D
Q1g:_Comparer_1_System_Collections_IComparer_Compare_m2537217645_gshared
haa:__ZN18ScriptingArguments9AddStringEPKc
txm:_setup_header
d9f:_Char_ToString_m3588025615
Fue:__ZNK5physx2Gu29EPASupportMapPairRelativeImplINS0_8CapsuleVES2_E18doWarmStartSupportEiiRNS_6shdfnd3aos5Vec3VES7_S7_
qEh:_CryptoConvert_ToCapiKeyBlob_m3371450375
hKa:__ZL23stbir__resize_arbitraryPvPKviiiS_iiiffffPfiij14stbir_datatype12stbir_filterS4_10stbir_edgeS5_16stbir_colorspace
gTc:__ZN23ParticleSystemParticles13array_reserveEj
DJb:__Z18Transfer_BlittableI24GenerateTypeTreeTransferLb1E8Vector4fEvRK29SerializationCommandArgumentsR31RuntimeSerializationCommandInfo
VLm:b18
wTc:__ZNK24OptimizedPolynomialCurve26FindMinMaxDoubleIntegratedEv
kl:_pthread_detach
c0l:__ZN6il2cpp2vm19SocketPollingThread7RunLoopEv
hIf:_FontUpdateTracker_UntrackText_m1981515690
umk:__ZL64AnalyticsEventTracker_t2285229262_CustomAttributesCacheGeneratorP21CustomAttributesCache
Ope:__ZN5physx11EdgeManager6resizeEj
Fpc:__ZN15DirectorManager20ScheduleGraphDestroyERK14HPlayableGraph
vSb:__ZNSt3__213__stable_sortIRN10vector_mapI17ScriptingClassPtrPKN5Unity4TypeENS_4lessIS2_EENS_9allocatorINS_4pairIS2_S6_EEEEE13value_compareENS_11__wrap_iterIPSB_EEEEvT0_SJ_T_NS_15iterator_traitsISJ_E15difference_typeEPNSM_10value_typeEi
$Ah:_SimpleCollator_FillSurrogateSortKeyRaw_m725998232
s5k:_List_1_AddEnumerable_m1284696147_gshared
kKh:_IPAddress_Equals_m1823478787
seh:_Context_CreateNewContext_m3053563976
Hwa:__ZN9ShaderLab25SerializedTextureProperty8TransferI24GenerateTypeTreeTransferEEvRT_
U9l:__ZN6il2cpp2gc19AppendOnlyGCHashMapINSt3__24pairIPK14Il2CppAssemblyP11Il2CppClassEEP24Il2CppReflectionAssembly17ReflectionMapHashIS9_ENS2_8equal_toIS9_EEEC2Ev
oMb:__Z18Transfer_BlittableI19StreamedBinaryWriteILb0EELb0EdEvRK29SerializationCommandArgumentsR31RuntimeSerializationCommandInfo
Hce:__ZN5physx2Sc5Scene12removeStaticERNS0_10StaticCoreERNS_6shdfnd11InlineArrayIPKNS0_9ShapeCoreELj64ENS4_19ReflectionAllocatorIS8_EEEEb
Kwa:__ZN11NamedObject8TransferI18StreamedBinaryReadILb0EEEEvRT_
Yji:_InvokableCall_remove_Delegate_m1376110510
Edg:_Hashtable_Clear_m3112193608
wNi:_UTF8Encoding_InternalGetByteCount_m771565606
rQc:__Z18Transfer_BlittableI8JSONReadLb1EyEvRK29SerializationCommandArgumentsR31RuntimeSerializationCommandInfo
z$k:_List_1_System_Collections_IList_Remove_m3654336679_gshared
M$j:__ZL51GUILayer_t2783472903_CustomAttributesCacheGeneratorP21CustomAttributesCache
Hl:_emscripten_glMatrixMode
Psh:_MaskableGraphic_UnityEngine_UI_IClippable_get_gameObject_m1739855597
mD:__ZN8Animator23VirtualRedirectTransferER18StreamedBinaryReadILb0EE
nei:_Guid__ctor_m3562600567_AdjustorThunk
G4:__ZN19CloudServiceHandler19StopEventDispatcherEv
mMe:__ZN5physx13GuMeshFactory17createHeightFieldERNS_13PxInputStreamE
Qfe:__ZN5physx2Sc10NPhaseCore25createShapeInstancePairLLERNS0_8ShapeSimES3_NS_7PxFlagsINS_10PxPairFlag4EnumEtEE
C1h:_DateTime_System_IConvertible_ToInt16_m3239820399
E1:__ZN11UnityEngine15CloudWebService14DataDispatcher16PrepareDataBlockERNS0_16SessionContainerE
HTa:__ZN18GfxFramebufferGLES5ClearE13GfxClearFlagsRK10ColorRGBAffib
Vge:__ZThn8_N5physx2Sc19ShapeInstancePairLL12onDeactivateEj
lrc:__Z21CalculateClosestPointRK8Vector3fRK4AABBRS_Rf
Dlh:_ObjectManager_DoFixups_m3038765937
QVi:_UIntPtr_ToString_m984583492_AdjustorThunk
ZQb:__ZL26Transfer_SimpleNativeClassI18StreamedBinaryReadILb0EE10RectOffsetLb0EEvRK29SerializationCommandArgumentsR31RuntimeSerializationCommandInfo
sWg:_InternalEnumerator_1_get_Current_m2316281569_gshared
R1b:__ZL12DepthPassJobPN21GfxDeviceAsyncCommand10ArgScratchEPKNS_3ArgE
Vua:__ZNSt3__26vectorIN9ShaderLab20SerializedSubProgram16TextureParameterENS_9allocatorIS3_EEE6assignINS_11__wrap_iterIPS3_EEEENS_9enable_ifIXaasr21__is_forward_iteratorIT_EE5valuesr16is_constructibleIS3_NS_15iterator_traitsISC_E9referenceEEE5valueEvE4typeESC_SC_
MLc:__ZN5Unity9rapidjson6WriterI16TempBufferWriterNS0_4UTF8IcEES4_13JSONAllocatorE11WriteDoubleEd
GRe:__ZN9Rigidbody16ApplyConstraintsEv
cPi:_Thread_SetCachedCurrentUICulture_m1729523031
olf:__Z55Register_UnityEngine_CanvasGroup_get_ignoreParentGroupsv
ijc:__Z13RegisterClassI19LowerResBlitTextureEvv
NJg:_ClientContext_set_ClientHelloProtocol_m4189379912
A_c:__ZN11MinMaxCurve5ResetE23ParticleSystemCurveModef
Qn:FUNCTION_TABLE_iiiiiiiiiiii
fTc:__ZNK14ParticleSystem27CalculateMaxActiveParticlesEv
W4k:_List_1_get_Item_m1686506901_gshared
x8d:__ZN5physx2Sc17ParticleSystemSim8setFlagsEj
Y3a:__ZN16GraphicsSettingsD0Ev
n:cttz_i8
E2e:_UNITY_FT_GlyphLoader_Add
oPe:__ZN5physx2Gu15EdgeListBuilder18CreateEdgesToFacesEjPKjPKt
tyd:__ZN5physx11PxMeshQuery5sweepERKNS_6PxVec3EfRKNS_10PxGeometryERKNS_11PxTransformEjPKNS_10PxTriangleERNS_10PxSweepHitENS_7PxFlagsINS_9PxHitFlag4EnumEtEEPKjfb
O3k:_List_1_Remove_m2502026699_gshared
AFl:_AudioListener_INTERNAL_CALL_ReadExtensionPropertyName_m330480156
Wqb:__ZN14SubstanceInput22CopyFromSubstanceInputERKS_
uig:_Convert_ToUInt16_m867476252
Em:_emscripten_glViewport
Khc:__Z21GenerateTilingAreaJobP22GenerateTilingAreaInfoj
Gtm:__ZN6il2cpp6icalls8mscorlib6System15MonoCustomAttrs17IsDefinedInternalEP12Il2CppObjectP20Il2CppReflectionType
kse:__ZN5physx6shdfnd5ArrayIPhNS0_19ReflectionAllocatorIS2_EEE8recreateEj
AG:__ZN7mecanim9animation16CopyMotionOutputEPKNS0_18AnimationNodeStateEPS1_bbRKNS_6bitsetILj83EEE
EGc:__Z40Register_UnityEngine_Light_set_intensityv
a4e:_cff_parse_font_bbox
TTe:__ZThn28_N14PhysicsManagerD0Ev
Hzd:__Z14raycast_sphereRKN5physx10PxGeometryERKNS_11PxTransformERKNS_6PxVec3ES8_fNS_7PxFlagsINS_9PxHitFlag4EnumEtEEjPNS_12PxRaycastHitEbPFbRSD_PvESG_
htb:__ZN14PlayerSettings23VirtualRedirectTransferER18StreamedBinaryReadILb0EE
x8h:_Double_System_IConvertible_ToDateTime_m2414543049_AdjustorThunk
K7d:__ZN5physx2Sc18ParticleSystemCore15exportExtraDataERNS_22PxSerializationContextE
W8h:_Double_CompareTo_m3151899116
ACm:__ZN6il2cpp2os5Event5ResetEv
H8c:__ZL40InitializeParticleSystemScriptingClassesv
u7e:_tt_name_ascii_from_other
bEl:_ToggleGroup__ctor_m3308114662
vmm:__ZN6il2cpp8metadata15GenericMetadata17InflateParametersEPK13ParameterInfohPK20Il2CppGenericContextb
V1a:__ZN6Camera13AwakeFromLoadE17AwakeFromLoadMode
_tk:_Array_Sort_TisUILineInfo_t4195266810_m3737783007_gshared
kqi:_PlayableAsset_Internal_CreatePlayable_m2550417712
uG:__ZNK17AnimationPlayable27GetNextCompatibleDescendantEi
Uil:_TlsStream_Write_m188217214
Omj:__Z50RuntimeInvoker_Ray_t3785851493_Vector3_t3722313464PFvvEPK10MethodInfoPvPS4_
YVb:__Z25SetNeedToPerformRenderingb
K0c:__ZN12LightsModule8TransferI17RemapPPtrTransferEEvRT_
dVi:_UInt64_System_IConvertible_ToInt32_m949522652_AdjustorThunk
g0a:__ZN10GameObjectD2Ev
e2b:__ZN14qsort_internal30FindAndMovePivotToLastPositionIP15RODataDepthPassi17ROSorterDepthPassEEvT_S4_T0_T1_
A4c:__ZN29InitialModulePropertyBindings13GetFloatValueERK14ParticleSystemi
Ite:__ZN5physxL27PxcSweepAnyShapeHeightfieldERKNS_11PxsCCDShapeES2_PKNS_12PxsRigidBodyES5_RKNS_11PxTransformES8_fRNS_6PxVec3ESA_RNS_10PxcNpCacheERNS_18PxcNpThreadContextE
R9b:__ZN12CullingGroup10SendEventsEPK17CullingGroupEventj
dAf:_PointerInputModule__ctor_m3728889932
o7:__ZThn32_NK8Renderer8GetLayerEv
uGi:_Array_InternalArray__IndexOf_TisUInt64_t4134040092_m1206929132_gshared
Ooe:__ZN5physx3Scb5SceneD2Ev
sWk:_Enumerator_System_Collections_IEnumerator_Reset_m2915500989_gshared
f4e:_cff_parse_vsindex
kkg:_Int32_ValidDigit_m1059003769
RRm:_emscripten_glTexParameterfv__wrapper
iyi:_UnitySynchronizationContext_Exec_m3359802660
Dqh:_LayoutGroup_get_rectTransform_m442863741
MDb:__Z18Transfer_BlittableI14SafeBinaryReadLb1E9BoundsIntEvRK29SerializationCommandArgumentsR31RuntimeSerializationCommandInfo
tdm:_il2cpp_method_get_param_count
qvc:__ZN10systeminfo19ISOToSystemLanguageERN4core12basic_stringIcNS0_20StringStorageDefaultIcEEEE
M8l:__ZNK15dense_hashtableINSt3__24pairIK10KeyWrapperINS1_IPK12PropertyInfoP11Il2CppClassEEEjEES9_17ReflectionMapHashIS8_EN14dense_hash_mapIS9_jSD_NS9_14EqualsComparerINS0_8equal_toIS8_EEEENS0_9allocatorISB_EEE9SelectKeyESI_SK_E3endEv
Lmd:__ZN11Rigidbody2D8TransferI19StreamedBinaryWriteILb0EEEEvRT_
QRe:__Z16GetDynamicsScenev
xbf:_ps_dimension_done
ehf:__Z46Register_UnityEngine_TextGenerator_Dispose_cppv
$8h:_Double_Parse_m4153729520
pwl:_IndexedSet_1_AddUnique_m861843892_gshared
Uqb:__ZN14SubstanceInputD2Ev
Vgb:__ZN16LightmapSettings8TransferI14SafeBinaryReadEEvRT_
gAa:__ZN17BufferManagerGLES13ReleaseBufferEP14DataBufferGLES
MIg:_CipherSuite_Write_m1172814058
xJd:__ZN5physx6shdfnd5ArrayIPvNS0_19ReflectionAllocatorINS_16NpConnectorArrayEEEE15growAndPushBackERKS2_
Otg:_SynchronizedWriter_Write_m301917713
qka:__ZN9profiling6MarkerC2EPKc13ProfilerGroupNS0_5FlagsE
Yee:__ZN5physx2Sc5Scene15prepareSimulateEv
oQc:__Z18Transfer_BlittableI8JSONReadLb1EjEvRK29SerializationCommandArgumentsR31RuntimeSerializationCommandInfo
bLd:__ZN5physx6shdfnd5ArrayIPNS_2Sc11InteractionENS0_19ReflectionAllocatorIS4_EEE8recreateEj
JOf:_ConstructorBuilder_get_IsCompilerContext_m3364441562
Yii:_Debug_LogWarning_m3752629331
zTl:_MainModule_get_startSizeMultiplier_m1188945012_AdjustorThunk
cSk:_ReadOnlyCollection_1_System_Collections_Generic_IListU3CTU3E_RemoveAt_m4037795630_gshared
thj:__Z117RuntimeInvoker_Void_t1185182177_RuntimeObject_Int32_t2950945753_Int32_t2950945753_Int32_t2950945753_Int32_t2950945753PFvvEPK10MethodInfoPvPS4_
ZCf:_U3COnFinishSubmitU3Ec__Iterator0_Reset_m3632769946
Oq:stackSave
_3:__ZN5Unity9rapidjson15GenericDocumentINS0_4UTF8IcEE13JSONAllocatorNS0_12CrtAllocatorEE6StringEPKcjb
aFf:_ColorTween_get_targetColor_m1724075482_AdjustorThunk
Sbf:_ps_dimension_end
$Gc:__Z41Register_UnityEngine_Mesh_Internal_Createv
cpb:__ZN14SpriteRenderer23VirtualRedirectTransferER24GenerateTypeTreeTransfer
tmm:__ZNK15dense_hashtableI10KeyWrapperIP18Il2CppGenericClassES3_N6il2cpp8metadata22Il2CppGenericClassHashEN14dense_hash_setIS3_S6_NS3_14EqualsComparerINS5_25Il2CppGenericClassCompareEEENSt3__29allocatorIS3_EEE8IdentityESA_SD_E12test_deletedERK30dense_hashtable_const_iteratorIS3_S3_S6_SF_SA_SD_E
Ihd:__ZNSt3__27__sort3IRN18Overlap2DQueryBase29ColliderHitsByDepthComparitorEPP10Collider2DEEjT0_S7_S7_T_
oVl:__ZN6il2cpp2vm5Class14GetNestedTypesEP11Il2CppClassPPv
I0e:__Z63Register_UnityEngine_Physics_INTERNAL_CALL_Internal_RaycastTestv
Nfg:_Console_Open_m3077673205
tll:_X509StoreManager_get_CurrentUser_m4040993045
obc:__ZN6Camera9SetAspectEf
WFi:_Array_InternalArray__IndexOf_TisDateTime_t3738529785_m2463359116_gshared
Fa:invoke_viiffiii
Z0c:__ZN8UVModule8TransferI18StreamedBinaryReadILb0EEEEvRT_
rTm:_emscripten_glBindVertexArray__wrapper
lpm:__ZN6il2cpp6icalls8mscorlib6System4Enum19get_underlying_typeEP20Il2CppReflectionType
frl:_Parser_IsECMAScript_m674158805
b1a:__ZN9Transform37InitializeTransformHierarchyRecursiveER18TransformHierarchyRii
vTa:__ZN26SinglePassStereoSupportExt23SetupStereoMatrixParamsE21MonoOrStereoscopicEye24BuiltinShaderMatrixParamRK10Matrix4x4f
b9c:__ZN14ParticleSystem22UpdateAllTransformDataEv
WEm:_fscanf
Ouf:__ZNK25UnityWebRequestJavaScript16GetUploadedBytesEv
v$:__Z46AudioListener_CUSTOM_GetNumExtensionPropertiesP12Il2CppObject
QUe:__ZN14SphereCollider23VirtualRedirectTransferER24GenerateTypeTreeTransfer
h4c:__ZN27ColorModulePropertyBindings13AddPropertiesER10vector_mapIi22ParticleModulePropertyNSt3__24lessIiEENS2_9allocatorINS2_4pairIiS1_EEEEE
wOg:_SslClientStream_Finalize_m1251363641
hGi:_Array_InternalArray__IndexOf_TisMonoResource_t4103430009_m1351751258_gshared
Stb:__ZN10VRSettings8TransferI19StreamedBinaryWriteILb0EEEEvRT_
bee:__ZN5physx2Sc9StaticSim21postActor2WorldChangeEv
Uai:_FieldAccessException__ctor_m3583219052
_5c:__ZL16ParticleGeomInitILb0EEvRK31ParticleSystemParticlesTempDatajRN4math8floatNx3ERK23ParticleSystemParticlesS5_S5_RKNS3_7_float4EPKfSB_SD_SB_RKNS3_5_int4EbSB_
GFc:__Z57Register_UnityEngine_Transform_INTERNAL_set_localPositionv
kEa:__ZN13GfxDeviceGLES26SetRandomWriteTargetBufferEi15ComputeBufferID
UBc:__Z38Register_UnityEngine_Input_GetButtonUpv
btk:_Array_Resize_TisUICharInfo_t75501106_m3903846016_gshared
WZb:__ZZ23InitPlayerLoopCallbacksvEN49EarlyUpdateResetFrameStatsAfterPresentRegistrator7ForwardEv
cWd:__ZN5physx6shdfnd4sortIPvNS0_4LessIS2_EENS0_19ReflectionAllocatorINS_2Cm5BlockIhLj256EEEEEEEvPT_jRKT0_RKT1_j
tFm:_poll
nOk:_ReadOnlyCollection_1_System_Collections_IEnumerable_GetEnumerator_m1671097018_gshared
DVi:_UInt64_ToString_m1529093114_AdjustorThunk
_jk:__ZL85Selectable_t3250028441_CustomAttributesCacheGenerator_Selectable_IsPressed_m907486548P21CustomAttributesCache
__f:_TypeLibImportClassAttribute__ctor_m2302178978
JBh:_Escape_t3294788190_marshal_pinvoke
Zoh:_InputField_OnUpdateSelected_m1118869681
bNe:__ZN5physx20InternalTriangleMesh7releaseEv
nse:__ZN5physx6shdfnd5ArrayINS_16PxsCCDBlockArrayINS_13PxsCCDOverlapELi128EE9BlockInfoENS0_19ReflectionAllocatorIS5_EEE15growAndPushBackERKS5_
qMd:__ZNK5physx7NpShape8getFlagsEv
jJa:__ZN4crnd12crn_unpacker11unpack_dxt1EPPhjjj
Wuc:__ZNK11ICallString6ToUTF8Ev
rUl:__ZN15dense_hashtableINSt3__24pairIK10KeyWrapperIPK22Il2CppGenericParameterEP11Il2CppClassEES6_N6il2cpp5utils11PointerHashIS4_EEN14dense_hash_mapIS6_S9_SE_NS6_14EqualsComparerINS0_8equal_toIS5_EEEENS0_9allocatorISA_EEE9SelectKeyESJ_SL_E15insert_noresizeERKSA_
k9g:_Transform_1_Invoke_m2468053724_gshared
f2b:__ZNSt3__211__sift_downIR17ROSorterDepthPassP15RODataDepthPassEEvT0_S5_T_NS_15iterator_traitsIS5_E15difference_typeES5_
Q3d:__ZNK5physx7NpCloth16getContactOffsetEv
I2f:_ArgumentException__ctor_m3200406061
XK:__ZN8Animator17ApplyOnAnimatorIKEiRNS_11AnimatorJobE
_ca:__ZN12FileAccessor4ReadEyyPvPy
O6k:_List_1_set_Capacity_m2777925136_gshared
_uc:__Z21GetSceneHierarchyPathPK6Object
$ad:__ZN11UnityEngine9Analytics18RenderingInfoEvent13SetFrameStatsERK13dynamic_arrayIjLj4EEjjj
Rac:__ZN13RenderTexture9SetHeightEi
LE:__ZN7mecanim9animation17ClearMotionOutputEPNS0_18AnimationNodeStateE
yJg:_CipherSuiteCollection_get_IsFixedSize_m3127823890
n0g:_InternalEnumerator_1_System_Collections_IEnumerator_get_Current_m3537550566_gshared
suh:_Scrollbar_UpdateVisuals_m2492252165
jkl:_PKCS12_get_Keys_m2165478388
Dhm:__ZN6il2cpp6icalls8mscorlib6System2IO6MonoIO17GetFileAttributesEP12Il2CppStringPi
lCg:_HMACMD5__ctor_m3008609295
q3h:_DateTime__ParseAmPm_m3478436123
W3h:_DateTime_ToString_m2992030064_AdjustorThunk
n8e:_tt_cmap8_char_index
Bli:_Gizmos_INTERNAL_CALL_DrawLine_m3022186612
Iaa:__Z24scripting_class_get_name17ScriptingClassPtr
xsg:_Stream_WriteByte_m1519852120
AEl:_VerticalLayoutGroup_CalculateLayoutInputHorizontal_m1404590745
Rna:__ZN13RuntimeStaticI15GUIEventManagerLb0EE13StaticDestroyEPv
rwg:_ShortComparer_Compare_m1881262465
DFb:__Z29Transfer_Blittable_ArrayFieldI14SafeBinaryReadjEvRT_R9ArrayInfoRK23StaticTransferFieldInfo
Nld:__ZN16CircleCollider2D13PrepareShapesER13dynamic_arrayIP7b2ShapeLj4EERK10Matrix4x4f
_e:_emscripten_set_keydown_callback
aKi:_EncoderReplacementFallback__ctor_m1483565116
YQh:_Interpreter_IsWordChar_m2858055765
t_c:__ZN18ColorBySpeedModule8TransferI14SafeBinaryReadEEvRT_
gda:__ZN12FileAccessorC2Ev
VQd:__ZN5physx2Sc15ArticulationSim12applyImpulseERNS0_8BodyCoreERKNS_9PxcFsDataERKNS_6PxVec3ES9_
zZh:_String_System_IConvertible_ToDouble_m3740733360
fXc:__Z15UpdateRandomTplIL27ParticleSystemCurveEvalMode0EEvRK11MinMaxCurveS3_S3_R5RandNR23ParticleSystemParticlesjjRKN4math8float3x3ERKNS8_7_float4E
PI:__ZThn152_NK26AnimatorControllerPlayable25GetStateMachineBehavioursEv
MSe:__ZN5Unity5Joint18SetConnectedAnchorERK8Vector3f
kwl:_EventFunction_1_Invoke_m2429482587_gshared
r2a:__ZN6Camera8TransferI19StreamedBinaryWriteILb0EEEEvRT_
$md:__ZN23ColliderTilingExtensionC2Ev
e9:__ZN14StackAllocator10ReallocateEPvji
O2l:__ZN6il2cpp2vm7Runtime12GetConfigDirEv
P3c:__ZN16CustomDataModuleD2Ev
KVk:_Enumerator_MoveNext_m1177880931_AdjustorThunk
oQd:__ZNK5physx14NpArticulation26getInternalDriveIterationsEv
Uxh:_Slider_UpdateVisuals_m3662961057
OLl:_TextGenerator_Populate_m194003733
MPf:_DerivedType_get_FullName_m1025358827
rAg:_CryptoConfig_MapNameToOID_m2044758263
l_c:__ZN14VelocityModule8TransferI14SafeBinaryReadEEvRT_
pik:__ZL70InputField_t3762917431_CustomAttributesCacheGenerator_m_OnValueChangedP21CustomAttributesCache
mUb:__Z39WriteQueueForTransferSignatureIntoCacheRK31TransferFunctionScriptingTraitsRK24TransferRequestSignature17ScriptingClassPtrR23CachedSerializationDataRb
pLi:_Encoding_get_UTF8UnmarkedUnsafe_m320312322
lPi:_Thread_Thread_free_internal_m333849022
Qu:__ZN18AnimatorController19TransferRuntimeDataI18StreamedBinaryReadILb0EEEEvRT_
rml:_CostDelegate_BeginInvoke_m2828452701
apf:__ZN22BaseUnityConnectClient30OnEnteringStatePausedOrStoppedEv
xkd:__ZN10ClipperLib7Clipper18SwapPositionsInAELEPNS_5TEdgeES2_
xGk:_Collection_1_ConvertItem_m1556170494_gshared
ZE:__ZN7mecanim5human12HumanPoseAddERNS0_9HumanPoseERKS1_S4_
Q1h:_DateTime_ToUniversalTime_m1945318289
Jdl:_AfterburnerPhysicsForce_OnEnable_m3667628658
Z9f:_ArrayList_ToArray_m3827492363
P6c:__Z20UpdateWholeSheet2TplIL27ParticleSystemCurveEvalMode2ELS0_2EEvfRK11MinMaxCurveS3_RK23ParticleSystemParticlesPf
kyh:_Slider_get_stepSize_m1423227661
yVi:_UInt64_Parse_m819899889
OUh:_SymmetricAlgorithm_set_IV_m3196220308
cSf:_GenericTypeParameterBuilder_GetHashCode_m852224381
Gig:_Convert_ToUInt32_m1453583008
Pbi:_CompareInfo_Compare_m894311506
L0a:__Z24MergeTransformComponentsR9TransformS0_b
pYl:__ZNK15dense_hashtableI10KeyWrapperIPK19Il2CppGenericMethodES4_N6il2cpp8metadata23Il2CppGenericMethodHashEN14dense_hash_setIS4_S7_NS4_14EqualsComparerINS6_26Il2CppGenericMethodCompareEEENSt3__29allocatorIS4_EEE8IdentityESB_SE_E10test_emptyEj
z0g:_InternalEnumerator_1_System_Collections_IEnumerator_get_Current_m3982010935_AdjustorThunk
VLd:__ZThn24_N5physx2Sc20ArticulationJointSimD0Ev
Owf:_EventSystem_UpdateModules_m3643806022
BUe:__ZN14PhysicsManager32AddToTriggerStayStatesIfRequiredEPK9Rigidbody
_Nl:_AnimationOffsetPlayable__cctor_m1029460816
$Fd:__ZN5physx14PxsAABBManager12createBPElemEv
Q0d:__ZThn12_N5physx7NpShape14onRefCountZeroEv
Vqd:__ZL26GeomMTDCallback_ConvexMeshRN5physx6PxVec3ERfRKNS_10PxGeometryERKNS_11PxTransformES5_S8_
Itm:__ZN6il2cpp2vm13ComObjectBase19GetRuntimeClassNameEPP15Il2CppHString__
Lk:_emscripten_glVertexAttribPointer
F5a:__ZNK20IntermediateRenderer12GetSceneMaskEv
$Wb:__ZN14PreloadManager26UpdatePreloadingSingleStepENS_21UpdatePreloadingFlagsEi
_wh:_ScrollRect_SetLayoutHorizontal_m3078869633
qIe:__ZN18ScBeforeSolverTask11runInternalEv
yAh:_SimpleCollator__ctor_m1587210019
tDc:__Z57Register_UnityEngine_RectTransform_INTERNAL_set_anchorMinv
DId:__ZL33GeomOverlapCallback_CapsuleConvexRKN5physx10PxGeometryERKNS_11PxTransformES2_S5_PNS_2Gu12TriggerCacheE
Cig:_Convert_ToUInt16_m1480956416
IKa:__ZN6prcoreL25inner_stretch_i8_bilinearEPKNS_9InnerInfoE
Rxb:__ZL30RegisterFilteredObjectCallbackPP12Il2CppObjectiPv
ARk:_ReadOnlyCollection_1_System_Collections_Generic_IListU3CTU3E_RemoveAt_m3317217538_gshared
W7j:__ZL54AudioSource_t3935305588_CustomAttributesCacheGeneratorP21CustomAttributesCache
rXb:__Z19InitializeGfxDevicev
_1:__ZN11UnityEngine15CloudWebService16SessionContainer24GetSessionHeaderJsonDataERKN4core12basic_stringIcNS2_20StringStorageDefaultIcEEEERNS2_13StringBuilderE
pPf:_DerivedType_GetEvent_m4157575360
Dna:__ZN13RuntimeStaticI21AssetReferenceStorageLb0EE13StaticDestroyEPv
iNe:__ZN5physx20InternalTriangleMesh9loadRTreeERNS_13PxInputStreamEj
hrk:_Array_InternalArray__set_Item_TisKeyValuePair_2_t2530217319_m258011711_gshared
ttj:__Z72RuntimeInvoker_Bounds_t2266837910_RuntimeObject_Matrix4x4U26_t3606180965PFvvEPK10MethodInfoPvPS4_
wpm:__ZN6il2cpp6icalls8mscorlib6System9AppDomain22InternalGetProcessGuidEP12Il2CppString
d9d:__ZN5physx2Sc18ParticleSystemCore16releaseParticlesEv
vzd:__ZN5physx2Gu20intersectTriangleBoxERKNS_6shdfnd3aos5Vec3VES5_S5_S5_S5_
hbj:__Z48RuntimeInvoker_RuntimeObject_Decimal_t2948259380PFvvEPK10MethodInfoPvPS4_
fZa:__ZNK17FileSystemHandler10IsReadOnlyERK13FileEntryData
q1h:_DateTime__cctor_m1880035693
_Jb:__Z18Transfer_BlittableI24GenerateTypeTreeTransferLb1EjEvRK29SerializationCommandArgumentsR31RuntimeSerializationCommandInfo
krj:__Z103RuntimeInvoker_Boolean_t97287965_Ray_t3785851493_Single_t1397266774_Int32_t2950945753_Int32_t2950945753PFvvEPK10MethodInfoPvPS4_
Zjc:__ZNK28RectTransformPropertyBinding9BindValueER6ObjectRKN11UnityEngine9Animation14GenericBindingERNS3_10BoundCurveE
Kia:__ZN11ColorRGBA328TransferI14SafeBinaryReadEEvRT_
u4e:_cff_vstore_done
WXe:__ZN5physx6shdfnd5ArrayIPvNS0_19ReflectionAllocatorINS_24NpPtrTableStorageManager8PtrBlockILi4EEEEEE15growAndPushBackERKS2_
vmj:__Z68RuntimeInvoker_Void_t1185182177_UInt16_t2177724958_SByte_t1669577662PFvvEPK10MethodInfoPvPS4_
zTg:_InternalEnumerator_1_get_Current_m3008260692_AdjustorThunk
KCg:_MACTripleDES_HashFinal_m3613553534
UUi:_UInt64_System_IConvertible_ToChar_m2074245892
dKa:__Z11IsHDRFormat13TextureFormat
ANi:_UTF8Encoding_InternalGetBytes_m1965760031
Dg:_emscripten_glClearDepth
aoc:__ZNK8GUILayer22GetTypeVirtualInternalEv
$hb:__ZN14SafeBinaryRead21TransferSTLStyleArrayINSt3__26vectorIN15QualitySettings14QualitySettingENS1_9allocatorIS4_EEEEEEvRT_17TransferMetaFlags
a7g:_KeyCollection__ctor_m2388548663_gshared
Hsb:__ZNSt3__26vectorINS_4pairIPKN5Unity4TypeE7Hash128EENS_9allocatorIS7_EEE8__appendEj
GGh:_ContentInfo__ctor_m1888388023
x4e:_cff_font_load
aqm:__GLOBAL__sub_I_LibraryLoader_cpp
gwc:__Z13IsPathCreatedRKN4core12basic_stringIcNS_20StringStorageDefaultIcEEEE
bwe:__ZN5physx35solveContactPreBlock_ConcludeStaticEPKNS_23PxcSolverConstraintDescEjRNS_16PxcSolverContextE
_ii:_Debug_LogWarningFormat_m2535776735
nKa:__ZL22stbir__encode_scanlineP11stbir__infoiPvPfiii
k_f:_ExternalException__ctor_m2877839282
p1e:__ZN20QuadTreeNodeRenderer13StaticDestroyEPv
W2:__ZN11UnityEngine15CloudWebService20WebRequestRestClient5AbortEv
rpl:_Regex_Matches_m2080913806
gkc:__ZN9Transform12CleanupClassEv
Evi:_Sprite_get_rect_m2575211689
RKd:__ZN5physx6shdfnd5ArrayIPvNS0_15InlineAllocatorILj256ENS0_19ReflectionAllocatorINS_2Cm5BlockIS2_Lj32EEEEEEEE15growAndPushBackERKS2_
qHe:__ZN5physx18PxsSolverStartTask13setupDescTaskEv
Dff:_UNITY_FT_Set_Pixel_Sizes
RLf:_OperatingSystem_Clone_m1122165140
Axk:_GameObject_AddComponent_TisRuntimeObject_m3469369570_gshared
Qva:__ZNSt3__26vectorIN9ShaderLab19SerializedSubShaderENS_9allocatorIS2_EEE26__swap_out_circular_bufferERNS_14__split_bufferIS2_RS4_EE
CK:__ZN11UnityEngine9Animation33SetGenericTransformPropertyValuesERKNS0_30AnimatorGenericBindingConstantERKN7mecanim10ValueArrayEP9Transformy
AB:__ZN11UnityEngine9Animation28AnimationClipBindingConstant8TransferI24GenerateTypeTreeTransferEEvRT_
vpd:__ZN5physx3Cct13BoxController6resizeEf
V1k:_List_1_RemoveAll_m3165362277_gshared
VRi:_Type_type_is_subtype_of_m1406623598
WIe:__ZN5physx6shdfnd5ArrayINS_2Cm12DelegateTaskINS_2Sc5SceneEXadL_ZNS5_19updateCCDSinglePassEPNS_10PxBaseTaskEEEEENS0_19ReflectionAllocatorIS8_EEE8recreateEj
$Ni:_Thread_get_CurrentThread_m4142136012
naf:_Dual_Project
B2b:__ZNSt3__27__sort4IRNS_6__lessI11CulledLightS2_EEPS2_EEjT0_S6_S6_S6_T_
R3l:__ZN6il2cpp2vm14TypeNameParser26ParseArrayModifierOptionalEv
D9:__Z26scripting_object_get_class18ScriptingObjectPtr
Ggm:__ZN6il2cpp6icalls8mscorlib6System10Reflection8Assembly13get_code_baseEP24Il2CppReflectionAssemblyb
svb:__ZNSt3__26vectorIN4core12basic_stringIcNS1_20StringStorageDefaultIcEEEE13stl_allocatorIS5_L18MemLabelIdentifier13ELi16EEE7reserveEj
SWd:__ZN5physx34NpShapeGetScRigidObjectFromScbSLOWERKNS_3Scb5ShapeE
zBg:_DSASignatureDeformatter__ctor_m2889130126
Ljc:__ZNK28MonoBehaviourPropertyBinding15GenerateBindingERKN4core12basic_stringIcNS0_20StringStorageDefaultIcEEEEbRN11UnityEngine9Animation14GenericBindingE
Uti:_RectTransform_INTERNAL_set_pivot_m1160676233
O7k:_List_1_set_Item_m35836043_gshared
DOh:_X509ChainElementCollection__ctor_m3424079155
zml:_LinkStack_Push_m3081279930
Wgl:_WaypointCircuit_Awake_m1281391516
krb:__ZN14SubstanceValue8TransferI18StreamedBinaryReadILb0EEEEvRT_
p5g:_Enumerator_MoveNext_m1107569389_gshared
JOd:__ZNK5physx21PxsBodyTransformVault12getTransformERKNS_11PxsBodyCoreE
Jrm:__ZN6il2cpp6icalls8mscorlib6System11Environment15internalGetHomeEv
Sni:_Matrix4x4_GetHashCode_m4034747639_AdjustorThunk
nZf:_ResourceCacheItem_t51292791_marshal_pinvoke_cleanup
U6:__ZNK5Unity9Component7GetNameEv
qrd:__ZN44ConvexVsHeightfieldContactGenerationCallback7onEventEjPj
sii:_Native__cctor_m1435623442
e6k:_List_1_System_Collections_IList_Remove_m1070694895_gshared
Nyl:_LayoutCache__ctor_m3885940174
n1l:__ZN6il2cpp6icalls8mscorlib6SystemL16CheckMemberMatchI9FieldInfoNS_5utils10functional6FilterINSt3__212basic_stringIcNS8_11char_traitsIcEENS8_9allocatorIcEEEENS5_13VmStringUtils23CaseInsensitiveComparerEEEEEbPKT_PK11Il2CppClassSN_iRKT0_
Qgl:_TimedObjectDestructor_DestroyNow_m1302389985
lcd:__ZNK11b2RopeJoint16GetReactionForceEf
PL:__ZN7mecanim8skeleton26SkeletonPoseComputeGlobalQEPKNS0_8SkeletonEPKNS0_13SkeletonPoseTIN4math4trsXEEEPS7_ii
TUi:_UInt64_System_IConvertible_ToByte_m1501504925_AdjustorThunk
HLl:_TextGenerator_Invalidate_m1072346986
w5c:__ZN14ParticleSystem40OnTrailGeometryJobsScheduledRenderThreadERK8JobFence
kMg:_TlsClientHello_ProcessAsTls1_m2549285167
qCj:__Z74RuntimeInvoker_Boolean_t97287965_UIVertex_t4057497605_UIVertex_t4057497605PFvvEPK10MethodInfoPvPS4_
hue:__ZN5physx2Gu19_gjkRelativeRayCastINS0_9TriangleVENS0_8CapsuleVEEEbRT_RT0_RKNS_6shdfnd3aos15PsMatTransformVERKNS9_6FloatVERKNS9_5Vec3VESI_RSD_RSG_SK_f
U1c:__ZN13TriggerModule8TransferI19StreamedBinaryWriteILb0EEEEvRT_
pL:__ZN9BlobWrite8TransferI22OffsetPtrArrayTransferIiEEEvRT_PKc17TransferMetaFlags
E0h:_EncoderExceptionFallback_Equals_m2760188920
sPd:__ZN5physx6shdfnd5ArrayIPvNS0_15InlineAllocatorILj256ENS0_19ReflectionAllocatorINS_11NpAggregateEEEEEE15growAndPushBackERKS2_
sV:__ZN4FMOD6System7releaseEv
hqe:__ZN5physx6shdfnd8PoolBaseINS_2Sc18TriggerInteractionENS0_19ReflectionAllocatorIS3_EEE15disposeElementsEv
A6f:_Boolean_CompareTo_m3665076258
UZh:_String_Split_m3580120853
MFh:_PrivateKeyInfo__ctor_m2811023496
Dca:__Z18PathToAbsolutePathRKN4core12basic_stringIcNS_20StringStorageDefaultIcEEEE
Izl:_GUILayoutUtility_LayoutFromEditorWindow_m2914699782
cz:__ZN13AnimationClip23VirtualRedirectTransferER17RemapPPtrTransfer
Gnf:__ZN21UnityAnalyticsManager15ThreadedCleanupEv
lrd:__ZL31PointInConvexPolygon2D_OutCodesPKfjffffRh
RJa:__ZL13BlitImageImplR14ImageReferenceiiRKS_NS_10ColorSpaceENS_8BlitModeEb
Lpc:__ZN15DirectorManager17AcquireOutputNodeEv
YXc:__ZL15AccumulateNoiseILb1ELi1EEN4math8floatNx2ERKNS0_8floatNx3ERKfiS6_S6_
Ork:_Array_InternalArray__set_Item_TisColor32_t2600501292_m1891325855_gshared
_La:__ZN6prcoreL17RemapGenericFloatI18TexFormatRGBAFloat17TexFormatRGBFloatEEvPKNS_9InnerInfoE
Dxk:_GameObject_GetComponentInChildren_TisRuntimeObject_m1310240902_gshared
I$e:__ZN9Rigidbody12MoveRotationERK11Quaternionf
e5j:__ZL69PersistentCall_t3407714124_CustomAttributesCacheGenerator_m_ArgumentsP21CustomAttributesCache
MSa:__ZN16GeometryJobTasks20ScheduleGeometryJobsER9GfxDevicePFvP15GeometryJobDataEPK22GeometryJobInstructionjb
xT:__ZN12AudioManager29ShutdownReinitializeAndReloadEv
I8a:__ZN16ReflectionProbes28GetMinBakedCubemapResolutionEv
eKe:__ZN5physx2Cm12DelegateTaskINS_2Sc5SceneEXadL_ZNS3_15postNarrowPhaseEPNS_10PxBaseTaskEEEE11runInternalEv
_Ze:__Z20ConvertContactToMonoP9Collision
MZc:__ZN17RemapPPtrTransfer8TransferI22ParticleSystemRendererEEvRT_PKc17TransferMetaFlags
Ssm:__GLOBAL__sub_I_String_cpp
oUl:__ZN15dense_hashtableINSt3__24pairIK10KeyWrapperIPK22Il2CppGenericParameterEP11Il2CppClassEES6_N6il2cpp5utils11PointerHashIS4_EEN14dense_hash_mapIS6_S9_SE_NS6_14EqualsComparerINS0_8equal_toIS5_EEEENS0_9allocatorISA_EEE9SelectKeyESJ_SL_E6insertERKSA_
gph:_InputField_GenerateCaret_m1459647218
IZj:__ZL49Camera_t4157153871_CustomAttributesCacheGeneratorP21CustomAttributesCache
bkl:_X509CertificateEnumerator__ctor_m85694331
MFa:__ZN14DataBufferGLES16RecreateWithDataEjPKv
xea:__Z29GetGlobalAllowNameConversionsv
krd:__ZL17transformVerticesRfS_S_S_PfjPKN5physx6PxVec3EPKhRKNS1_7PxMat33E
eZe:__ZNK5physx2Gu15HeightFieldUtil31getFaceIndexAtShapePointNoTest2Ejff
sJi:_Array_InternalArray__Insert_TisTableRange_t3332867892_m558285859_gshared
vcc:__ZN8Material8SetColorEN9ShaderLab16FastPropertyNameERK10ColorRGBAf
VGh:_StrongName_get_TokenAlgorithm_m1794722022
tXk:_Enumerator_System_Collections_IEnumerator_Reset_m3754523291_gshared
DRm:_glUniform3uiv__wrapper
qX:__ZN11AudioSource23VirtualRedirectTransferER18StreamedBinaryReadILb0EE
tOh:_X509CertificateEnumerator__ctor_m943731472
j4c:__ZN27ColorModulePropertyBindings13SetFloatValueER14ParticleSystemif
Tri:_RangeInt_get_end_m4128831787
ire:__ZNK5physx2Sq10AABBPruner5sweepERKNS0_9ShapeDataERKNS_6PxVec3ERfRNS0_14PrunerCallbackE
LIm:dynCall_iiifiii
Maa:__ZL41AssemblyNameMatchesWithOrWithoutExtensionPKcS0_
X4k:_List_1_set_Item_m2082115010_gshared
HKi:_Encoding_GetBytes_m3735967069
Obd:__ZN23ColliderTilingExtension5ResetEv
mPa:__ZN14GfxContextGLES43AddRenderSurfaceToDeferredFBOInvalidateListEPK17RenderSurfaceGLES
Ose:__ZN5physx17PxsCCDAdvanceTask11runInternalEv
cAa:__ZN11NamedObject23VirtualRedirectTransferER14SafeBinaryRead
ezh:_Text_get_resizeTextMinSize_m1002355407
Uhf:__ZN2UI11CompareFuncEPNS_6CanvasES1_
YWa:__ZN23PreloadManagerOperation6IsDoneEv
T3f:_Array_CreateInstance_m1027597705
dvh:_Selectable_get_navigation_m3508916916
fnd:__ZN10Effector2D10EndContactEP9b2Contact
itm:__ZN6il2cpp5utils11StringUtils11Utf16ToUtf8ERKNSt3__212basic_stringIDsNS2_11char_traitsIDsEENS2_9allocatorIDsEEEE
AGg:_MD4Managed_Decode_m4273685594
DBd:__ZN5physx3Cct26CharacterControllerManagerD2Ev
Knj:__Z57RuntimeInvoker_Quaternion_t2301928331_Vector3_t3722313464PFvvEPK10MethodInfoPvPS4_
$wb:__ZN21LightProbeProxyVolume18HasHardwareSupportEv
Pgd:__ZNK20b2SeparationFunction17FindMinSeparationEPiS0_f
DKa:__ZN6prcoreL31inner_stretch_argb8888_bilinearEPKNS_9InnerInfoE
_Nb:__Z18Transfer_BlittableI18StreamedBinaryReadILb1EELb1E8BitFieldEvRK29SerializationCommandArgumentsR31RuntimeSerializationCommandInfo
W8e:_UNITY_FT_Outline_Decompose
Hmg:_Int64_System_IConvertible_ToChar_m1509243576_AdjustorThunk
njl:_GeneralNames_get_IPAddresses_m4242915644
i7h:_Decimal_op_Implicit_m3873897383
Kxm:_GC_init_size_map
pse:__ZN5physx6shdfnd8internal8HashBaseINS0_4PairIKNS3_IPKNS_12PxsRigidCoreEPKNS_12PxsShapeCoreEEEPNS_11PxsCCDShapeEEESA_NS0_4HashISA_EENS1_11HashMapBaseISA_SD_SG_NS0_9AllocatorEE6GetKeyESI_Lb1EE15reserveInternalEj
Y2a:__Z20scripting_object_new17ScriptingClassPtr
gKm:dynCall_iiiiifi
ZFh:_KeyGeneratedEventHandler_Invoke_m2527485594
Yme:__ZN5physx2Sc5Scene21setDominanceGroupPairEhhRKNS_20PxDominanceGroupPairE
q5h:_Decimal__ctor_m1925875020_AdjustorThunk
tlh:_SerializationCallbacks__ctor_m3863304525
m1c:__ZN16CustomDataModule8TransferI18StreamedBinaryReadILb0EEEEvRT_
P:Math_exp
Agi:_Vector3_Min_m1803158933
kq:FUNCTION_TABLE_iiifi
fpm:__ZN6il2cpp2os5posix13PosixAutoLockD2Ev
ond:__ZN13BoxCollider2D15InitializeClassEv
OAl:_SymmetricTransform_OFB_m3690147804
U1e:_cff_get_advances
ITb:__ZN13MonoBehaviour9SetScriptERK4PPtrI10MonoScriptE18ScriptingObjectPtr
tMh:_X500DistinguishedName_GetSeparator_m1336760642
xee:__ZN5physx7NpScene12loadFromDescERKNS_11PxSceneDescE
pYa:__ZNK10FileSystem16LastErrorMessageEv
Wqk:_Array_InternalArray__Insert_TisVector3_t3722313464_m3862657277_gshared
dXh:_SecurityException__ctor_m1631242336
sWl:__ZN15dense_hashtableINSt3__24pairIK10KeyWrapperIPK11Il2CppClassEPKcEES6_N6il2cpp5utils11PointerHashIS3_EEN14dense_hash_mapIS6_S9_SE_NS6_14EqualsComparerINS0_8equal_toIS5_EEEENS0_9allocatorISA_EEE9SelectKeyESJ_SL_E14squash_deletedEv
Pxf:_EventSystem_Update_m1662072334
Ctc:__ZN11TimeManager16HasFixedTimeStepEv
rvf:__ZN22UnityWebRequestManager10InitializeEv
oTl:_MainModule_set_startSpeed_m3763022313
ZSb:__ZN13MonoBehaviour13AwakeFromLoadE17AwakeFromLoadMode
fIb:__ZL26Transfer_SimpleNativeClassI17RemapPPtrTransfer8GradientLb1EEvRK29SerializationCommandArgumentsR31RuntimeSerializationCommandInfo
rxf:_RaycasterManager_RemoveRaycasters_m3057093063
Xqc:__ZN12CachedWriter9InitWriteER15CacheWriterBase
Apc:__Z21UnsignedInt64ToStringy
Tth:_GetRaycastNonAllocCallback_BeginInvoke_m3984885848
Bnl:_PatternCompiler_BeginLink_m1295557963
w1a:__ZN14SafeBinaryRead21TransferSTLStyleArrayI13dynamic_arrayI17SortingLayerEntryLj4EEEEvRT_17TransferMetaFlags
Wme:__ZN5physx14PxsAABBManager15createAggregateEPvb
Qql:_Group_GetAnchorInfo_m3730312864
Ehk:__ZL50Graphic_t1660335611_CustomAttributesCacheGeneratorP21CustomAttributesCache
D7g:_KeyCollection_System_Collections_Generic_ICollectionU3CTKeyU3E_Add_m454648927_gshared
mRi:_TimeSpan_op_LessThanOrEqual_m300470010
hOm:_emscripten_glTexCoordPointer__wrapper
UFc:__Z66Register_UnityEngine_Transform_INTERNAL_CALL_InverseTransformPointv
Bpa:__ZZN15DirectorManager15InitializeClassEvEN41FixedUpdateDirectorFixedUpdateRegistrator7ForwardEv
Arg:_MemoryStream_get_Position_m3733941202
pb:invoke_iiiiifiiiif
Tgm:__ZNSt3__26vectorIcNS_9allocatorIcEEE8allocateEj
rKf:_HorizontalOrVerticalLayoutGroup_set_childControlWidth_m3261460516
aTm:_glLinkProgram__wrapper
Xzb:__ZN18ScriptingArguments8AddInt64Ex
lLa:__ZN6prcoreL12RemapGenericI17TexFormatARGB888815TexFormatBGR888EEvPKNS_9InnerInfoE
oad:__Z73Register_UnityEngine_ParticleCollisionEvent_InstanceIDToColliderComponentv
CAb:__ZN12HandlerChain4LockER13FileEntryData12FileLockMode
Ydi:_TextInfo_get_ListSeparator_m1628160079
wWc:__Z20UpdateCustomCurveTplIL27ParticleSystemCurveEvalMode1EEvRK11MinMaxCurveR23ParticleSystemParticlesiijjRKN4math5_int4E
zxh:_Selectable_OnCanvasGroupChanged_m472903475
iOi:_EventWaitHandle_Reset_m3348053200
Ysf:__ZN28UnityConnectScriptingClasses23CallSessionStateChangedEixxbP21ScriptingExceptionPtr
L0d:__ZN5physx7NpShape8requiresERNS_23PxProcessPxBaseCallbackE
Ajm:__ZN6il2cpp6icalls8mscorlib6System13Globalization11CultureInfo35construct_internal_locale_from_nameEP17Il2CppCultureInfoP12Il2CppString
nKb:__ZL22Transfer_ManagedObjectI24GenerateTypeTreeTransferLb1EEvRK29SerializationCommandArgumentsR31RuntimeSerializationCommandInfo
f0b:__ZN15RenderNodeQueueC2E10MemLabelId
wsk:_Array_qsort_TisParticleCollisionEvent_t4055032941_m191896654_gshared
iZf:_ResourceEnumerator_FillCache_m1661715061
xRj:__ZL72SecuritySafeCriticalAttribute_t3505979402_CustomAttributesCacheGeneratorP21CustomAttributesCache
Tk:_emscripten_set_main_loop_timing
ogi:_Bounds_get_min_m3755135869
vig:_Convert_ToUInt16_m3523269149
Oyf:_ExecuteEvents_get_endDragHandler_m2879610446
RZe:__ZN14CompletionTask22ProcessAllPhysicsTasksEv
ccc:__ZN14ImageReference10FlipImageYEv
CQh:_Interpreter_GetLastDefined_m4107643411
z0c:__ZN21InheritVelocityModule8TransferI17RemapPPtrTransferEEvRT_
hal:_fileController_Start_m509063755
qJc:__Z14GetDefaultSkini
JQ:__ZN4FMOD3DSP9setBypassEb
sYc:__Z9StartConeILN11ShapeModule14MultiModeValueE1EEvRS0_R23ParticleSystemParticlesRK19ParticleSystemStateRK27ParticleSystemEmissionStateRKN4math8float3x3ERKNSB_8float4x4Ejbj
Kfc:__Z19NormalizeWheelInputf
WIf:_Graphic_DoMeshGeneration_m3548487693
Pol:_Repetition__ctor_m1672362629
pSc:__Z29Transfer_Blittable_ArrayFieldI8JSONReadhEvRT_R9ArrayInfoRK23StaticTransferFieldInfo
gYh:_SecurityFrame_ToString_m339310712_AdjustorThunk
dUf:_TypeBuilder_create_runtime_class_m2581270900
uTg:_InternalEnumerator_1_get_Current_m3008260692_gshared
k5d:__ZN5physx2Sc9ClothCore17addCollisionPlaneERKNS_21PxClothCollisionPlaneE
A3a:__ZN22RenderingCommandBuffer20CleanupCommandBufferEv
k7h:_Decimal_op_Implicit_m2299919277
iGa:__ZN4gles18CreateStencilStateER15DeviceStateGLESRK15GfxStencilState
eNc:__Z18Transfer_BlittableI9JSONWriteLb1EtEvRK29SerializationCommandArgumentsR31RuntimeSerializationCommandInfo
wug:_UnexceptionalStreamReader_ReadToEnd_m920589220
M1h:_DateTime_System_IConvertible_ToType_m1242864300
r_h:_String_IndexOf_m1298810678
ml:___syscall85
vMe:__ZNK5physx13PxHeightField8isKindOfEPKc
k0b:__ZNSt3__26__sortIRPFbP10GUIElementS2_EPS2_EEvT0_S7_T_
goc:__ZN16GraphicsSettings12CleanupClassEv
$Of:_ConstructorBuilder_GetILGenerator_m1750792206
cKi:_EncoderFallback_get_ReplacementFallback_m818398284
Ypm:__ZN6il2cpp2os6Thread19DetachCurrentThreadEv
iyf:_EventTrigger_OnBeginDrag_m4203438710
KUl:__ZN6il2cpp2vmL21SetupInterfacesLockedEP11Il2CppClassRKNS_2os12FastAutoLockE
PCb:__ZN11MonoManager23VirtualRedirectTransferER24GenerateTypeTreeTransfer
k0c:__ZN24GenerateTypeTreeTransfer8TransferI13dynamic_arrayIN8UVModule10SpriteDataELj4EEEEvRT_PKc17TransferMetaFlags
QJ:__ZN23AnimationPlayableOutput17SetSourcePlayableEP8Playable
z5c:__ZL24BuildParticleLineSegmentILb1EEvjRPhRKN4math8float4x4EPK15LineBuilderDataRKfSA_11ColorRGBA32
NQi:_TimeSpan_CompareTo_m3633415627_AdjustorThunk
yii:_CullingGroup_Dispose_m782801025
iAd:__ZN16ControllerFilter9preFilterERKN5physx12PxFilterDataEPKNS0_7PxShapeEPKNS0_12PxRigidActorERNS0_7PxFlagsINS0_9PxHitFlag4EnumEtEE
W1:__ZN11UnityEngine15CloudWebService14DataDispatcher15SetupWebRequestEv
mEk:_Collection_1_ConvertItem_m492501417_gshared
jqf:__ZN11UnityEngine15PlatformWrapper13GetShaderCapsEv
hye:__ZN16MBPOS_TmpBuffers16allocateSleepingEjj
eQ:__ZN8Animator7GetBoolEiRb
WEh:_KeyPairPersistence_get_MachinePath_m3812267291
Bfg:_Stack_Peek_m2216191248
z1h:_DateTime_System_IConvertible_ToDecimal_m1044850612_AdjustorThunk
Qoc:__ZN21FixedBehaviourManager6UpdateEv
Ovc:__ZN9Transform9SetParentEPS_NS_15SetParentOptionE
Sxk:_GameObject_GetComponentsInChildren_TisRuntimeObject_m2621777305_gshared
h1c:__ZN15CollisionModule8TransferI18StreamedBinaryReadILb0EEEEvRT_
dOl:_AnimatorControllerPlayable_SetHandle_m2260644454_AdjustorThunk
vga:__ZN19ShaderPropertySheet8SetFloatEN9ShaderLab16FastPropertyNameEfNS_8SetFlagsE
$Ol:_Physics_Raycast_m952690504
Svb:__ZN19RuntimeSceneManager24BeginIntegrateMainThreadEP10UnityScene
pQd:__ZN5physx14NpArticulation26setExternalDriveIterationsEj
Ord:__ZN16RayRTreeCallbackILi0ELb0EED0Ev
FDe:__ZN5physx20PxsParticleSystemSim23scheduleCollisionUpdateERNS_10PxBaseTaskE
Iqm:__ZNSt3__2plIcNS_11char_traitsIcEENS_9allocatorIcEEEENS_12basic_stringIT_T0_T1_EERKS9_S6_
xtg:_StringReader_CheckObjectDisposedException_m3796163530
rva:__ZN9ShaderLab20SerializedSubProgramaSERKS0_
dIm:_roundf
t7f:_Byte_System_IConvertible_ToSingle_m324484566_AdjustorThunk
X6h:_Decimal_op_Explicit_m2848387298
e7i:_KeyValuePair_2_ToString_m1238786018_gshared
uD:__ZN8Animator15SetPrepareStageEv
QP:__ZN8AnimatorC2E10MemLabelId18ObjectCreationMode
LUl:__ZN6il2cpp2vmL24SetupTypeHierarchyLockedEP11Il2CppClassRKNS_2os12FastAutoLockE
Sfc:__ZL11TextHandleriPK23EmscriptenKeyboardEventPv
j5b:__Z20CalculateLightMatrixRK15SharedLightDataP10Matrix4x4f
Pef:_destroy_face
TOm:_glBlendEquationSeparate__wrapper
ezm:__ZN6il2cpp6icalls8mscorlib6System8Security12Cryptography24RNGCryptoServiceProvider13RngInitializeEP11Il2CppArray
D3c:__ZN21RotationBySpeedModuleD0Ev
zX:__ZN20SoundChannelInstance7setMuteEb
wBd:__ZN5physx3Cct26CharacterControllerManager21createObstacleContextEv
gIi:_Array_InternalArray__ICollection_Add_TisVector2_t2156229523_m4029235359_gshared
iyg:_NumberFormatter_NumberToString_m3906556024
ZOb:__Z19TransferField_ArrayI18StreamedBinaryReadILb1EE27Converter_SimpleNativeClassI17AnimationCurveTplIfEEEvRK23StaticTransferFieldInfoR31RuntimeSerializationCommandInfoRT0_
Pnd:__ZN7b2World18SetContactListenerEP17b2ContactListener
g7c:__Z19UpdateSingleRow2TplIL27ParticleSystemCurveEvalMode1ELS0_1EEvfRK11MinMaxCurveS3_RK23ParticleSystemParticlesPfbiii
ihd:__ZN14PhysicsQuery2D11LinecastAllERK8Vector2fS2_RKN10Collider2D13ContactFilterEPKS3_bP13dynamic_arrayI12RaycastHit2DLj4EE
LHa:__ZN18GfxFramebufferGLES22MakeCurrentFramebufferENS_7BuiltinE
Jge:__ZN5physx6shdfnd5ArrayIPNS_2Sc19ShapeInstancePairLLENS0_19ReflectionAllocatorIS4_EEE15growAndPushBackERKS4_
Wia:__ZN12CachedReader4ReadEPvj
bGd:__ZN5physx14PxsAABBManager19createAggregateElemEv
DUd:__ZN5physx2Sc8BodyCore24clearSpatialAccelerationEbb
EBh:_SimpleCollator_MatchesForwardCore_m850743967
jrb:__ZN14SubstanceInput8TransferI18StreamedBinaryReadILb0EEEEvRT_
mWc:__ZNK14RotationModule6UpdateERK27ParticleSystemReadOnlyStateRK19ParticleSystemStateR23ParticleSystemParticlesRKN4math7_float4Ejj
jma:__ZN19RuntimeSceneManagerD2Ev
obi:_CCGregorianCalendar_GetMonth_m1547203696
k3:__ZN11UnityEngine15CloudWebService25WebRequestDownloadHandler17OnCompleteContentEv
CKa:__ZN6prcore17GetIntegerBlitterE13TextureFormatS0_N14ImageReference8BlitModeE
jxm:_GC_print_block_descr
Cge:__ZN5physx10PxsContext20createContactManagerERKNS_24PxvManagerDescRigidRigidEPNS_18PxsMaterialManagerE
Pid:__ZN13BoxCollider2DD0Ev
I7l:__ZN6il2cpp2gc19AppendOnlyGCHashMapINSt3__24pairIPK11Il2CppImageP11Il2CppClassEEP22Il2CppReflectionModule17ReflectionMapHashIS9_ENS2_8equal_toIS9_EEE11TryGetValueERKS9_PSB_
yKd:__ZN5physx2Sc5Scene31removeActiveBreakableConstraintEPNS0_13ConstraintSimE
lyc:__ZN9BlobWrite14ReduceCopyImplERK14ReduceCopyDataj
Lka:__ZNSt3__26__treeI19RepeatingLogMessageNS_4lessIS1_EE13stl_allocatorIS1_L18MemLabelIdentifier73ELi16EEE12__find_equalIS1_EERPNS_16__tree_node_baseIPvEESD_RKT_
k$:__ZN11AudioSource18IsPlayingScriptingEv
OEh:_KeyBuilder_IV_m2230195376
Scd:__ZNK12b2WheelJoint10GetAnchorAEv
Zke:__ZN5physx6shdfnd5ArrayINS_12PxActorShapeENS0_19ReflectionAllocatorIS2_EEE15growAndPushBackERKS2_
h_a:__ZN25MultiBlocksMemoryFileData17AdjustBlocksCountEj
Sgm:__ZNSt3__214__split_bufferIN6il2cpp2vm22EmbeddedResourceRecordERNS_9allocatorIS3_EEED2Ev
lkd:__ZN10ClipperLib14PointInPolygonERKNS_8IntPointEPNS_5OutPtE
idf:__ZN13TextRendering4Font8TransferI24GenerateTypeTreeTransferEEvRT_
Mzc:__Z27CullingGroup_CUSTOM_DisposeP12Il2CppObject
t6c:__Z18UpdateSingleRowTplIL27ParticleSystemCurveEvalMode0EEvfRK11MinMaxCurveS3_RK23ParticleSystemParticlesPfbiii
Btf:__ZNSt3__26vectorIP19BaseConnectSettings13stl_allocatorIS2_L18MemLabelIdentifier6ELi16EEE21__push_back_slow_pathIKS2_EEvRT_
R$b:__ZN13ComputeShader15SetTextureParamEjRKN9ShaderLab16FastPropertyNameE9TextureID16TextureDimension
lZd:__ZN5physx2Sc14ConstraintCore8setFlagsENS_7PxFlagsINS_16PxConstraintFlag4EnumEtEE
vn:_glStencilMask
Z_g:_InternalEnumerator_1_System_Collections_IEnumerator_get_Current_m2499755184_gshared
pLe:__ZNK5physx2Sc15ClothFabricCore20getNbParticleIndicesEv
Mfc:__ZN15GUIEventManager10QueueEventERK10InputEvent
cZf:_ResourceReader_ReadNonPredefinedValue_m2638853518
bWl:_AnalyticsEvent_OnValidationFailed_m2609604624
q9j:__ZL62EventType_t3528516131_CustomAttributesCacheGenerator_mouseMoveP21CustomAttributesCache
UZf:_DecimalConstantAttribute__ctor_m3583301917
vB:__ZN24GenerateTypeTreeTransfer21TransferSTLStyleArrayINSt3__26vectorI24CompressedAnimationCurve13stl_allocatorIS3_L18MemLabelIdentifier26ELi16EEEEEEvRT_17TransferMetaFlags
znj:__Z116RuntimeInvoker_Vector3_t3722313464_Vector3_t3722313464_Vector3_t3722313464_Vector3U26_t3464235976_Single_t1397266774PFvvEPK10MethodInfoPvPS4_
Lwm:_GC_push_conditional_with_exclusions
M3g:_Enumerator_System_Collections_IDictionaryEnumerator_get_Entry_m2772123357_AdjustorThunk
oM:__ZN12_GLOBAL__N_121ProcessAnimationBeginER35AnimationPlayableEvaluationConstantR32AnimationPlayableEvaluationInputR33AnimationPlayableEvaluationOutput
Fsl:_UriParser_InitializeAndValidate_m2008117311
pwm:_GC_make_disappearing_links_disappear
hFm:_strrchr
Xhi:_Component_GetComponentInParent_m779177818
QJd:__ZN5physx2Sc7BodySim6wakeUpEv
ZBf:_UIBehaviour_IsDestroyed_m3033055982
sge:__ZN5physx6shdfnd8PoolBaseINS_2Gu30LargePersistentContactManifoldENS0_19ReflectionAllocatorIS3_EEE17releaseEmptySlabsEv
lKd:__ZN5physx2Sc21ConstraintInteraction7destroyEv
SUe:__ZN14SphereCollider6CreateEPK9Rigidbody
aDc:__Z33Register_UnityEngine_Random_Rangev
Hnh:_InputField_get_readOnly_m3111985574
T8a:__ZN14RenderSettings27UpdateIndirectSpecularColorEv
Itb:__ZN14PlayerSettings8TransferI18StreamedBinaryReadILb0EEEEvRT_
F1l:__ZN6il2cpp6icalls8mscorlib6System8MonoType16GetMethodsByNameEP20Il2CppReflectionTypeP12Il2CppStringibS5_
Crj:__Z143RuntimeInvoker_Void_t1185182177_RuntimeObject_Single_t1397266774_Vector3U26_t3464235976_Single_t1397266774_Single_t1397266774_Int32_t2950945753PFvvEPK10MethodInfoPvPS4_
Yhe:__ZNK5physx7NpScene16getNbConstraintsEv
V3d:__ZN5physx7NpCloth14setWakeCounterEf
BOi:_Monitor_Monitor_wait_m3706677354
GDg:_RijndaelTransform__cctor_m2439033240
tXe:__ZN5physx7profile11EventBufferINS_24PxDefaultContextProviderENS_6shdfnd6MutexTINS0_26WrapperReflectionAllocatorIhEEEENS0_14ScopedLockImplIS7_EENS_24PxProfileNullEventFilterEE17doAddProfileEventINS0_10StartEventEEEvtRKT_
Fbf:_ps_hints_t2mask
hwk:_LayoutGroup_SetProperty_TisVector2_t2156229523_m2721164497_gshared
cCi:_Array_InternalArray__ICollection_Remove_TisMonoResource_t4103430009_m238733686_gshared
Vng:_IntPtr_ToString_m1831665121
uyh:_Slider_Set_m1476104429
IKf:_Image_set_fillClockwise_m2210525152
Bnb:__ZN10BlendShape8TransferI19StreamedBinaryWriteILb0EEEEvRT_
K_e:__ZN14PhysicsManagerC2E10MemLabelId18ObjectCreationMode
Mng:__Z21il2cpp_codegen_sizeofP11Il2CppClass
vOa:__Z19GetTimeSinceStartupv
gLf:_Image_AddQuad_m2161647989
iXk:_Enumerator_System_Collections_IEnumerator_Reset_m2953002685_gshared
Exk:_Object_FindObjectOfType_TisRuntimeObject_m2612646359_gshared
$af:_TT_Load_Composite_Glyph
bhl:_WaypointCircuit_OnDrawGizmosSelected_m4093697193
Hob:__Z33MultiplyMatrixArrayWithBase4x4REFPK10Matrix4x4fS1_S1_PS_j
Nbb:__ZN9ShaderLab11shaderprops9GetTexEnvEPK19ShaderPropertySheetS3_NS_16FastPropertyNameE16TextureDimensionb
U2b:__ZN29RenderNodeQueuePrepareContextC2Ev
fdm:_il2cpp_gc_disable
Dwa:__ZN9ShaderLab20SerializedSubProgram16TextureParameter8TransferI24GenerateTypeTreeTransferEEvRT_
BBg:_DSASignatureDeformatter_SetKey_m2999549245
Ezm:__ZN6il2cpp2os11MutexHandle4WaitEb
WAa:__ZN9GfxDevice19SaveStereoConstantsEv
Sel:_CameraRefocus_SetFocusPoint_m3379167348
Dzm:__ZN6il2cpp2os11MutexHandle4WaitEj
Vwc:__ZL34GetComponentsImplementationRecurseILb1ELi1ELi1EEbR10GameObjectbRK17CompareParametersRK39GetComponentsImplementation_ReturnValue
ndj:__Z114RuntimeInvoker_Boolean_t97287965_RuntimeObject_RuntimeObject_Int32_t2950945753_Int32_t2950945753_Int32_t2950945753PFvvEPK10MethodInfoPvPS4_
rOf:_AssemblyBuilder_GetTypes_m3415680380
vMa:__ZN6prcoreL17RemapGenericFloatI15TexFormatRGHalf18TexFormatARGBFloatEEvPKNS_9InnerInfoE
eQa:__ZN7ApiGLES15BindVertexArrayEN2gl6HandleILNS0_10ObjectTypeE3EEE
mWb:__Z18SimulateMouseInputi
g$b:__ZN13RenderManager23AddRemoveCamerasDelayedEv
jOc:__ZN9JSONWrite8TransferI13dynamic_arrayIdLj8EEEEvRT_PKc17TransferMetaFlags
Lnf:__ZN11UnityEngine9Analytics15AnalyticsConfigC2Ev
_Lf:_OverflowException__ctor_m4029085969
Hje:__ZN5physx2Sq17SceneQueryManager11shiftOriginERKNS_6PxVec3E
NFk:_Collection_1_CheckWritable_m899405946_gshared
k6h:_Decimal_Compare_m3062820418
QRh:_IntervalCollection_GetMetaCollection_m4029522214
WZe:__ZNK5Unity5Joint16GetCurrentForcesER8Vector3fS2_
dyf:_EventTrigger_OnDeselect_m1919608102
zLl:_TextGenerator_get_characterCount_m864136654
oQi:_TimeSpan__ctor_m2047388489_AdjustorThunk
Qac:__ZN13RenderTexture8SetWidthEi
n3c:__ZN11ColorModuleD0Ev
bbf:_UNITY_FT_GlyphLoader_CheckSubGlyphs
d5b:__Z25SetupObjectBakedOcclusionbRK15SharedLightDataRK26SharedLightmapSettingsDataRK15LightmapIndicesR17ShaderPassContext
To:FUNCTION_TABLE_fiffifi
hCk:_Collection_1_System_Collections_ICollection_CopyTo_m1516601228_gshared
zjg:_Int16_System_IConvertible_ToDouble_m1661805412
U$d:__ZNK5physx9NpFactory11getNbShapesEv
dQl:_SphereCollider_INTERNAL_get_center_m2092209095
Dga:__ZN9ShaderLab16FastPropertyName4InitEPKc
ejc:__Z13RegisterClassIN2UI13RectTransformEEvv
xo:FUNCTION_TABLE_iiiii
Qmc:__ZL31MeshRendererTransformChangedJobP13BoundsJobDatajPK23TransformAccessReadOnlyPKyj
Rpf:__ZN11UnityEngine15PlatformWrapper19GetPhysicalMemoryMBEv
c8f:_Char_System_IConvertible_ToByte_m2347554595_AdjustorThunk
Y6c:__Z20UpdateWholeSheet2TplIL27ParticleSystemCurveEvalMode0ELS0_2EEvfRK11MinMaxCurveS3_RK23ParticleSystemParticlesPf
s$h:_String_CreateString_m860434552
Xpa:__Z18GetDirectorManagerv
jFc:__Z38Transform_CUSTOM_INTERNAL_get_rotationP12Il2CppObjectP11Quaternionf
Jem:__ZNK15dense_hashtableINSt3__24pairIK10KeyWrapperIP11Il2CppClassES4_EES5_N6il2cpp8metadata16SZArrayClassHashEN14dense_hash_mapIS5_S4_SA_NS5_14EqualsComparerINS9_19SZArrayClassCompareEEENS0_9allocatorIS7_EEE9SelectKeyESE_SG_E3endEv
uid:__ZN16b2StackAllocator4FreeEPv
x7l:__ZNK15dense_hashtableINSt3__24pairIK10KeyWrapperINS1_IPK10MethodInfoP11Il2CppClassEEEjEES9_17ReflectionMapHashIS8_EN14dense_hash_mapIS9_jSD_NS9_14EqualsComparerINS0_8equal_toIS8_EEEENS0_9allocatorISB_EEE9SelectKeyESI_SK_E5beginEv
NFa:__ZN7ApiGLES19UploadBufferSubDataEjN2gl12BufferTargetEllPKv
_re:__ZN5physx2Sc5Scene17createClothSolverEv
hsa:__ZNSt3__216__rotate_forwardINS_11__wrap_iterIPN4core12basic_stringIcNS2_20StringStorageDefaultIcEEEEEEEET_S9_S9_S9_
Dyi:_Vector2_GetHashCode_m3916089713
mvi:_SendMouseEvents_HitTestLegacyGUI_m579942228
Nt:__ZN7mecanim12statemachine20StateMachineConstant8TransferI14SafeBinaryReadEEvRT_
pxg:_MulticastDelegate_Equals_m2502840627
SUh:_SymmetricAlgorithm_set_KeySize_m3805756466
JWe:__ZThn116_N5physx7profile8ZoneImplINS_28PxProfileNameProviderForwardEE12removeClientERNS_19PxProfileZoneClientE
wxe:__ZN15MBP_PairManager17removeMarkedPairsEPK10MBP_ObjectPN5physx16PxsBroadPhaseMBPERK8BitArrayS8_
z7f:_Byte_System_IConvertible_ToUInt32_m1049546902_AdjustorThunk
jmj:__Z53RuntimeInvoker_Double_t594665363_Interval_t1802865632PFvvEPK10MethodInfoPvPS4_
sYb:__Z21InitializeBatchedJobsv
zMl:_CanvasGroup_get_blocksRaycasts_m1805542303
ATh:_SHA1Internal_ProcessBlock_m1991889327
hFb:__Z19TransferField_ArrayI14SafeBinaryRead27Converter_SimpleNativeClassI8GUIStyleEEvRK23StaticTransferFieldInfoR31RuntimeSerializationCommandInfoRT0_
RSb:__ZN9TextAsset23VirtualRedirectTransferER19StreamedBinaryWriteILb0EE
stk:_Array_Sort_TisRuntimeObject_TisRuntimeObject_m1685639929_gshared
VPi:_TimerCallback_Invoke_m1938221087
fTl:_MainModule_get_startLifetime_m2343501481
o8a:__ZN14RenderSettings5ResetEv
Ghc:__ZN6Sprite9BindAtlasERK4PPtrI11SpriteAtlasE
TKc:__ZN5Unity9rapidjson12GenericValueINS0_4UTF8IcEE13JSONAllocatorE10FindMemberIS4_EENS0_21GenericMemberIteratorILb0ES3_S4_EERKNS1_IS3_T_EE
r$d:__ZN5physx9NpPhysics33unregisterDeletionListenerObjectsERNS_18PxDeletionListenerEPKPKNS_6PxBaseEj
fXg:_InternalEnumerator_1_System_Collections_IEnumerator_get_Current_m3892960115_AdjustorThunk
T5d:__ZNK5physx2Sc9ClothCore22getAngularInertiaScaleEv
fCg:_HMAC_HashCore_m3684104066
rLc:__ZN5Unity9rapidjson13GenericReaderINS0_4UTF8IcEES3_13JSONAllocatorE11ParseNumberILj1ENS0_25GenericInsituStringStreamIS3_EENS0_15GenericDocumentIS3_S4_S4_EEEEvRT0_RT1_
aTd:__ZN5physx20NpRigidActorTemplateINS_18PxArticulationLinkEE12setActorFlagENS_11PxActorFlag4EnumEb
gpb:__ZN14SpriteRenderer14OnChangeSpriteEv
gqm:__ZN6il2cpp2os10ThreadImplD2Ev
Sdd:__ZN12b2MouseJoint23InitVelocityConstraintsERK12b2SolverData
mMc:__ZN8Gradient8TransferI9JSONWriteEEvRT_
veh:_ContextCallbackObject__ctor_m3499682402
_Fl:_AudioSource_set_clip_m31653938
GWa:__ZNK12TLSAllocatorI14StackAllocatorE22GetAllocatedMemorySizeEv
zw:__ZN7mecanim6memory16ChainedAllocator8AllocateEjj
$uc:__Z32GetSceneHierarchyPathDescriptivePK6Object
H3i:_EqualityComparer_1_System_Collections_IEqualityComparer_GetHashCode_m2138064395_gshared
nAb:__ZN12HandlerChain4NameEv
Mjg:_Int16_System_IConvertible_ToType_m3672347013_AdjustorThunk
Jn:FUNCTION_TABLE_fiiiiiifiiiiiif
SXh:_SecurityException_ToString_m3228070608
wlg:_Int16_ToString_m2013897809
LGe:__ZN5physx37setupFinalizeSolverConstraintsCoulombERNS_13PxcNpWorkUnitERKNS_2Gu13ContactBufferERKNS_27PxcCorrelationBufferCoulombERKNS_11PxTransformESB_bPhRKNS_13PxcSolverBodyESF_RKNS_17PxcSolverBodyDataESI_ffjffff
UXh:_String_Substring_m2848979100
$lf:__Z44Register_UnityEngine_CanvasRenderer_get_cullv
Ixk:_ScriptableObject_CreateInstance_TisRuntimeObject_m1552711675_gshared
upf:__ZN11UnityEngine7Connect17XRDeviceInfoEvent12XRDeviceInfoD2Ev
jDb:__Z44InitializeTransferFunctionScriptingTraitsForI17RemapPPtrTransferEvR31TransferFunctionScriptingTraits
Nqb:__ZNSt3__26vectorI17SubstanceEnumItemNS_9allocatorIS1_EEE6assignINS_11__wrap_iterIPS1_EEEENS_9enable_ifIXaasr21__is_forward_iteratorIT_EE5valuesr16is_constructibleIS1_NS_15iterator_traitsISA_E9referenceEEE5valueEvE4typeESA_SA_
Njc:__ZNSt3__26vectorI16MessageForwarder13stl_allocatorIS1_L18MemLabelIdentifier7ELi8EEE6resizeEj
_Nh:_X509Chain_SelectBestFromCollection_m1068759221
RAl:_SymmetricTransform_TransformBlock_m851059707
lVc:__Z19UpdateProceduralTplIL27ParticleSystemCurveEvalMode4EEvRK20DualMinMaxPolyCurvesR23ParticleSystemParticlesPfRKN4math7_float4E
pyk:_Enumerator_System_Collections_IEnumerator_Reset_m2261065994_AdjustorThunk
kwh:_ScrollRect_get_verticalNormalizedPosition_m3693218937
xwe:__ZN5physx31ComputeCreatedDeletedPairsListsEPKjS1_jRPNS_17PxcBroadPhasePairERjS5_S4_S5_S5_RNS_14SapPairManagerE
Qvb:__ZN18LoadSceneOperation21MustCompleteNextFrameEv
wyh:_Slider_UpdateDrag_m1102107039
tXf:_MonoMethodInfo_get_method_info_m88651774
AX:__ZNK12AudioManager16GetAudioListenerEv
Jlg:_Int32_System_IConvertible_ToDateTime_m1824716955
Wyg:_RuntimeTypeHandle__ctor_m3315980708_AdjustorThunk
eMl:_Canvas_set_overrideSorting_m4088794420
xli:_GameObject_BroadcastMessage_m217296818
vac:__ZNSt3__26vectorI11CameraStackNS_9allocatorIS1_EEE8__appendEj
Abd:__ZNK11Rigidbody2D20GetAttachedCollidersER13dynamic_arrayIP10Collider2DLj4EE
zBe:__ZN5physx2Gu16pcmContactBoxBoxERKNS0_13GeometryUnionES3_RKNS_11PxTransformES6_RKfRNS0_5CacheERNS0_13ContactBufferE
RE:__ZN7mecanim9animation12GetHumanPoseERKNS0_18ClipMuscleConstantEPKNS0_10ValueDeltaERNS_5human9HumanPoseE
vnf:__ZN11UnityEngine9Analytics15UserCustomEvent12CustomParams6InsertEPKcRNS1_11CustomValueE
HG:__ZN22AnimationMixerPlayable17ProcessRootMotionEP35AnimationPlayableEvaluationConstantP32AnimationPlayableEvaluationInputP33AnimationPlayableEvaluationOutput
Jca:__Z13GetFileSystemv
Hnc:__ZZL23RegisterLightPropertiesR22GenericPropertyBindingEN29Wrapper_LightColorTemperature13SetFloatValueEPvf
Xma:__ZNK5Unity4Type21FindAllDerivedClassesER13dynamic_arrayIPKS0_Lj4EENS0_17TypeFilterOptionsE
Qna:__ZN13RuntimeStaticI15GUIEventManagerLb0EE16StaticInitializeEPv
aqb:__ZN14SafeBinaryRead8TransferIfEEvRT_PKc17TransferMetaFlags
KVe:__ZN15RaycastCallback14processTouchesEPKN5physx12PxRaycastHitEj
vWi:_Version_CompareTo_m3146217210
Ged:__ZN24RigidbodyMovementState2D21ResetAngularMoveStateEv
jTl:_MainModule_GetStartLifetimeMultiplier_m2481667184
kpb:__ZThn32_N14SpriteRenderer15AddAsRenderNodeER15RenderNodeQueueRK20DeprecatedSourceData
qIi:_Array_InternalArray__ICollection_CopyTo_TisKeyValuePair_2_t71524366_m1056941380_gshared
TNe:__ZN5physx2Gu5RTree15exportExtraDataERNS_22PxSerializationContextE
IRi:_Type_get_IsClass_m589177581
URi:_Type_get_IsSystemType_m624798880
z1:__ZN11UnityEngine15CloudWebService14DataDispatcher19OnDataBlockConsumedEv
DCb:__ZN19ShaderPropertySheet9SetMatrixEN9ShaderLab16FastPropertyNameERK10Matrix4x4fNS_8SetFlagsE
Yfb:__Z29GetTextureSizeAllowedMultiple13TextureFormat
hre:__ZNK5physx2Sq10AABBPruner7overlapERKNS0_9ShapeDataERNS0_14PrunerCallbackE
c6h:_Decimal_Subtract_m835601464
mri:_Quaternion_Internal_ToEulerRad_m1503250752
jpc:__ZN21IntermediateRenderers3AddEP20IntermediateRenderer
LAc:__Z46Register_UnityEngine_Gizmos_INTERNAL_set_colorv
tge:__ZN5physx6shdfnd5ArrayIPvNS0_19ReflectionAllocatorINS_2Gu30LargePersistentContactManifoldEEEE4copyINS0_15InlineAllocatorILj256ES6_EEEEvRKNS1_IS2_T_EE
LDj:__ZL62ComVisibleAttribute_t1362837655_CustomAttributesCacheGeneratorP21CustomAttributesCache
Qti:_RectTransform_INTERNAL_set_sizeDelta_m188783163
Qg:_glCheckFramebufferStatus
Kym:__ZN6il2cpp2os11EventHandle4WaitEv
SRl:_CustomEventData__ctor_m4146403782
C4:__ZN19CloudServiceHandler20StartEventDispatcherERKN11UnityEngine15CloudWebService18CloudServiceConfigERNS1_23WebRequestRestHeaderMapE
uJf:_GraphicRaycaster__ctor_m646559428
jJe:__ZN5physx2Cm12DelegateTaskINS_2Sc5SceneEXadL_ZNS3_19updateCCDSinglePassEPNS_10PxBaseTaskEEEE11runInternalEv
nDd:__ZN5physx6string9sprintf_sEPcjPKcz
NQe:__ZThn8_N5physx19TriangleMeshBuilderD1Ev
Wbg:_BitArrayEnumerator_get_Current_m4220391712
JMf:__Z37il2cpp_codegen_get_executing_assemblyPK10MethodInfo
GJh:_HttpWebRequest_GetServicePoint_m2640244283
oui:_Transform_get_parent_m835071599
rwd:__ZN5physx2Gu16intersectRayAABBERKNS_6PxVec3ES3_S3_S3_RfS4_
eKh:_IPAddress_get_ScopeId_m4237202723
nw:__ZN4core8hash_mapIN11UnityEngine9Animation14GenericBindingENS2_10BoundIndexENS2_25GenericBindingHashFunctorENS2_30GenericBindingValueArrayUniqueEE4growEi
cE:__ZN21AnimationClipPlayable7SetTimeEd
Tol:_ExpressionCollection_get_Item_m3510736379
whk:__ZL62FontData_t746620069_CustomAttributesCacheGenerator_m_AlignmentP21CustomAttributesCache
YAf:_StandaloneInputModule_get_inputActionsPerSecond_m3946624274
FNi:_UTF8Encoding_InternalGetCharCount_m82458470
Ryi:_Vector2__cctor_m2108982652
snc:__ZZL23RegisterLightPropertiesR22GenericPropertyBindingEN22Wrapper_LightIntensity13GetFloatValueEPv
mw:__ZN4core8hash_mapIN11UnityEngine9Animation14GenericBindingENS2_10BoundIndexENS2_25GenericBindingHashFunctorENS2_30GenericBindingValueArrayUniqueEE4growEv
TGe:__ZN5physx30setupFinalizeSolverConstraintsERNS_13PxcNpWorkUnitERKNS_2Gu13ContactBufferERKNS_20PxcCorrelationBufferERKNS_11PxTransformESB_bPhRKNS_13PxcSolverBodyESF_RKNS_17PxcSolverBodyDataESI_ffffff
Sjm:__ZN14dense_hash_mapI10KeyWrapperIP14Il2CppIUnknownEjN6il2cpp5utils11PointerHashIS1_EENS3_14EqualsComparerINSt3__28equal_toIS2_EEEENS9_9allocatorINS9_4pairIKS3_jEEEEE15set_deleted_keyERSF_
ina:__ZN22BuiltinResourceManager16StaticInitializeEPv
OC:__ZN7mecanim4hand8HandPose8TransferI19StreamedBinaryWriteILb0EEEEvRT_
gYd:__ZN5physx7NpScene17releaseBatchQueryEPNS_12PxBatchQueryE
Afd:__ZN24b2ChainAndCapsuleContact8EvaluateEP10b2ManifoldRK11b2TransformS4_
bam:__ZN13Il2CppHashMapIPK14Il2CppAssemblyPK22Il2CppMonoAssemblyNameN6il2cpp5utils11PointerHashIS1_EENSt3__28equal_toIS2_EENSA_9allocatorINSA_4pairIK10KeyWrapperIS2_ES5_EEEEEC2EjRKS9_RKSC_
kGe:__ZN5physx26solveVBlockDefaultFrictionEPNS_13PxsSolverCoreEfjjPNS_13PxcSolverBodyEPNS_17PxcSolverBodyDataEjjPNS_25PxcArticulationSolverDescEjPNS_23PxcSolverConstraintDescEjS9_jRNS_6shdfnd5ArrayINS_24PxsConstraintBatchHeaderENSA_19ReflectionAllocatorISC_EEEESG_PNS_2Cm13SpatialVectorEPNS_25PxcThresholdStreamElementEjRj
t2f:_DelegatePInvokeWrapper_AppDomainInitializer_t682969308
gjd:__ZN13BoxCollider2D13PrepareShapesER13dynamic_arrayIP7b2ShapeLj4EERK10Matrix4x4f
Cz:__ZN14AnimationEvent8TransferI14SafeBinaryReadEEvRT_
Qba:__ZN8Remapper6RemoveEi
sve:__ZN5physx11writeBack1DERKNS_23PxcSolverConstraintDescERNS_16PxcSolverContextERNS_17PxcSolverBodyDataES6_
GKi:_Encoding_GetBytes_m3148649984
zff:__ZL36CleanupTextRenderingScriptingClassesv
Trd:__ZThn4_N16RayRTreeCallbackILi0ELb0EED0Ev
Nac:__ZN15ReflectionProbe17UseRendererResultEP13ProbeRenderer
VGc:__Z34Mesh_CUSTOM_SetArrayForChannelImplP12Il2CppObject30InternalScriptingShaderChannel34InternalScriptingVertexChannelTypeiP11Il2CppArrayi
Haa:__Z32scripting_class_get_nested_types17ScriptingClassPtrRNSt3__26vectorIS_13stl_allocatorIS_L18MemLabelIdentifier1ELi16EEEE
HMl:_CanvasRenderer_INTERNAL_CALL_EnableRectClipping_m3318097918
ZUi:_UInt64_System_IConvertible_ToDecimal_m806594027_AdjustorThunk
H3g:_Enumerator_System_Collections_IEnumerator_get_Current_m361750367_AdjustorThunk
P4g:_Enumerator_get_CurrentValue_m3103267885_gshared
q$k:_List_1__ctor_m3395838871_gshared
rci:_CultureInfo_get_Parent_m672689885
Djl:_PKCS12__ctor_m1854440921
Rsk:_Array_Resize_TisCustomAttributeNamedArgument_t287865710_m885566878_gshared
rO:__ZN11UnityEngine9Animation28GenericAnimationBindingCache25RegisterIAnimationBindingEPKN5Unity4TypeEiP17IAnimationBinding
nqe:__ZN5physx2Gu17GetGeomSweepFuncsEv
dMd:__ZN5physx6shdfnd8PoolBaseINS_15PxsArticulationENS0_16AlignedAllocatorILj64ENS0_9AllocatorEEEE17releaseEmptySlabsEv
zpg:_DirectoryInfo__ctor_m481305441
PIm:dynCall_viiffiii
ela:__ZN10MemoryPoolC2E10MemLabelIdbPKciii
dnf:__ZN14UnityAnalytics25UnregisterGlobalCallbacksEv
n9b:__Z40ProcessCameraIndexListIsNodeVisibleInOutRK22SceneCullingParametersPK9SceneNodePK4AABBR9IndexList
Mzl:_GUIScrollGroup_SetHorizontal_m291416666
m5a:__ZN16GraphicsSettings8TransferI17RemapPPtrTransferEEvRT_
Gjf:__ZN2UI6Canvas13UpdateBatchesEb
WLh:_X509BasicConstraintsExtension_Decode_m120598446
NJ:__ZNK23AnimationPlayableOutput11DerivesFromE17ScriptingClassPtr
ENm:_glGetShaderInfoLog__wrapper
_0d:__ZN5physx2Gu5Debug9visualizeERKNS_13PxBoxGeometryERNS_2Cm12RenderOutputERKNS5_8Matrix34ERKNS_9PxBounds3Eyfj
oqd:__ZN5physx6shdfnd5ArrayIPKvNS0_19ReflectionAllocatorIS3_EEE6resizeEjRKS3_
Kqf:__ZN11UnityEngine7Connect13ConfigHandler12GetListenersERKN4core12basic_stringIcNS2_20StringStorageDefaultIcEEEE
rCa:__ZN9GfxDevice18AllocRenderSurfaceEb
W7f:_Char__cctor_m2787437263
ZGe:__ZN5physx31setupFinalizeSolverConstraints4EPNS_21PxcSolverContact4DescERNS_18PxcNpThreadContextEPhffRKNS_6shdfnd3aos5Vec4VES9_S9_S9_
Hie:__ZN5physx7NpScene5flushEb
zhc:__ZN10TagManager32GetSortingLayerUniqueIDFromValueEi
mpf:__ZN11UnityEngine7Connect15DeviceInfoEvent7GFXInfoD2Ev
lCf:_AspectRatioFitter_get_rectTransform_m2996235303
uaa:__ZL27CleanupCoreScriptingClassesv
l7c:__Z19UpdateSingleRow2TplIL27ParticleSystemCurveEvalMode2ELS0_1EEvfRK11MinMaxCurveS3_RK23ParticleSystemParticlesPfbiii
Xqd:__ZN5physx2Gu13GeometryUnion3setERKNS_10PxGeometryE
Y4g:_Enumerator_VerifyCurrent_m3071620407_AdjustorThunk
K2g:_Comparer_1_System_Collections_IComparer_Compare_m1313384821_gshared
zCc:__Z26AnimationCurve_CUSTOM_InitP12Il2CppObjectP11Il2CppArray
xRm:_glUniform1uiv__wrapper
Jfd:__ZNK14b2PolygonShape5CloneEP16b2BlockAllocator
O9l:__ZN6il2cpp2vm10Reflection7IsEventEP12Il2CppObject
h9:__ZN17PersistentManager26GetStreamNameSpaceInternalEi
wR:__ZN4FMOD6System11createSoundEPKcjP22FMOD_CREATESOUNDEXINFOPPNS_5SoundE
sp:FUNCTION_TABLE_iiifiiii
w1e:__ZN13SpeedTreeWind20AdvanceWithoutUpdateEd
kKk:_ReadOnlyCollection_1_System_Collections_Generic_ICollectionU3CTU3E_Add_m1422506275_gshared
y1h:_DateTime_System_IConvertible_ToDecimal_m1044850612
KNh:_X509Store_get_Factory_m3282910266
bXe:__ZThn128_N5physx7profile8ZoneImplINS_28PxProfileNameProviderForwardEED1Ev
Jla:__ZN9ShaderLab19CommonPropertyNames13StaticCleanupEPv
iba:__Z31scripting_method_get_returntype18ScriptingMethodPtr
Dre:__ZN5physx2Sq17AABBTreeUpdateMap10invalidateEjjRNS0_8AABBTreeE
BHl:__ZL24UnresolvedVirtualCall_76P12Il2CppObjectPK10MethodInfo
rhb:__ZN15SerializeTraitsI12LightmapDataE8TransferI24GenerateTypeTreeTransferEEvRS0_RT_
nWh:_SecurityElement_AddAttribute_m311510562
iTl:_MainModule_get_startLifetimeMultiplier_m1798732576
mGe:__ZN5physx28solveParallelDefaultFrictionERNS_18PxsDynamicsContextEjjPNS_13PxcSolverBodyEPNS_17PxcSolverBodyDataEjjPNS_25PxcArticulationSolverDescEjPNS_23PxcSolverConstraintDescEjS9_jPiSA_SA_SA_SA_SA_PNS_25PxcThresholdStreamElementEjSA_PNS_2Cm13SpatialVectorEPKPNS_11PxsBodyCoreERNSD_10BitMapBaseINS_6shdfnd9AllocatorEEEPKPNS_15PxsArticulationEjPViRNSL_5ArrayINS_24PxsConstraintBatchHeaderENSL_19ReflectionAllocatorISW_EEEES10_RNSV_IjNSX_IjEEEES13_PPNS_12PxsRigidBodyEj
KNm:_glStencilOpSeparate__wrapper
Jsc:__ZN4Mesh5SetUvEiPKfjj
sib:__ZN7Texture13SetAnisoLimitENS_20AnisotropicFilteringE
wZ:__ZN11AudioModule16SetListenerPauseEb
d5f:_Attribute_IsDefined_m4069052474
Ki:_emscripten_glCompressedTexSubImage2D
bPa:__ZN13GfxDeviceGLES22MemoryBarrierImmediateEyN2gl17MemoryBarrierTypeE
Lm:_abort
JMa:__ZN6prcoreL26RemapGenericFloatToIntegerI18TexFormatARGBFloat17TexFormatARGB8888EEvPKNS_9InnerInfoE
I8k:_List_1_set_Capacity_m1977188119_gshared
ahl:_WaypointCircuit_DrawGizmos_m3455125382
Mwc:__Z46GetShaderModelNumericValueFromRequirementsMask18ShaderRequirements
fNi:_UTF7Encoding_InternalGetBytes_m797138468
i5e:_cff_ps_has_glyph_names
SQe:__ZN5physx15writeWordBufferEPKtjbRNS_14PxOutputStreamE
sNl:_Animation_Play_m2798573761
F$i:_Dictionary_2_Resize_m3287623642_gshared
nvm:_GC_write
aDg:_RC2_Create_m2516417038
UO:__ZN13ProduceHelperI9AnimationLb0EE7ProduceE10MemLabelId18ObjectCreationMode
pgl:_TimedObjectActivator__ctor_m2167871267
kYi:_Dictionary_2_Remove_m4193450060_gshared
Rfh:_ConstructionCallDictionary__ctor_m2541174073
Udh:_RemotingServices_IsTransparentProxy_m1535738947
Hrk:_Array_InternalArray__set_Item_TisMark_t3471605523_m1299772331_gshared
FKc:__Z44Register_UnityEngine_GUIStyle_SetDefaultFontv
dqm:__GLOBAL__sub_I_ThreadImpl_cpp
gNb:__Z18Transfer_BlittableI18StreamedBinaryReadILb1EELb1EiEvRK29SerializationCommandArgumentsR31RuntimeSerializationCommandInfo
nL:__ZN9BlobWrite8TransferI22OffsetPtrArrayTransferIKN4math7_float3EEEEvRT_PKc17TransferMetaFlags
vob:__ZN16MeshSkinningData14GetBoneWeightsEi
tdj:__Z173RuntimeInvoker_Int32_t2950945753_RuntimeObject_Int32_t2950945753_Int32_t2950945753_Int32_t2950945753_RuntimeObject_Int32_t2950945753_SByte_t1669577662_ContextU26_t3937453398PFvvEPK10MethodInfoPvPS4_
k1k:_List_1__ctor_m2576108087_gshared
C8l:__ZN15dense_hashtableINSt3__24pairIK10KeyWrapperINS1_IPK12PropertyInfoP11Il2CppClassEEEjEES9_17ReflectionMapHashIS8_EN14dense_hash_mapIS9_jSD_NS9_14EqualsComparerINS0_8equal_toIS8_EEEENS0_9allocatorISB_EEE9SelectKeyESI_SK_E12maybe_shrinkEv
SJd:__ZN5physx2Sc7BodySim37checkSleepReadinessBesidesWakeCounterEv
_jl:_X509Certificate_get_DSA_m565099499
HNb:__Z18Transfer_BlittableI18StreamedBinaryReadILb1EELb1EsEvRK29SerializationCommandArgumentsR31RuntimeSerializationCommandInfo
XLi:_StringBuilder_Remove_m940064945
WAg:_DESCryptoServiceProvider_GenerateIV_m683687014
f7c:__Z19UpdateSingleRow2TplIL27ParticleSystemCurveEvalMode1ELS0_2EEvfRK11MinMaxCurveS3_RK23ParticleSystemParticlesPfbiii
wib:__ZL21SetAnisoLimitEnumImplN7Texture20AnisotropicFilteringEb
Zof:__ZN22BaseUnityConnectClient17OnEnterStateReadyEv
Rfe:__ZN5physx2Sc10NPhaseCore24createTriggerInteractionERNS0_8ShapeSimES3_NS_7PxFlagsINS_10PxPairFlag4EnumEtEE
mzh:_Text_get_fontSize_m1677872538
pBg:_DSACryptoServiceProvider_get_PublicOnly_m3933928860
x3a:__ZN14GrowableBufferD2Ev
yBc:__Z29Input_CUSTOM_GetMouseButtonUpi
Wsd:__ZN5physx2Gu12selectNormalEhff
fpl:_BackslashNumber__ctor_m3802423446
d2l:__ZN6il2cpp6icalls8mscorlib6System8MonoType16InternalGetEventEP20Il2CppReflectionTypeP12Il2CppStringi
ysl:_UriScheme_t722425697_marshal_pinvoke_back
a7e:_UNITY_tt_face_load_maxp
OBc:__Z46Input_CUSTOM_INTERNAL_set_compositionCursorPosRK13Vector2fIcall
XD:__ZN7mecanim5human12FullBodyMaskEv
e9d:__ZN5physx3Scb14ParticleSystem16releaseParticlesEjRKNS_16PxStrideIteratorIKjEE
lCh:_BigInteger_ToString_m3475000413
Ppb:__ZN19ShaderPropertySheet11ComputeHashEv
qYl:__ZN30dense_hashtable_const_iteratorI10KeyWrapperIPK19Il2CppGenericMethodES4_N6il2cpp8metadata23Il2CppGenericMethodHashEN14dense_hash_setIS4_S7_NS4_14EqualsComparerINS6_26Il2CppGenericMethodCompareEEENSt3__29allocatorIS4_EEE8IdentityESB_SE_EppEv
Qle:__ZN5physx2Sc5Scene21processLostTouchPairsEv
ogd:__ZN12b2EPCollider24ComputePolygonSeparationEv
V2:__ZN11UnityEngine15CloudWebService20WebRequestRestClient6IsDoneEv
xil:_X509CertificateCollection_get_Item_m1033426577
Hj:_llvm_fabs_f32
y2:__ZN11UnityEngine15CloudWebService16SessionContainer16GetJsonDataBlockEjRKN4core12basic_stringIcNS2_20StringStorageDefaultIcEEEERS6_PjSA_
CDh:_ASN1_Decode_m1695284166
Rz:__ZN7mecanim9animation18ClipMuscleConstant8TransferI14SafeBinaryReadEEvRT_
fAe:__ZN5physx22PxcContactConvexConvexERKNS_2Gu13GeometryUnionES3_RKNS_11PxTransformES6_RKfRNS_10PxcNpCacheERNS0_13ContactBufferE
J9h:_Enum_ToString_m3248653065
msd:__ZNK5physx2Gu11ConvexHullV12HillClimbingERKNS_6shdfnd3aos5Vec3VE
x9:__ZN14SafeBinaryReadD2Ev
U8d:__ZN5physx2Sc18ParticleSystemCore10setDampingEf
Zic:__Z13RegisterClassI7TextureEvv
pXk:_Enumerator_MoveNext_m3859993671_gshared
XOb:__ZN8Gradient8TransferI18StreamedBinaryReadILb1EEEEvRT_
HPh:_Capture__ctor_m3103117740
ukb:__ZN4core8hash_mapINS_12basic_stringIcNS_20StringStorageDefaultIcEEEE13dynamic_arrayI4PPtrI6SpriteELj4EENS_4hashIS4_EENSt3__28equal_toIS4_EEEixERKS4_
rcj:__Z113RuntimeInvoker_Void_t1185182177_RuntimeObject_Int64_t3736567304_RuntimeObject_Int64_t3736567304_Int64_t3736567304PFvvEPK10MethodInfoPvPS4_
$Pg:_U3CGetEnumeratorU3Ec__Iterator0_Reset_m1192421843_gshared
CGd:__ZN5physx2Sc10NPhaseCore16deleteFilterPairEPNS0_10FilterPairE
Y2c:__ZN14ParticleSystem15ThreadedCleanupEv
Uri:_RangeInt_get_end_m4128831787_AdjustorThunk
mjm:__ZN6il2cpp6icalls8mscorlib6System4Type15MakeGenericTypeEP20Il2CppReflectionTypeP11Il2CppArray
GYe:_PxCreateBasePhysics
hk:_SDL_PauseAudio
Kdg:_Hashtable_Clone_m3078962909
Ncm:_il2cpp_class_from_type
g3l:__ZN6il2cpp2os4File11GetStdErrorEv
CKd:__ZN5physx2Sc5Scene28addActiveBreakableConstraintEPNS0_13ConstraintSimE
Ila:__ZN9ShaderLab19CommonPropertyNames16StaticInitializeEPv
zdl:_TouchPad_OnEnable_m2477527909
AZd:__ZN5physx6shdfnd8PoolBaseINS_16NpParticleSystemENS0_19ReflectionAllocatorIS2_EEE15disposeElementsEv
H1g:_Comparer_1__cctor_m2517796511_gshared
sN:__ZN7mecanim9animation18CreateAvatarOutputEPKNS0_14AvatarConstantEbbRNS_6memory9AllocatorE
xXe:__ZN5physx7profile11EventBufferINS_24PxDefaultContextProviderENS_6shdfnd6MutexTINS0_26WrapperReflectionAllocatorIhEEEENS0_14ScopedLockImplIS7_EENS_24PxProfileNullEventFilterEE10eventValueEtyx
wfl:_U3CFOVKickUpU3Ec__Iterator0_MoveNext_m1410072633
q3f:_Array_GetLongLength_m561139708
eYc:__Z14UpdateSpeedTplIL27ParticleSystemCurveEvalMode1EEvRK11MinMaxCurveR23ParticleSystemParticlesjj
cyh:_Slider_set_maxValue_m2251404465
sX:__ZN11AudioSource23VirtualRedirectTransferER24GenerateTypeTreeTransfer
csc:__ZN7Texture11SetWrapModeE15TextureWrapMode
Wnf:__ZN14UnityAnalytics15SendCustomEventERN11UnityEngine9Analytics15UserCustomEventE
Rkb:__ZN14Texture2DArray23VirtualRedirectTransferER14SafeBinaryRead
tvg:_MissingMemberException__ctor_m1220732369
v4b:__ZNK6Camera21CalculateCanDoShadowsEv
pke:__ZNK5physx2Sc5Scene17getBroadPhaseCapsERNS_16PxBroadPhaseCapsE
oWd:__ZN5physx9NpFactory14onActorReleaseEPNS_7PxActorE
jfi:_Application_InvokeOnBeforeRender_m2875673833
Rpm:__ZN6il2cpp2os6Thread12SetStackSizeEj
EMd:__ZN5physx2Sc5Actor15onElementAttachERNS0_7ElementE
Osh:_MaskableGraphic_RecalculateMasking_m183336762
Hwk:_Array_InternalArray__get_Item_TisRuntimeObject_m3347010206_gshared
tUf:_TypeBuilder_IsSubclassOf_m3458909121
Zrc:__ZNK8Renderer16IsVisibleInSceneEv
DNf:_Default_check_arguments_with_score_m3467814020
X8:__Z13VFormatBufferPciPKcz
F8d:__ZN5physx2Sc18ParticleSystemCore23setSimulationFilterDataERKNS_12PxFilterDataE
bQb:__Z18Transfer_BlittableI18StreamedBinaryReadILb0EELb1EhEvRK29SerializationCommandArgumentsR31RuntimeSerializationCommandInfo
b0f:_X509Certificate__cctor_m198658613
uqi:_PlayableHandle_Equals_m1666612586_AdjustorThunk
NMa:__ZN6prcoreL27StretchGenericFloatBilinearI15TexFormatRFloatEEvPKNS_9InnerInfoE
Vel:_CurveControlledBob_DoHeadBob_m1767624672
xqe:__ZN5physx6shdfnd8internal8HashBaseINS0_4PairIKNS_2Sq13PrunerPayloadEjEES5_NS0_4HashIS5_EENS1_11HashMapBaseIS5_jS9_NS0_9AllocatorEE6GetKeyESB_Lb1EE15reserveInternalEj
MXj:__ZL139ServicePointManager_t170559685_CustomAttributesCacheGenerator_ServicePointManager_t170559685____CheckCertificateRevocationList_PropertyInfoP21CustomAttributesCache
V9h:_Enum_ToObject_m1628250250
KG:__Z24ProcessAnimationMixBeginP35AnimationPlayableEvaluationConstantP32AnimationPlayableEvaluationInputP33AnimationPlayableEvaluationOutput
otg:_StreamWriter_LowLevelWrite_m1081676583
QJa:__Z14PadImageBorderR14ImageReferenceii
c7l:__ZN15dense_hashtableINSt3__24pairIK10KeyWrapperINS1_IPK10MethodInfoP11Il2CppClassEEEjEES9_17ReflectionMapHashIS8_EN14dense_hash_mapIS9_jSD_NS9_14EqualsComparerINS0_8equal_toIS8_EEEENS0_9allocatorISB_EEE9SelectKeyESI_SK_E4findERSA_
A$l:__ZN6il2cpp2vm13MetadataCache28GetFieldDefaultValueForFieldEPK9FieldInfo
DFi:_Array_IndexOf_TisUIVertex_t4057497605_m3336763564_gshared
mH:__ZN27AnimationLayerMixerPlayableD2Ev
EEf:_ColorBlock_Equals_m518833916_AdjustorThunk
iue:__ZN5physx2Gu22gjkRelativePenetrationINS0_9TriangleVENS0_8CapsuleVEEEjRKT_RKT0_RKNS_6shdfnd3aos15PsMatTransformVERKNSB_6FloatVERNSB_5Vec3VESJ_SJ_RSF_PhSL_Rh
bBm:__ZN6il2cpp2os9FastMutexC2Ev
URe:__ZN9Rigidbody14SetIsKinematicEb
b5j:__ZL66PersistentCall_t3407714124_CustomAttributesCacheGenerator_m_TargetP21CustomAttributesCache
DT:__ZN12AudioManager39HandlePendingAudioConfigurationCallbackEv
fl:_emscripten_glIsFramebuffer
cGh:_RSAManaged_EncryptValue_m799827583
Dda:__ZN12_GLOBAL__N_16qAtan2Eff
y$e:__Z13RegisterClassI9RigidbodyEvv
jl:_JS_Sound_SetLoopPoints
uoa:__ZN15dense_hashtableINSt3__24pairIKyP17VertexDeclarationEEy14GfxGenericHashIyEN14GfxDoubleCacheIyS4_S7_NS0_8equal_toIyEEN31GfxDoubleCacheConcurrencyPolicy11LocklessGetE42GfxDoubleCacheDefaultEmptyDeletedGeneratorIyEE9SelectKeyESA_13stl_allocatorIS5_L18MemLabelIdentifier24ELi16EEE14squash_deletedEv
GY:__ZN12AudioManager17ShouldSourcePauseEb
Ozm:__ZN6il2cpp2vm26MetadataAllocGenericMethodEv
nCi:_Array_InternalArray__ICollection_Remove_TisUInt16_t2177724958_m1766181761_gshared
NSa:__ZN19ConstantBuffersGLES12RecordRenderEv
$pe:__ZN5physx13ActorAABBTaskD2Ev
cOc:__ZN9JSONWrite8TransferI10RectOffsetEEvRT_PKc17TransferMetaFlags
vJa:__ZN4crnd12symbol_codec11decode_bitsEj
Kgd:__ZN15b2CircleContact8EvaluateEP10b2ManifoldRK11b2TransformS4_
iBl:_AesManaged_GenerateIV_m1368817386
cjc:__Z13RegisterClassI15QualitySettingsEvv
HT:__ZN4FMOD6System12createReverbEPPNS_6ReverbE
Tsm:__ZN6il2cpp2vm6String21InitializeEmptyStringEP11Il2CppClass
dH:__ZN7mecanim19ValueArrayBlendNodeILb1EEEvRKNS_10ValueArrayERKNS_14ValueArrayMaskERS1_RS4_RNS_16ValueArrayWeightEf
Xxb:__Z16MarkDependenciesR27GarbageCollectorThreadStatej
Fxl:_ObjectPool_1_get_countInactive_m526975942_gshared
$ih:_RemotingServices_DisposeIdentity_m2605848806
Pda:__ZNK9Transform11GetPositionEv
j9c:__ZNSt3__211__sift_downIRNS_4lessI23TransformAccessReadOnlyEEPS2_EEvT0_S6_T_NS_15iterator_traitsIS6_E15difference_typeES6_
kgi:_Bounds_set_size_m4127623202
cjg:_GuidParser_Reset_m2640004655
p6a:__ZN23SharedMeshRenderingData18UnloadVertexStreamEi
gCd:__ZN5physx3Cct13HandleManager3AddEPv
ipc:__ZN31CanvasBatchIntermediateRenderer11AddSubBatchERK16DrawBuffersRangePK19ShaderPropertySheet
Nnc:__ZN19RenderEventsContextC2Ei
E0:__Z6simd4fRKf
Nl:_emscripten_glEnable
bVg:_InternalEnumerator_1_System_Collections_IEnumerator_get_Current_m2982675020_gshared
q8c:__ZNK14ParticleSystem16GetParticleCountEv
r1a:__ZN10TagManager23VirtualRedirectTransferER14SafeBinaryRead
ajk:__ZL51RawImage_t3182918964_CustomAttributesCacheGeneratorP21CustomAttributesCache
qLe:__ZNK5physx2Sc15ClothFabricCore9getNbSetsEv
dFd:__ZThn12_N5physx3Ext5JointINS_15PxDistanceJointENS_30PxDistanceJointGeneratedValuesEE15getSerializableEv
e7b:__Z15InitLightMeshesv
cWf:_MonoCMethod_ToString_m3992577062
wje:__ZNK5physx7NpScene26getNbContactDataBlocksUsedEv
No:FUNCTION_TABLE_iifiii
Sxd:__ZN5physx2Gu29computeCapsule_HeightFieldMTDERKNS_21PxHeightFieldGeometryERKNS_11PxTransformERNS0_8CapsuleVEffbjRNS_10PxSweepHitE
JMe:__ZN5physx2Gu11HeightField15exportExtraDataERNS_22PxSerializationContextE
nib:__ZN15QualitySettings8TransferI19StreamedBinaryWriteILb0EEEEvRT_
Xrh:_LayoutUtility_U3CGetFlexibleHeightU3Em__7_m2991026842
G2e:_cf2_arrstack_init
Qwk:_Array_InternalArray__get_Item_TisResourceCacheItem_t51292791_m1306056717_gshared
Lrj:__Z157RuntimeInvoker_Void_t1185182177_RuntimeObject_RuntimeObject_RuntimeObject_RuntimeObject_RuntimeObject_RuntimeObject_RuntimeObject_RuntimeObject_RuntimeObjectPFvvEPK10MethodInfoPvPS4_
N6:__Z15CleanLogHandler7LogTypePKcz
Xxg:_NumberFormatter_NumberToString_m2481532188
kxa:__ZN9ShaderLab19SerializedSubShader8TransferI19StreamedBinaryWriteILb0EEEEvRT_
B$d:__ZN5physx10NpMaterialC2ERKNS_2Sc12MaterialCoreE
nwh:_ScrollRect_InternalGetBounds_m599803667
aDe:__ZN5physx9PxTaskMgr10resolveRowEjb
QPl:_Rigidbody_set_angularVelocity_m4254006699
tTb:__ZN6Camera17RemoveImageFilterERK11ImageFilter
Rya:__ZNSt3__218__insertion_sort_3IR25ValueParameterArraySorterPN20GpuProgramParameters14ValueParameterEEEvT0_S6_T_
gkd:__ZN10ClipperLib7Clipper27ProcessEdgesAtTopOfScanbeamEx
pVc:__ZN14EmissionModule15AccumulateBurstER27ParticleSystemEmissionStateRK11MinMaxCurvef
Pcg:_Comparer__cctor_m3311686689
W2c:__ZN11ShapeModule17MainThreadCleanupEv
E2c:__ZN9SubModule5ResetEv
Yrl:_Uri__ctor_m3040793867
lB:__ZN17AnimationCurveTplI11QuaternionfE8TransferI14SafeBinaryReadEEvRT_
FUg:_InternalEnumerator_1_get_Current_m3500427238_AdjustorThunk
mkf:__ZN2UI26InitializeDeviceForOverlayEi
MKe:__ZNK5physx13NpClothFabric13getRestvaluesEPfj
Jka:__Z27LogRepeatingStringWithFlagsRKN4core12basic_stringIcNS_20StringStorageDefaultIcEEEE15LogMessageFlagsi
hvd:__ZN5physx2Gu16_gjkLocalRayCastINS0_9TriangleVENS0_11ConvexHullVEEEbRT_RT0_RKNS_6shdfnd3aos6FloatVERKNS9_5Vec3VESF_RSA_RSD_SH_f
W9h:_Enum_IsDefined_m1442314461
TOi:_Thread__cctor_m817723615
aFl:_AudioExtensionManager_RegisterBuiltinDefinitions_m2742744104
wE:__ZN17AnimationPlayable28ComputeNeedsBindingRebuildedEv
DD:__ZN17AnimationPlayable23RequestAllocateBindingsEv
NKd:__ZN5physx6shdfnd8PoolBaseINS_2Cm5BlockIPvLj32EEENS0_19ReflectionAllocatorIS5_EEE17releaseEmptySlabsEv
nwe:__ZN5physx23PxsBroadPhaseContextSap21batchUpdateFewUpdatesEjRPNS_17PxcBroadPhasePairERjS4_
y0h:_DecoderReplacementFallbackBuffer_Fallback_m1261056214
xyd:__ZN5physx3Cct17getSceneTimestampEPKNS0_30InternalCBData_FindTouchedGeomE
mNf:_Binder_get_DefaultBinder_m950908649
Rpg:_StreamReader__ctor_m1616861391
Qrf:__ZN18UnityConnectClient33OnPlayerSessionStateChangedStaticEPS_jyy
arj:__Z109RuntimeInvoker_Boolean_t97287965_Vector3_t3722313464_Vector3_t3722313464_Single_t1397266774_Int32_t2950945753PFvvEPK10MethodInfoPvPS4_
JSh:_RSA_ToXmlString_m2922661427
F3:__ZNK11UnityEngine15CloudWebService23WebRequestUploadHandler11GetProgressEv
vGa:__ZN7ApiGLES4LoadE16GfxDeviceLevelGL
Ehb:__ZN18StreamedBinaryReadILb0EE21TransferSTLStyleArrayI13dynamic_arrayI31EnlightenSystemAtlasInformationLj8EEEEvRT_17TransferMetaFlags
K_d:__ZN5physx9NpPhysics15createAggregateEjb
pJa:__ZN4crnd12crn_unpacker22decode_color_endpointsEv
Emm:__ZN15dense_hashtableI10KeyWrapperIP18Il2CppGenericClassES3_N6il2cpp8metadata22Il2CppGenericClassHashEN14dense_hash_setIS3_S6_NS3_14EqualsComparerINS5_25Il2CppGenericClassCompareEEENSt3__29allocatorIS3_EEE8IdentityESA_SD_E15insert_noresizeERKS3_
hmc:__ZZL31RegisterOtherRendererPropertiesR22GenericPropertyBindingEN30Wrapper_RendererReceiveShadows13GetFloatValueEPv
qUe:__ZN9Rigidbody5ResetEv
HAi:_Array_InternalArray__ICollection_Contains_TisSlot_t384495010_m688761886_gshared
Xfb:__ZN17SharedTextureDataC2E10MemLabelIdii13TextureFormatjiibb
Htj:__Z114RuntimeInvoker_RuntimeObject_RuntimeObject_Int32_t2950945753_Int32_t2950945753_Int32_t2950945753_Int32_t2950945753PFvvEPK10MethodInfoPvPS4_
AWb:__ZN8Material11SetPassFastEPN9ShaderLab4PassER17ShaderPassContextP6Shaderib
JGc:__Z31Renderer_Set_Custom_PropEnabledP12Il2CppObjectb
Orf:__ZN11UnityEngine7Connect20BasePersistentValues10SaveValuesER9JSONWrite
lHk:_Collection_1_IsFixedSize_m3748602684_gshared
A1h:_DateTime_System_IConvertible_ToDouble_m2116720007
oji:_Display_GetSystemExtImpl_m2808197389
fQi:_WaitHandle_WaitOne_m2577152516
j2c:__ZN11ShapeModule18MultiModeParameterIN25IParticleSystemProperties8PropertyIfNS1_5ClampILi0ELi360EEEEEE8TransferI19StreamedBinaryWriteILb0EEEEvRT_
Jqb:__ZN14SafeBinaryRead21TransferSTLStyleArrayINSt3__26vectorI17SubstanceEnumItemNS1_9allocatorIS3_EEEEEEvRT_17TransferMetaFlags
Q$f:_X509Certificate_PEM_m1177570576
mlg:_NumberFormatter_AppendExponent_m1258666517
kQg:_ArrayReadOnlyList_1_GetEnumerator_m1835926958_gshared
TCe:__ZN5physx9PxTaskMgr12addReferenceEj
thd:__ZNSt3__27__sort4IR24RayHitsByDepthComparitorP12RaycastHit2DEEjT0_S5_S5_S5_T_
Utc:__Z14ScaleCurveTimeR17AnimationCurveTplIfEf
Wna:__ZN22VirtualJoystickManagerC2Ev
wna:__ZN20GlobalCachingManager7DisposeEv
t1b:__Z12SetupLODFadeR9GfxDeviceR17ShaderPassContextf
Pdb:__ZNK14PlayableOutput7GetTypeEv
ufd:__ZN26b2PolygonAndCapsuleContact6CreateEP9b2FixtureiS1_iP16b2BlockAllocator
T6b:__ZL24CollectForwardObjectsJobP27CollectForwardObjectsHeader
N7k:_List_1_get_Item_m1378751541_gshared
O8b:__Z13IsNodeVisibleRK9SceneNodeRK4AABBRK22SceneCullingParameters
fGi:_Array_InternalArray__IndexOf_TisLabelFixup_t858502054_m1491765395_gshared
_Ah:_SortKeyBuffer_AppendCJKExtension_m2591091991
Y8c:__ZN11ShapeModuleC2E10MemLabelId
zNi:_UTF8Encoding_GetByteCount_m4153686982
O9b:__Z24ScheduleCullingAllGroupsR8JobFenceRK22SceneCullingParametersiRK13CullingOutputRK13dynamic_arrayIP12CullingGroupLj4EERKS_
ETm:_emscripten_glStencilMask__wrapper
gbj:__Z49RuntimeInvoker_Void_t1185182177_Double_t594665363PFvvEPK10MethodInfoPvPS4_
J8c:__Z33GetParticleSystemScriptingClassesv
IZl:__ZN15dense_hashtableINSt3__24pairIK10KeyWrapperIN6il2cpp5utils13dynamic_arrayIPK10Il2CppTypeLj4EEEEPFvvEEESA_NS3_8metadata19Il2CppSignatureHashEN14dense_hash_mapISA_SD_SG_NSA_14EqualsComparerINSF_22Il2CppSignatureCompareEEENS0_9allocatorISE_EEE9SelectKeyESK_SM_EC2EjRKSG_RKSK_RKSO_
r3a:__ZN15RenderNodeQueue7CleanupEv
zDd:__ZN16NovodexAllocator8allocateEjPKcS1_i
Gcb:__ZN39DeprecatedFastPropertyNameSerialization8TransferI14SafeBinaryReadEEvRT_
Rjl:_DeriveBytes_DeriveIV_m973925711
Ulg:_Int32_System_IConvertible_ToSByte_m3133688512
vnm:__ZN15dense_hashtableINSt3__24pairIK10KeyWrapperIP12Il2CppObjectEN6il2cpp2gc9CachedCCWEEES5_NS7_5utils11PointerHashIS3_EEN14dense_hash_mapIS5_S9_SD_NS5_14EqualsComparerINS0_8equal_toIS4_EEEENS0_9allocatorISA_EEE9SelectKeyESI_SK_E12expand_arrayEjN21dense_hash_map_traits17integral_constantIbLb0EEE
Q6b:__ZN9ShaderLab10GrabPassesD2Ev
alb:__ZN14Texture2DArray13UploadTextureEv
ysh:_MaskableGraphic_UpdateCull_m2805101913
J7e:_tt_cmap14_done
Tvb:__ZN18AwakeFromLoadQueue25RegisterObjectInstanceIDsEv
TZi:_Dictionary_2_Add_m4262304220_gshared
rH:__ZNK27AnimationLayerMixerPlayable11DerivesFromE17ScriptingClassPtr
Vdf:__ZN20TextRenderingPrivate19NativeTextGenerator15InsertCharacterEiPj
hke:__ZN5physx2Sc5Scene22removeBroadPhaseRegionEj
yCd:__ZN5physx2Cm12RenderBuffer5clearEv
V5d:__ZNK5physx2Sc9ClothCore21getStiffnessFrequencyEv
qcd:__ZN11b2RopeJoint24SolveVelocityConstraintsERK12b2SolverData
uwg:_MonoType_get_attributes_m1332507727
$yl:_GUIContent_ClearStaticCache_m1205116045
wik:__ZL66InputField_t3762917431_CustomAttributesCacheGenerator_m_CaretWidthP21CustomAttributesCache
D_c:__ZN24OptimizedPolynomialCurve19BuildOptimizedCurveERK17AnimationCurveTplIfEf
yse:__ZN5physx13PxsCCDContext14postCCDAdvanceEPNS_10PxBaseTaskE
uXh:_WindowsIdentity_Dispose_m3466258450
ukh:_BinaryCommon__cctor_m2978407547
a8f:_Char_System_IConvertible_ToByte_m2347554595
Phm:__ZN6il2cpp6icalls8mscorlib6System2IO6MonoIO20GetFileSystemEntriesEP12Il2CppStringS6_iiPi
Cff:__ZN20TextRenderingPrivate15DynamicFontData21GetFontMetricsForFaceERK13dynamic_arrayIN4core17string_with_labelILi35EEELj4EEiRKS1_I4PPtrIN13TextRendering4FontEELj4EEPfSF_
nwl:_IndexedSet_1__ctor_m2250384602_gshared
MTi:_UInt16_TryParse_m4139137016
tKi:_Encoding__ctor_m2997749867
Xmi:_ManagedStreamHelpers_ManagedStreamSeek_m3158782053
Kql:_ExpressionAssertion_Compile_m2166597834
MSb:__ZN16ScriptingManagerD0Ev
HYh:_Single_System_IConvertible_ToSByte_m1208276900_AdjustorThunk
WLg:_TlsClientCertificate_ProcessAsSsl3_m3265529850
ium:__ZN6il2cpp6icalls8mscorlib6System7Convert24InternalFromBase64StringEP12Il2CppStringb
Oye:__ZNK5physx10BPWorkTask7getNameEv
WWd:__ZN5physx2Sc8ShapeSim16onResetFilteringEv
klm:__ZN30dense_hashtable_const_iteratorINSt3__24pairIK10KeyWrapperINS1_IPKcS4_EEEiEES6_24NamespaceAndNamePairHashN14dense_hash_mapIS6_iS9_NS6_14EqualsComparerI26NamespaceAndNamePairEqualsEENS0_9allocatorIS8_EEE9SelectKeyESD_SF_EppEv
Hzc:__Z44Register_UnityEngine_Component_get_transformv
lAc:__Z39GameObject_CUSTOM_FindGameObjectWithTagP12Il2CppString
rM:__ZN12_GLOBAL__N_120ProcessPlayableGraphERN8Animator11AnimatorJobER35AnimationPlayableEvaluationConstantR32AnimationPlayableEvaluationInputR33AnimationPlayableEvaluationOutputPFvS4_R17AnimationPlayableEPFvS4_S6_S8_EPFvS8_S4_S6_S8_fESE_MS9_FvPS3_PS5_PS7_E
aei:_TextInfo_ToLower_m2744057472
xZb:__ZN17ArchiveFileSystem12MountArchiveEPKcS1_
b5i:_EqualityComparer_1_System_Collections_IEqualityComparer_Equals_m3977314386_gshared
hNc:__Z18Transfer_BlittableI9JSONWriteLb1E8Vector4fEvRK29SerializationCommandArgumentsR31RuntimeSerializationCommandInfo
Io:FUNCTION_TABLE_viififiii
hbi:_CCGregorianCalendar_year_from_fixed_m463929682
sif:__ZN2UI13CanvasManagerD0Ev
r7:__ZThn32_NK8Renderer14GetSubsetIndexEi
Kii:_Debug_get_unityLogger_m2239795986
tKk:_ReadOnlyCollection_1_System_Collections_IEnumerable_GetEnumerator_m2123446296_gshared
pGg:_MD2Managed_Initialize_m2341076836
cRk:_ReadOnlyCollection_1_System_Collections_IList_Add_m4240023232_gshared
kDa:__ZN9GfxDevice15ImmediateVertexEfff
Hic:__Z13RegisterClassI8MaterialEvv
Pgb:__ZNK16LightmapSettings22GetTypeVirtualInternalEv
auk:_Array_Sort_TisUIVertex_t4057497605_TisUIVertex_t4057497605_m4243853890_gshared
CAa:__ZN13GfxDeviceGLES15SetStencilStateEPK18DeviceStencilStatei
Q6f:_Buffer_BlockCopyInternal_m418318694
kEm:_cycle
_tm:__ZN6il2cpp2vm8Profiler7GCEventE13Il2CppGCEvent
Tcj:__Z76RuntimeInvoker_Void_t1185182177_RuntimeObject_RuntimeFieldHandle_t1871169219PFvvEPK10MethodInfoPvPS4_
qDg:_Rijndael_Create_m3053077028
xe:_emscripten_glUniform1iv
Zed:__ZN15b2DistanceProxy3SetEPK7b2Shapei
JBb:__ZN16MemoryFileSystemD2Ev
idj:__Z150RuntimeInvoker_Int32_t2950945753_RuntimeObject_Int32_t2950945753_Int32_t2950945753_RuntimeObject_Int32_t2950945753_Int32_t2950945753_Int32_t2950945753PFvvEPK10MethodInfoPvPS4_
q5f:_BitConverter_DoubleToInt64Bits_m3574395137
c3h:_DateTime_Parse_m3729096069
p1k:_List_1_System_Collections_IList_Add_m1540114404_gshared
nzc:__Z37Register_UnityEngine_Camera_get_depthv
PCj:__Z92RuntimeInvoker_RuntimeObject_SByte_t1669577662_SByte_t1669577662_RuntimeObject_RuntimeObjectPFvvEPK10MethodInfoPvPS4_
ZO:__ZN13AnimationClip24SetDidModifyClipCallbackEPFvPS_R4ListI8ListNodeI14AnimationStateEEE
ytg:_StringReader_Read_m3322058819
dch:_CrossAppDomainChannel_get_ChannelPriority_m3418073750
uph:_Selectable_StartColorTween_m3618813981
Wwf:_BaseInputModule_HandlePointerExitAndEnter_m1705532066
zWe:__ZN5physx7profile8ZoneImplINS_28PxProfileNameProviderForwardEE10startEventEty
Sse:__ZN5physx10PxsCCDPair17sweepAdvanceToToiEfb
jfc:__Z23ConvertIntegerToTypePtrItEbPvR14SafeBinaryRead
I7h:_Delegate_CombineImpl_m3572135514
Ekg:_NumberFormatter_IntegerToString_m1679294587
SNk:_ReadOnlyCollection_1_System_Collections_IList_RemoveAt_m422909114_gshared
YM:__ZN7mecanim5human29HumanGetGoalOrientationOffsetENS0_4GoalE
Oe:_emscripten_glStencilFunc
YVd:__ZN5physx6shdfnd8PoolBaseINS_2Cm5BlockIhLj384EEENS0_19ReflectionAllocatorIS4_EEE17releaseEmptySlabsEv
TIe:__ZN5physx16PxsIslandManager11freeBuffersEv
HOd:__ZN5physx2Cm12DelegateTaskINS_2Sc17ParticleSystemSimEXadL_ZNS3_21prepareCollisionInputEPNS_10PxBaseTaskEEEE11runInternalEv
IAf:__Z46il2cpp_codegen_get_marshal_directive_exceptionPKc
dza:__ZN9ShaderLab20SerializedSubProgram14AddMatrixParamEPKcii15ShaderParamTypei
Ve:_glGetActiveUniformBlockName
fFd:__ZThn12_N5physx3Ext13DistanceJointD0Ev
wG:__ZN7mecanim13CopyValueMaskILb0EEEvPKNS_14ValueArrayMaskEPS1_
yx:__ZN9Animation20GetClipLegacyWarningEP13AnimationClip
Eg:_emscripten_glUniform1fv
drl:_Parser_IsIgnoreCase_m2210120858
c4c:__ZN31CollisionModulePropertyBindings13GetFloatValueERK14ParticleSystemi
jWh:_SecurityPermission_IsSubsetOf_m545000671
oCc:__Z39Quaternion_CUSTOM_INTERNAL_CALL_InverseRK11QuaternionfRS_
CU:__ZN4FMOD7Channel20set3DConeOrientationEP11FMOD_VECTOR
zo:FUNCTION_TABLE_iiifii
qOf:_AssemblyBuilder_not_supported_m1735277432
Kom:__ZN6il2cpp2vm12GenericClass11SetupEventsEP11Il2CppClass
Haf:_tt_delta_interpolate
f8e:_tt_cmap12_get_info
ukm:__ZN6il2cpp2vm15ReboxIReferenceEP14Il2CppIUnknownP11Il2CppClass
vQl:__ZN6il2cpp6icalls8mscorlib6System7Decimal14decimalCompareEP19il2cpp_decimal_reprS5_
jYi:_Dictionary_2_OnDeserialization_m4209543208_gshared
Fum:__ZThn4_N6il2cpp2vm13CachedCCWBaseINS0_13ManagedObjectEE7ReleaseEv
eRd:__ZN5physx26PxcFsComputeJointLoadsSimdERKNS_9PxcFsDataEPKNS_12PxcFsInertiaEPNS_6shdfnd3aos6Mat33VEPKfjjNS_21PxcFsScratchAllocatorE
dP:__ZN29AnimationStateNetworkProvider24GetNetworkAnimationStateER9AnimationP24AnimationStateForNetworki
Mee:__ZN5physx6shdfnd8SyncImpl7getSizeEv
lli:_GameObject_AddComponent_m136524825
xOj:__ZL62SoapMethodAttribute_t1935009310_CustomAttributesCacheGeneratorP21CustomAttributesCache
ymj:__Z100RuntimeInvoker_Void_t1185182177_RuntimeObject_Int32_t2950945753_Int32_t2950945753_UInt16_t2177724958PFvvEPK10MethodInfoPvPS4_
sQm:_glCopyTexImage2D__wrapper
Vnd:__ZN16PhysicsManager2D11CreateWorldERK8Vector2f
O8h:_Double_System_IConvertible_ToUInt32_m271206838
nhl:_WaypointProgressTracker_OnDrawGizmos_m3598730726
yja:__GLOBAL__sub_I_runtime_graphics_billboard_0_cpp
GFf:_FloatTween_TweenValue_m52237061
lad:__Z61Register_UnityEngine_ParticleSystem_EmissionModule_SetEnabledv
LWb:__Z18ClearByDrawingQuad13GfxClearFlagsRK10ColorRGBAffjR17ShaderPassContext
kMa:__ZN6prcoreL17RemapGenericFloatI14TexFormatRHalf15TexFormatRFloatEEvPKNS_9InnerInfoE
klg:_NumberFormatter_FormatExponential_m2139559983
i1b:__Z16ShouldUseShadowsb
Tpa:__ZN15DirectorManager21RebuildStageCallbacksEv
YWb:__ZN19RuntimeSceneManager9LoadSceneERKN4core12basic_stringIcNS0_20StringStorageDefaultIcEEEES6_S6_RK9UnityGUIDiNS_11LoadingModeE
CFa:__ZN7ApiGLES10DrawArraysE16GfxPrimitiveTypejjj
ZR:__ZN10SampleClip13LoadBaseSoundEv
Rvd:__ZN5physx2Gu22gjkRelativePenetrationINS0_17ShrunkConvexHullVES2_EEjRKT_RKT0_RKNS_6shdfnd3aos15PsMatTransformVERKNSA_6FloatVERNSA_5Vec3VESI_SI_RSE_PhSK_Rh
d1f:_SmallXmlParser_SkipWhitespaces_m4243606597
Xbi:_CompareInfo_IndexOf_m2631915198
YOf:_ConstructorBuilder_GetCustomAttributes_m2495332786
D7f:_Byte_CompareTo_m4285128861
nyf:_TriggerEvent__ctor_m87299207
K$:__Z57AudioSource_CUSTOM_INTERNAL_CALL_ClearExtensionPropertiesP12Il2CppObjectRK12PropertyName
KC:__ZN7mecanim9animation4Clip8TransferI19StreamedBinaryWriteILb0EEEEvRT_
Ynm:__ZN15dense_hashtableINSt3__24pairIK10KeyWrapperIP12Il2CppObjectEN6il2cpp2gc9CachedCCWEEES5_NS7_5utils11PointerHashIS3_EEN14dense_hash_mapIS5_S9_SD_NS5_14EqualsComparerINS0_8equal_toIS4_EEEENS0_9allocatorISA_EEE9SelectKeyESI_SK_E15insert_noresizeERKSA_
RJe:__ZN5physx2Sc19ParticlePacketShapeC2ERNS0_17ParticleSystemSimEjPNS_16PxvParticleShapeE
g2i:_EqualityComparer_1__cctor_m3962593840_gshared
Kdb:__ZN22DeviceMVPMatricesStateC2ER9GfxDevice
nXc:__Z9UpdateTplIL27ParticleSystemCurveEvalMode1EEvRK11MinMaxCurveS3_S3_R23ParticleSystemParticlesjjRKN4math8float3x3ERKNS6_7_float4E
M_d:__ZN5physx9NpPhysics18createTriangleMeshERNS_13PxInputStreamE
Oo:FUNCTION_TABLE_iiiiifiiiif
fo:FUNCTION_TABLE_iifii
wjb:__ZNSt3__26vectorI13dynamic_arrayI8Vector2fLj4EENS_9allocatorIS3_EEE6assignINS_11__wrap_iterIPS3_EEEENS_9enable_ifIXaasr21__is_forward_iteratorIT_EE5valuesr16is_constructibleIS3_NS_15iterator_traitsISC_E9referenceEEE5valueEvE4typeESC_SC_
Wgb:__ZN21EnlightenSceneMapping8TransferI14SafeBinaryReadEEvRT_
bcm:__ZN6il2cpp2vm10Reflection12HasAttributeEP9FieldInfoP11Il2CppClass
Pn:FUNCTION_TABLE_iiffi
Xc:invoke_viiifi
NXf:_MonoProperty_GetCustomAttributes_m3619796755
dOe:__ZN5physx6shdfnd5ArrayIPNS_7PxActorENS0_19ReflectionAllocatorIS3_EEE8recreateEj
ahh:_MethodDictionary_System_Collections_IEnumerable_GetEnumerator_m4169036899
JXa:__ZNK11AssetBundle14GetPreloadDataEiR13dynamic_arrayIiLj4EE
jSh:_RIPEMD160Managed_JJJ_m4161373884
g0i:_DefaultComparer_Equals_m3257444875_gshared
dg:_JS_Sound_SetPosition
x9a:__ZN19RenderBufferManager13GetTempBufferEii17DepthBufferFormat19RenderTextureFormatj22RenderTextureReadWrite14VRTextureUsagei23RenderTextureMemoryless
a$l:__ZL13GetSharedInstPK17Il2CppGenericInst
_Wl:__ZNK15dense_hashtableINSt3__24pairIK10KeyWrapperIPKcEP11Il2CppClassEES5_N6il2cpp5utils11StringUtils12StringHasherIS4_EEN14dense_hash_mapIS5_S8_SE_NS5_14EqualsComparerINSB_13VmStringUtils21CaseSensitiveComparerEEENS0_9allocatorIS9_EEE9SelectKeyESJ_SL_E3endEv
k8b:__Z17PrepareSceneNodesP11CullResults
ISg:_InternalEnumerator_1_get_Current_m476140818_gshared
i2d:__ZNK5physx7NpCloth14getNbParticlesEv
IGd:__ZN5physx2Sc10NPhaseCore24releaseShapeInstancePairEPNS0_19ShapeInstancePairLLEjj
W6b:__Z24SetupActiveLightsContextR21ActiveLightingContextRK12ActiveLightsRK11CullResultsP14ShadowMapCacheRK10MinMaxAABB
iEc:__Z38Sprite_CUSTOM_INTERNAL_get_textureRectP12Il2CppObjectP5RectTIfE
Pam:__ZNK15dense_hashtableINSt3__24pairIK10KeyWrapperIPK22Il2CppGenericParameterEPK24MonoGenericParameterInfoEES6_N6il2cpp5utils11PointerHashIS4_EEN14dense_hash_mapIS6_SA_SF_NS6_14EqualsComparerINS0_8equal_toIS5_EEEENS0_9allocatorISB_EEE9SelectKeyESK_SM_E3endEv
Jwc:__ZN9TextAsset7SetTextERKN4core12basic_stringIcNS0_20StringStorageDefaultIcEEEE
o2a:__ZN6Camera8TransferI24GenerateTypeTreeTransferEEvRT_
Xa:invoke_iiiiiiif
Qa:invoke_iiiiiiii
$qk:_Array_InternalArray__set_Item_TisByte_t1134296376_m3104140039_gshared
eti:_Rect_ToString_m447614148
tkl:_PKCS12_GetBytes_m415958948
mac:__ZN8Renderer17PendingAddToSceneEv
FWd:__ZN5physx7NpActor18releaseConstraintsERNS_12PxRigidActorE
ECd:__ZN5physx6shdfnd5ArrayINS_11PxDebugLineENS0_19ReflectionAllocatorIS2_EEE8recreateEj
rSm:b125
qSm:b124
FSm:b127
CSm:b126
HSm:b129
rDc:__Z52Register_UnityEngine_RectTransform_INTERNAL_get_rectv
gaa:__Z21PostprocessStacktracePKcRN4core12basic_stringIcNS1_20StringStorageDefaultIcEEEE
Ymi:_ManagedStreamHelpers_ManagedStreamLength_m2930872960
Otb:__ZN18StreamedBinaryReadILb0EE21TransferSTLStyleArrayI13dynamic_arrayI16SplashScreenLogoLj4EEEEvRT_17TransferMetaFlags
xce:__ZNK5physx14NpRigidDynamic25getContactReportThresholdEv
hrg:_FileStreamAsyncResult_CBWrapper_m1670848754
yzc:__Z47Register_UnityEngine_Camera_get_allCamerasCountv
ipf:__ZN22BaseUnityConnectClient20StartEventDispatcherEv
Ssc:__ZNSt3__26vectorIj13stl_allocatorIjL18MemLabelIdentifier1ELi16EEE6assignIPKtEENS_9enable_ifIXaasr21__is_forward_iteratorIT_EE5valuesr16is_constructibleIjNS_15iterator_traitsIS9_E9referenceEEE5valueEvE4typeES9_S9_
JL:__ZN7mecanim9animation16EvaluateAvatarIKEPKNS0_14AvatarConstantEPKNS0_11AvatarInputEPNS0_12AvatarOutputEPNS0_12AvatarMemoryEPNS0_15AvatarWorkspaceEb
DI:__ZN26AnimatorControllerPlayable10GetIntegerEiRi
tFe:__Z22updateIslandsToProcessRKN5physx2Cm10BitMapBaseINS_6shdfnd9AllocatorEEEPKjRKNS_11NodeManagerERS4_
J_b:__ZN12InputManager13InputEndFrameEv
sdd:__ZN15b2RevoluteJointC2EPK18b2RevoluteJointDef
Doi:_Object_get_name_m4211327027
RIm:dynCall_viififfii
Pfm:__ZN6il2cpp2vm6Thread5SetupEP12Il2CppThread
DRe:__ZN8Collider30GetRelativePositionAndRotationERK9TransformR10Matrix4x4f
Yse:__ZN5physx35PxcSweepEstimateAnyShapeHeightfieldERKNS_11PxsCCDShapeES2_PKNS_12PxsRigidBodyES5_RKNS_11PxTransformES8_f
j5g:_Enumerator_System_Collections_IDictionaryEnumerator_get_Key_m2500634048_gshared
ZCd:__ZN5physx3Cct13BoxControllerC2ERKNS_16PxControllerDescERNS_9PxPhysicsEPNS_7PxSceneE
pFm:___munmap
$Fh:_RSAManaged_get_PublicOnly_m595121416
Wg:_localtime_r
P$b:__ZN22RenderingCommandBuffer13GetAndCheckRTE24BuiltinRenderTextureTypeRKN9ShaderLab16FastPropertyNameEPKcPP13RenderTexture
jWc:__ZN14ParticleSystem13KillParticlesILb1EEEvRjbR24ParticleSystemUpdateDataR23ParticleSystemParticlesjPj
toa:__ZN14GfxDoubleCacheIyP17VertexDeclaration14GfxGenericHashIyENSt3__28equal_toIyEEN31GfxDoubleCacheConcurrencyPolicy11LocklessGetE42GfxDoubleCacheDefaultEmptyDeletedGeneratorIyEEC2Ev
p6c:__Z16UpdateSpritesTplIL27ParticleSystemCurveEvalMode3EEvfRK11MinMaxCurveS3_RK23ParticleSystemParticlesPf
C6:__Z19free_alloc_internalPv10MemLabelId
$Mi:_UTF32Decoder_GetChars_m1925558948
Zg:_strftime
JQa:__ZN7Texture33SetStoredColorSpaceNoDirtyNoApplyE17TextureColorSpace
CZf:_ResourceSet__ctor_m3618395942
K5h:_Decimal_System_IConvertible_ToDouble_m3125524987_AdjustorThunk
hda:__ZN12FileAccessorD2Ev
C6a:__ZN14VertexDataInfoC2Ev
nrm:__ZN6il2cpp2gc16GarbageCollector14CollectALittleEv
Mpc:__ZNK9HPlayable15GetPlayableTypeEv
uOb:__ZL17Transfer_GUIStyleI18StreamedBinaryReadILb1EELb1EEvRK29SerializationCommandArgumentsR31RuntimeSerializationCommandInfo
fWc:__ZNSt3__227__insertion_sort_incompleteIR31SortCollisionEventsByGameObjectP22ParticleCollisionEventEEbT0_S5_T_
Kth:_RectMask2D_IsRaycastLocationValid_m1652308696
V1l:__ZN6il2cpp6icalls8mscorlib6SystemL9IsPrivateEPK12PropertyInfo
Ckl:_X501_ToString_m1148552872
cte:__ZNK5physx18PxcConvexTriangles16getPolygonNormalEj
Vti:_RectTransform_add_reapplyDrivenProperties_m1374850920
Gla:__ZN9shadertag10InitializeEv
v1b:__ZN13BatchRenderer20RenderSingleWithPassER17ShaderPassContextPK18SharedMaterialDataP6ShaderPN9ShaderLab4PassEiPKNS7_10GrabPassesEjib15BatchBreakCause
QXe:__ZN5physx24NpPtrTableStorageManager8canReuseEjj
kib:__ZN15QualitySettings14QualitySetting8TransferI24GenerateTypeTreeTransferEEvRT_
qjm:__ZN6il2cpp6icalls8mscorlib6System13Globalization11CultureInfo25construct_datetime_formatEP17Il2CppCultureInfo
nhe:__ZN5physx2Sc27ConstraintProjectionManager33processConstraintForGroupBuildingEPNS0_13ConstraintSimERNS0_20ScratchAllocatorListIS3_Lj64EEE
eVe:__ZN5Unity11SpringJoint5ResetEv
mGc:__Z44Register_UnityEngine_Object_DestroyImmediatev
iig:_Convert_ToSingle_m835189399
drc:__ZN22BlockMemoryCacheWriter14LockCacheBlockEjPPhS1_
sfe:__ZN5physx2Cm29ConstraintImmediateVisualizer19visualizeDoubleConeERKNS_11PxTransformEfb
TQc:__Z22TransferField_NonArrayI8JSONRead27Converter_SimpleNativeClassI8GUIStyleEEvRK23StaticTransferFieldInfoR31RuntimeSerializationCommandInfoRT0_
rqd:__ZN5physx6shdfnd5ArrayINS_13PxExtendedBoxENS0_19ReflectionAllocatorIS2_EEE8recreateEj
Gye:__ZN5physx20ProcessBPResultsTask11runInternalEv
SKd:__ZN5physx6shdfnd5ArrayIPvNS0_19ReflectionAllocatorINS_2Cm5BlockIS2_Lj16EEEEEE4copyINS0_15InlineAllocatorILj256ES7_EEEEvRKNS1_IS2_T_EE
tgl:_TimedObjectActivator_Deactivate_m3770674844
Eh:_llvm_eh_typeid_for
xic:__Z13RegisterClassI10GameObjectEvv
Kgh:_RemotingServices_FindInterfaceMethod_m2125212568
MJ:__ZNK23AnimationPlayableOutput7GetTypeEv
Vhe:__ZN5physx7NpScene19getActiveTransformsERjh
ftg:_StreamWriter__cctor_m1229272693
tHe:__ZN5physx6shdfnd5ArrayIPKNS_24PxsIndexedContactManagerENS0_19ReflectionAllocatorIS4_EEE8recreateEj
F9h:_Enum_System_IConvertible_ToSByte_m779472798
R2:__Z7ToUpperIN4core12basic_stringIcNS0_20StringStorageDefaultIcEEEEET_RKS5_
IQb:__Z18Transfer_BlittableI18StreamedBinaryReadILb0EELb1E8Vector4fEvRK29SerializationCommandArgumentsR31RuntimeSerializationCommandInfo
T$i:_Dictionary_2_U3CCopyToU3Em__0_m2023886030_gshared
rbl:_CrossPlatformInputManager_RegisterVirtualAxis_m2847520121
eTm:_glBindVertexArray__wrapper
BQe:__ZN5physx6shdfnd5ArrayINS_11RTreeNodeNQENS0_19ReflectionAllocatorIS2_EEE19resizeUninitializedEj
EHd:__ZNK5physx2Sc16InteractionScene18getLLIslandManagerEv
olh:_SerializationInfo__ctor_m2923079689
pJd:__ZN5physx2Gu21intersectSphereConvexERKNS0_6SphereERKNS0_10ConvexMeshERKNS_11PxMeshScaleERKNS_11PxTransformEPNS_6PxVec3E
lcb:__ZN8Material8TransferI14SafeBinaryReadEEvRT_
Bse:__ZN5physx17PxcNpMemBlockPool34acquireExceptionalConstraintMemoryEj
xeb:__ZN12CubemapArray17UploadToGfxDeviceEv
hkg:_Int32_JumpOverWhite_m208298144
Nte:__ZN5physxL23PxcSweepConvexTrianglesERKNS_11PxsCCDShapeES2_RKNS_11PxTransformES5_S5_S5_fRNS_6PxVec3ES7_RNS_10PxcNpCacheERNS_18PxcNpThreadContextERKNS_2Cm23FastVertex2ShapeScalingERNS_2Gu9TriangleVEf
m0d:__ZNK5physx7NpShape16getPlaneGeometryERNS_15PxPlaneGeometryE
Sxj:__Z53RuntimeInvoker_Int32_t2950945753_UIVertex_t4057497605PFvvEPK10MethodInfoPvPS4_
WRm:_emscripten_glGetUniformiv__wrapper
tFk:_Collection_1_Add_m1269373195_gshared
fB:__ZNSt3__26vectorI24CompressedAnimationCurve13stl_allocatorIS1_L18MemLabelIdentifier26ELi16EEE6assignINS_11__wrap_iterIPS1_EEEENS_9enable_ifIXaasr21__is_forward_iteratorIT_EE5valuesr16is_constructibleIS1_NS_15iterator_traitsISB_E9referenceEEE5valueEvE4typeESB_SB_
LQe:__ZN5physx27InternalTriangleMeshBuilder14fillRemapTableEv
vS:__ZN11AudioSource4StopEb
dPd:__ZN5physx6shdfnd8PoolBaseINS_13NpRigidStaticENS0_19ReflectionAllocatorIS2_EEE17releaseEmptySlabsEv
oGb:__ZN14SafeBinaryRead21TransferSTLStyleArrayI13dynamic_arrayI10Matrix4x4fLj4EEEEvRT_17TransferMetaFlags
b3a:__ZN15LODGroupManager26CollectAllLODGroupManagersERK16CoreCameraValuesR13dynamic_arrayIPS_Lj4EEb
iTa:__ZN18GlslGpuProgramGLESD2Ev
Bcc:__ZN13RenderTexture14SetVolumeDepthEi
KWe:__ZThn116_NK5physx7profile8ZoneImplINS_28PxProfileNameProviderForwardEE10hasClientsEv
WBe:__ZN5physx2Gu20pcmContactCapsuleBoxERKNS0_13GeometryUnionES3_RKNS_11PxTransformES6_RKfRNS0_5CacheERNS0_13ContactBufferE
Qlj:__Z86RuntimeInvoker_Void_t1185182177_UInt16_t2177724958_SByte_t1669577662_SByte_t1669577662PFvvEPK10MethodInfoPvPS4_
Fya:__Z22LoadGpuProgramFromDataPKhS0_Rj
xRc:__ZN10Matrix4x4f8TransferI8JSONReadEEvRT_
Rcf:__ZN14SafeBinaryRead21TransferSTLStyleArrayI13dynamic_arrayIN4core17string_with_labelILi35EEELj4EEEEvRT_17TransferMetaFlags
uth:_PositionAsUV1_ModifyMesh_m4231919476
idg:_Hashtable__ctor_m1941859523
Hpg:_MonoIO_DeleteFile_m3839141322
z8:__ZN17PersistentManager18ReadObjectThreadedEi
_Pa:__ZN25TransformFeedbackSkinning31CleanupTransformFeedbackShadersEv
R2a:__Z22scripting_object_unbox18ScriptingObjectPtr
Xdf:__ZNK20TextRenderingPrivate8FontImpl19GetCharacterAdvanceEjijfPj
QHi:_Array_InternalArray__ICollection_Add_TisUriScheme_t722425697_m3142345403_gshared
NDm:_fmt_u
Zjb:__ZN10VertexData8TransferI18StreamedBinaryReadILb0EEEEvRT_
TOd:__ZN5physx2Sc5Scene9addStaticERNS0_10StaticCoreEPKPvjj
OCm:__ZN6il2cpp8metadata25Il2CppGenericClassCompare7CompareEPK18Il2CppGenericClassS4_
Xwg:_MonoType_get_Assembly_m4290914179
zza:__ZN9ShaderLab7ProgramC2E10MemLabelIdi10ShaderType
Ncc:__ZN14PreloadManager16UpdatePreloadingEv
q_c:__ZN11NoiseModule8TransferI14SafeBinaryReadEEvRT_
Boe:__ZN5physx2Sc5Scene9addShapesEPKPvjjRNS0_8RigidSimEPNS_12PxsRigidBodyERPNS0_8ShapeSimEPNS_9PxBounds3E
$rk:_Array_InternalArray__set_Item_TisUILineInfo_t4195266810_m2313892078_gshared
iqi:_PlayableAsset__ctor_m2395156306
MAe:__ZN5physx23PxcPCMContactConvexMeshERKNS_2Gu13GeometryUnionES3_RKNS_11PxTransformES6_RKfRNS_10PxcNpCacheERNS0_13ContactBufferE
B5:__ZNK21UnityDefaultAllocatorI17LowLevelAllocatorE8ContainsEPKv
Yyg:_RuntimeTypeHandle_Equals_m2857439487
Oi:_emscripten_get_main_loop_timing
I3k:_List_1_GetEnumerator_m3345352722_gshared
Z_f:_SafeHandle_Finalize_m3866180675
jib:__ZN24GenerateTypeTreeTransfer21TransferSTLStyleArrayINSt3__26vectorIN15QualitySettings14QualitySettingENS1_9allocatorIS4_EEEEEEvRT_17TransferMetaFlags
Tqb:__ZNSt3__26vectorI14SubstanceInputNS_9allocatorIS1_EEE8__appendEj
Krg:_MemoryStream_ToArray_m3911744835
K4g:_Enumerator_System_Collections_IDictionaryEnumerator_get_Entry_m859540448_AdjustorThunk
lSi:_Type_GetHashCode_m1947148725
_gj:__Z91RuntimeInvoker_Void_t1185182177_RuntimeObject_RuntimeObject_RuntimeObject_SByte_t1669577662PFvvEPK10MethodInfoPvPS4_
Yyb:__ZNK2UI13RectTransform22GetTypeVirtualInternalEv
JTc:__ZNK15PolynomialCurve18EvaluateIntegratedERKN4math7_float4E
Tq:getTempRet0
_4c:__ZN26SizeModulePropertyBindings13GetFloatValueERK14ParticleSystemi
oxf:_BaseRaycaster_OnEnable_m2678466030
W3g:_Enumerator_get_CurrentKey_m627428048_AdjustorThunk
zki:_UnityEventBase__ctor_m1851535676
luk:_Array_Sort_TisVector4_t3319028937_m2797285308_gshared
RLg:_HandshakeMessage_Update_m2417837686
tPl:_Physics_RaycastAll_m3796226007
lhm:__ZN6il2cpp6icalls8mscorlib6System9ThreadingL21lookup_cached_cultureEP12Il2CppThreadi
Iym:__ZN6il2cpp2os11EventHandleD2Ev
Wji:_NetFxCoreExtensions_CreateDelegate_m751211712
N7b:__ZN18DeferredRenderLoopD2Ev
ONl:_AnimationLayerMixerPlayable__cctor_m4086299972
tea:__ZNK16TypeTreeIterator4NameEv
Hca:__ZN15FileSystemEntry3SetEPKc
lfl:_FOVKick_CheckStatus_m344213442
PHe:__ZN5physx6shdfnd5ArrayIPNS_13PxcNpMemBlockENS0_19ReflectionAllocatorIS3_EEE6resizeEjRKS3_
kCh:_BigInteger_ToString_m570257729
QKk:_ReadOnlyCollection_1_System_Collections_Generic_IListU3CTU3E_Insert_m568455025_gshared
lU:__ZN20SoundChannelInstance15ParameterBuffer5ApplyEPN4FMOD7ChannelE
ZJh:_IPv6Address__ctor_m4117281080
Udf:__ZN20TextRenderingPrivate19NativeTextGenerator9InsertTabEv
fIm:_sbrk
aXc:__Z13DragUpdateTplIL27ParticleSystemCurveEvalMode2EEvRK11MinMaxCurvebbR23ParticleSystemParticlesjjRKN4math7_float4E
Grj:__Z66RuntimeInvoker_Boolean_t97287965_Vector2_t2156229523_RuntimeObjectPFvvEPK10MethodInfoPvPS4_
tVc:__ZN14ParticleSystem12StartModulesER24ParticleSystemUpdateDataRK27ParticleSystemEmissionStatebRK8Vector3fRK10Matrix4x4fR23ParticleSystemParticlesjRKffjfjRjb
zXk:_Enumerator_VerifyState_m3474272061_AdjustorThunk
JSl:_ParticleCollisionEvent_get_velocity_m1941659151
qWe:__ZN5physx7profile8ZoneImplINS_28PxProfileNameProviderForwardEE21setProfileZoneManagerEPNS_20PxProfileZoneManagerE
d8i:_Enumerator_MoveNext_m1131351993_AdjustorThunk
Lpf:__ZN11UnityEngine15PlatformWrapper24GetRuntimePlatformStringEv
yj:_glIsEnabled
zAd:__ZN5physx3Cct17CapsuleController15setFootPositionERKNS_14PxExtendedVec3E
Xxd:__ZN5physx2Gu33PCMCapsuleVsMeshContactGeneration13generateEEMTDERKNS_6shdfnd3aos5Vec3VES6_RKNS3_6FloatVES6_jS6_S6_PNS0_21MeshPersistentContactERj
vOf:_DerivedType__ctor_m1853298054
dFb:__Z25scripting_class_get_image17ScriptingClassPtr
g_k:_List_1_RemoveAt_m2730968292_gshared
vvb:__ZNSt3__26vectorIN4core12basic_stringIcNS1_20StringStorageDefaultIcEEEE13stl_allocatorIS5_L18MemLabelIdentifier13ELi16EEEC2INS_11__wrap_iterIPS5_EEEET_SE_RKS8_PNS_9enable_ifIXaasr21__is_forward_iteratorISE_EE5valuesr16is_constructibleIS5_NS_15iterator_traitsISE_E9referenceEEE5valueEvE4typeE
Cj:_emscripten_glDrawElementsInstanced
zI:__ZN26AnimatorControllerPlayable27SetupStateMachineBehavioursEv
Iqh:_LayoutGroup_get_preferredWidth_m3816902260
J4a:__ZN18JobBatchDispatcherD2Ev
Tyb:__ZN9Transform17MainThreadCleanupEv
pxm:_GC_clear_hdr_marks
G7c:__Z17UpdateSprites2TplIL27ParticleSystemCurveEvalMode1ELS0_4EEvfRK11MinMaxCurveS3_RK23ParticleSystemParticlesPf
c2e:_cff_fd_select_get
dzh:_Text_set_resizeTextForBestFit_m4095249125
uO:__Z13RegisterClassI18AnimatorControllerEvv
gMh:_OidEnumerator_MoveNext_m3138911739
Nj:_emscripten_glGetShaderiv
lV:__ZN4FMOD6System10getVersionEPj
KIe:__ZN5physx2Sc7BodySim10sleepCheckEffb
xhf:__ZN2UI6Canvas23VirtualRedirectTransferER24GenerateTypeTreeTransfer
eLm:dynCall_viiiififfi
mxh:_Selectable_set_animationTriggers_m2970345687
$Oc:__ZN9JSONWrite8TransferIN4math12int2_storageEEEvRT_PKc17TransferMetaFlags
Dcf:__ZN13TextRendering4Font13AwakeFromLoadE17AwakeFromLoadMode
bci:_CompareInfo_LastIndexOf_m2688553706
ATm:_emscripten_glCullFace__wrapper
QBa:__ZN9GfxDevice21ReleaseSharedMeshDataEP14SharedMeshData
Cgl:_U3CActivateU3Ec__Iterator0_Reset_m400575498
eAf:_MouseState__ctor_m1467839005
Wrl:_Uri_IsDomainAddress_m2867513594
Esb:__ZNSt3__27__sort5IRNS_6__lessINS_4pairIPKN5Unity4TypeE7Hash128EES8_EEPS8_EEjT0_SC_SC_SC_SC_T_
mHf:_Dropdown_CreateItem_m2954407740
wwm:_GC_unreachable_finalize_mark_proc
DNh:_X509Chain_ProcessCrlExtensions_m236234529
Ug:___syscall192
t$c:__ZN13dynamic_arrayI27ParticleSystemEmissionBurstLj4EE18resize_initializedEj12ResizePolicy
eGi:_Array_InternalArray__IndexOf_TisLabelData_t360167391_m1826525656_gshared
n0c:__ZN11ShapeModule18MultiModeParameterIN25IParticleSystemProperties8PropertyIfNS1_5ClampILi0ELi360EEEEEE8TransferI24GenerateTypeTreeTransferEEvRT_
jDc:__Z43RectTransform_CUSTOM_INTERNAL_get_anchorMaxP12Il2CppObjectP13Vector2fIcall
nXd:__ZN5physx14NpShapeManagerC2Ev
gdh:_RemotingConfiguration_RegisterChannelTemplate_m3105688054
j5h:_Decimal_Parse_m942471224
Ggb:__ZN8Material28UpdateHashesOnPropertyChangeEN9ShaderLab16FastPropertyNameE
DKj:__ZL56MethodBuilder_t2807316753_CustomAttributesCacheGeneratorP21CustomAttributesCache
bEc:__Z53Register_UnityEngine_SortingLayer_GetLayerValueFromIDv
AFg:_ASN1_GetBytes_m1968380955
XDb:__Z18Transfer_BlittableI14SafeBinaryReadLb1E8Vector4fEvRK29SerializationCommandArgumentsR31RuntimeSerializationCommandInfo
oCf:_AspectRatioFitter_SetDirty_m2910185270
wX:__ZN11AudioSource12AddToManagerEv
lD:__ZN8Animator23VirtualRedirectTransferER19StreamedBinaryWriteILb0EE
gK:__ZN11UnityEngine9Animation32CreateAnimatorGenericBindingsOptERKNS0_20AnimationSetBindingsER9TransformPKN7mecanim9animation14AvatarConstantEPKNS0_21AvatarBindingConstantEbRNS6_6memory9AllocatorER8Animator
plm:__ZN6il2cpp2vm5Image13ClassFromNameEPK11Il2CppImagePKcS6_
cJm:dynCall_vdddddd
owa:__ZN24GenerateTypeTreeTransfer21TransferSTLStyleArrayINSt3__26vectorIN9ShaderLab14SerializedPassENS1_9allocatorIS4_EEEEEEvRT_17TransferMetaFlags
ema:__ZL32MarkLevelGameManagerDependenciesR27GarbageCollectorThreadState
mEa:__ZNK13GfxDeviceGLES26HasActiveRandomWriteTargetEv
Ffm:__GLOBAL__sub_I_Thread_cpp
fHj:__ZL54_MemberInfo_t3922476713_CustomAttributesCacheGeneratorP21CustomAttributesCache
zOm:_glGetActiveUniformsiv__wrapper
_Dc:__Z43Register_UnityEngine_Material_EnableKeywordv
Vpd:__ZNK5physx3Cct10Controller16getInternalStateERNS_17PxControllerStateE
Hoi:_Mesh_GetIndices_m2873123901
T9:__ZN13MonoBehaviour19SetupScriptingCacheE17ScriptingClassPtrP10MonoScript
Oy:__Z20AnimationEventToMonoRK14AnimationEventR18MonoAnimationEvent
Ytj:__Z106RuntimeInvoker_Void_t1185182177_Single_t1397266774_Single_t1397266774_Single_t1397266774_Int32_t2950945753PFvvEPK10MethodInfoPvPS4_
g9:__ZN17PersistentManager29ReadAndActivateObjectThreadedEiRK26SerializedObjectIdentifierP14SerializedFilebb
Uzf:_PointerEventData_get_dragging_m746831934
Bne:__ZN5physx10PxsContext15setScratchBlockEPvj
bRk:_ReadOnlyCollection_1_System_Collections_IEnumerable_GetEnumerator_m2781605075_gshared
Hpa:__ZZN15DirectorManager15InitializeClassEvEN52PreLateUpdateDirectorUpdateAnimationBeginRegistrator7ForwardEv
gAi:_Array_get_swapper_TisCustomAttributeNamedArgument_t287865710_m4254011335_gshared
qJf:_Graphic_RegisterDirtyMaterialCallback_m106898453
ezl:_GUILayoutEntry_get_margin_m3174861737
gGd:__ZN5physx2Cm27getDynamicGlobalPoseAlignedERKNS_11PxTransformES3_S3_RS1_
Tkm:__ZNK15dense_hashtableINSt3__24pairIK10KeyWrapperINS1_IPKcS4_EEEiEES6_24NamespaceAndNamePairHashN14dense_hash_mapIS6_iS9_NS6_14EqualsComparerI26NamespaceAndNamePairEqualsEENS0_9allocatorIS8_EEE9SelectKeyESD_SF_E13find_positionERS7_
vve:__ZN5physx12solve1DBlockEPKNS_23PxcSolverConstraintDescEjRNS_16PxcSolverContextE
sOe:__ZN5physx6shdfnd5ArrayIPvNS0_19ReflectionAllocatorIN17PxcPoolMallocData10PoolData32EEEE15growAndPushBackERKS2_
Rua:__ZNSt3__26vectorIN9ShaderLab20SerializedSubProgram13BufferBindingENS_9allocatorIS3_EEEC2INS_11__wrap_iterIPS3_EEEET_SB_RKS5_PNS_9enable_ifIXaasr21__is_forward_iteratorISB_EE5valuesr16is_constructibleIS3_NS_15iterator_traitsISB_E9referenceEEE5valueEvE4typeE
YKi:_Encoding_get_ISOLatin1_m2107621369
zed:__ZNK16PhysicsManager2D21GetAutoSyncTransformsEv
knc:__ZZL23RegisterLightPropertiesR22GenericPropertyBindingEN20Wrapper_LightColorb213GetFloatValueEPv
Zcd:__ZN12b2WheelJoint24SolveVelocityConstraintsERK12b2SolverData
ngb:__ZN9Texture2D23VirtualRedirectTransferER18StreamedBinaryReadILb0EE
eld:__ZN10Collider2D8TransferI24GenerateTypeTreeTransferEEvRT_
B1h:_DateTime_System_IConvertible_ToDouble_m2116720007_AdjustorThunk
Ubg:_BitArrayEnumerator__ctor_m2359341397
JVk:_Enumerator_MoveNext_m1177880931_gshared
C6j:__ZL73g_UnityEngine_TextRenderingModule_Assembly_CustomAttributesCacheGeneratorP21CustomAttributesCache
pba:__ZN16ScriptingManager27NativeTypeForScriptingClassE17ScriptingClassPtr
WUi:_UInt64_System_IConvertible_ToDateTime_m3434604642
TRi:_Type_get_IsSerializable_m1040556850
S6e:_get_sfnt_table
Ori:_Random_INTERNAL_get_onUnitSphere_m797556502
Fic:__Z13RegisterClassI5LightEvv
cLb:__Z29Transfer_Blittable_ArrayFieldI24GenerateTypeTreeTransferiEvRT_R9ArrayInfoRK23StaticTransferFieldInfo
g9b:__ZL22ScheduleSceneNodesJobsP25ScheduleSceneNodesJobDataj
ewe:__ZN5physx22concludeContactCoulombERKNS_23PxcSolverConstraintDescERNS_16PxcSolverContextE
El:_emscripten_set_canvas_size
uIf:_Graphic_SetVerticesDirty_m2124914069
z7d:__ZNK5physx15NpParticleFluid12getStiffnessEv
eci:_CultureInfo__ctor_m3285927757
xsh:_MaskableGraphic_get_rootCanvasRect_m3492154629
Zsk:_Array_Resize_TisRaycastResult_t3360306849_m1811054291_gshared
kva:__ZNSt3__26vectorIN9ShaderLab20SerializedSubProgramENS_9allocatorIS2_EEE8__appendEj
j6:__ZN20DynamicHeapAllocatorI17LowLevelAllocatorE8AllocateEji
rnf:__ZN11UnityEngine9Analytics15UserCustomEvent12ToJsonStringER9JSONWrite
CAl:_Locale_GetText_m2427493201
a2b:__ZN20DynamicPropertySheet15SetVectorQueuedERKN9ShaderLab16FastPropertyNameERK8Vector4fN19ShaderPropertySheet8SetFlagsE
UK:__ZN7mecanim9animation22EvaluateAvatarRetargetEPKNS0_14AvatarConstantEPKNS0_11AvatarInputEPNS0_12AvatarOutputEPNS0_12AvatarMemoryEPNS0_15AvatarWorkspaceEb
q8a:__ZN14RenderSettings23VirtualRedirectTransferER19StreamedBinaryWriteILb0EE
yNc:__ZL26Transfer_SimpleNativeClassI9JSONWrite10RectOffsetLb0EEvRK29SerializationCommandArgumentsR31RuntimeSerializationCommandInfo
Qwm:_GC_push_conditional
Enf:__ZN21UnityAnalyticsManager23VirtualRedirectTransferER24GenerateTypeTreeTransfer
pIa:__ZN17GenericDynamicVBO10AllocateVBEjR21DynamicVBOChunkHandle
kAe:__ZL27PxcTestFacesSepAxesBackfaceRKN5physx2Gu13PolygonalDataES3_RKNS_2Cm8Matrix34ES7_RKNS4_23FastVertex2ShapeScalingESA_S7_RKNS_6PxVec3ERfRSB_RjPjSG_fSD_
_4h:_DBNull_ToString_m3638608738
qmm:__ZN30dense_hashtable_const_iteratorI10KeyWrapperIP18Il2CppGenericClassES3_N6il2cpp8metadata22Il2CppGenericClassHashEN14dense_hash_setIS3_S6_NS3_14EqualsComparerINS5_25Il2CppGenericClassCompareEEENSt3__29allocatorIS3_EEE8IdentityESA_SD_EppEv
Rbg:_BitArray_Clone_m3537018332
Skh:_ObjectRecord_UnchainFixup_m3191243952
Ail:_TlsStream_get_CanWrite_m16389328
Cwk:_Array_InternalArray__get_Item_TisDouble_t594665363_m850827605_gshared
bm:_glMapBufferRange
fgb:__ZN9Texture2D8TransferI18StreamedBinaryReadILb0EEEEvRT_
xBc:__Z31Input_CUSTOM_GetMouseButtonDowni
Upc:__ZN13PlayableGraph4PlayEv
kpc:__Z29AddCanvasIntermediateRendererPN2UI6CanvasEPNS_13CanvasBuffersEP17VertexDeclarationjRK10Matrix4x4ftRK4AABB4PPtrI8MaterialEi17ShadowCastingModebP6Camerab
o0b:__ZNK9Transform16GetLocalPositionEv
_wg:_MonoType_get_BaseType_m1098640416
s1d:__ZN5physx6shdfnd5ArrayItNS0_19ReflectionAllocatorItEEE8recreateEj
Til:_TlsStream_Read_m3392972801
Exe:__ZN5physx16PxsBroadPhaseMBP9updatePPUEPNS_10PxBaseTaskE
xEa:__ZN13GfxDeviceGLES22DispatchComputeProgramE12ObjectHandleI18ComputeProgram_TagPvE15ComputeBufferIDj
FLi:_Latin1Encoding_GetString_m254210343
_wb:__Z17TransformAABBSlowRK4AABBRK10Matrix4x4fRS_
p4f:_Array_combsort_m4052486289
Hjb:__ZN15SerializeTraitsI13dynamic_arrayI12SpriteVertexLj4EEE19ResizeSTLStyleArrayERS2_i
Hta:__ZN9ShaderLab21SerializedShaderState8TransferI14SafeBinaryReadEEvRT_
uai:_Environment_GetWindowsFolderPath_m1738399646
pNe:__ZN5physx2Gu13RTreeMidphaseC2Ev
d3e:_cf2_stack_pushInt
MK:__ZN8Animator19FireAnimationEventsERNS_11AnimatorJobE
I9d:__ZN5physx6shdfnd8PoolBaseINS_16NpParticleSystemENS0_19ReflectionAllocatorIS2_EEE12allocateSlabEv
CVf:_Module_GetCustomAttributes_m76573271
sAg:_CryptoConfig_EncodeOID_m2635914623
qwa:__ZN15SerializeTraitsINSt3__24pairIN4core12basic_stringIcNS2_20StringStorageDefaultIcEEEES6_EEE8TransferI24GenerateTypeTreeTransferEEvRS7_RT_
YPm:b89
NOm:b88
tNm:b81
sNm:b80
VQa:__ZN7ApiGLES19CreateSparseTextureEjj14GraphicsFormatiiiiRiS1_S1_
Zba:__ZN18ResourceImageGroup7CleanupEv
IOm:b85
WId:__ZN5physx2Gu36closestPtPointTetrahedronTesselationEPNS_6shdfnd3aos5Vec3VES4_S4_RjRS3_S6_
MOm:b87
w$h:_String_CharCopy_m3838781968
zAe:__ZN5physx25PxcPCMContactSphereConvexERKNS_2Gu13GeometryUnionES3_RKNS_11PxTransformES6_RKfRNS_10PxcNpCacheERNS0_13ContactBufferE
Phh:_RemotingSurrogateSelector_GetSurrogate_m3900875713
jIg:_CertificateValidationCallback_Invoke_m1014111289
o9a:__ZN8Playable19SetOutputConnectionEPS_i
tWl:__ZN15dense_hashtableINSt3__24pairIK10KeyWrapperIPK11Il2CppClassEPKcEES6_N6il2cpp5utils11PointerHashIS3_EEN14dense_hash_mapIS6_S9_SE_NS6_14EqualsComparerINS0_8equal_toIS5_EEEENS0_9allocatorISA_EEE9SelectKeyESJ_SL_EC2ERKSO_j
Rm:_glDeleteShader
sMa:__ZN6prcoreL17RemapGenericFloatI15TexFormatRGHalf16TexFormatRGFloatEEvPKNS_9InnerInfoE
Ytk:_Array_Sort_TisUICharInfo_t75501106_m128665067_gshared
w5e:_otv_GSUB_validate
kTh:_RSAPKCS1SignatureDeformatter_SetHashAlgorithm_m1602190713
x9h:_Enum_System_IConvertible_ToByte_m1219166845
EZd:__ZN5physx6shdfnd8PoolBaseINS_10NpMaterialENS0_19ReflectionAllocatorIS2_EEE15disposeElementsEv
_Xi:_Dictionary_2_CopyToCheck_m45332585_gshared
HNf:_ConstructorInfo__cctor_m1016079270
Pwc:__Z27scripting_add_internal_callPKcPKv
c2f:_AppDomain_Load_m4174353770
gnm:__GLOBAL__sub_I_GarbageCollector_cpp
S4g:_Enumerator_MoveNext_m1556953412_AdjustorThunk
ID:__ZN26AnimatorControllerPlayable18SetLayerAutoWeightEv
Mmf:__Z44Register_UnityEngine_Canvas_get_pixelPerfectv
Nlc:__ZN12CubemapArrayC2E10MemLabelId18ObjectCreationMode
Yjf:__ZN2UI14CanvasRenderer12SyncMaterialENS0_8SyncFlagE
rtg:_StreamWriter_Write_m1660535366
NAm:__ZN6il2cpp2vm9Parameter30GetDefaultParameterValueObjectEPK10MethodInfoPK13ParameterInfoPb
yNi:_UTF8Encoding_GetByteCount_m4152118078
kFh:_KeyPairPersistence__CanSecure_m3516574278
Jhj:__Z95RuntimeInvoker_Void_t1185182177_RuntimeObject_RuntimeObject_Int32_t2950945753_SByte_t1669577662PFvvEPK10MethodInfoPvPS4_
SCg:_MD5CryptoServiceProvider_Dispose_m3502499818
SDk:_Collection_1_System_Collections_IList_get_Item_m2422562729_gshared
s4a:__ZN12LightManager28IsLightTransformDataUpToDateEPK5Light
FC:__ZN14AnimationEvent8TransferI19StreamedBinaryWriteILb0EEEEvRT_
IB:__ZN7mecanim9animation9DenseClip8TransferI24GenerateTypeTreeTransferEEvRT_
F7e:_UNITY_tt_face_done_kern
Cqb:__ZN14SafeBinaryRead21TransferSTLStyleArrayINSt3__26vectorI14SubstanceInputNS1_9allocatorIS3_EEEEEEvRT_17TransferMetaFlags
Zmb:__ZN12BoneWeights48TransferI24GenerateTypeTreeTransferEEvRT_
OVb:__Z19scripting_gc_enablev
UZg:_InternalEnumerator_1_get_Current_m2907722321_gshared
QZb:__ZZ23InitPlayerLoopCallbacksvEN41InitializationPlayerUpdateTimeRegistrator7ForwardEv
xwc:__ZN11UTF16StringC2ERKS_10MemLabelId
zXe:__ZN5physx7profile11EventBufferINS_24PxDefaultContextProviderENS_6shdfnd6MutexTINS0_26WrapperReflectionAllocatorIhEEEENS0_14ScopedLockImplIS7_EENS_24PxProfileNullEventFilterEE9stopEventEty
x$g:_InternalEnumerator_1_get_Current_m3792939945_AdjustorThunk
Nlf:__Z55Register_UnityEngine_CanvasRenderer_DisableRectClippingv
ymb:__ZN14SafeBinaryRead21TransferSTLStyleArrayI13dynamic_arrayI11ColorRGBA32Lj4EEEEvRT_17TransferMetaFlags
pUg:_InternalEnumerator_1_System_Collections_IEnumerator_get_Current_m888718134_gshared
Ddj:__Z175RuntimeInvoker_Void_t1185182177_SByte_t1669577662_SByte_t1669577662_SByte_t1669577662_SByte_t1669577662_SByte_t1669577662_SByte_t1669577662_SByte_t1669577662_SByte_t1669577662PFvvEPK10MethodInfoPvPS4_
Api:_Object_Destroy_m3118546832
r2h:_DateTime_FromTicks_m4059645178_AdjustorThunk
Nal:_NewBehaviourScript_Start_m3323668984
mwk:_Array_InternalArray__get_Item_TisClientCertificateType_t1004704908_m2297379651_gshared
hdh:_ConfigHandler_ParseTime_m1787834288
qya:__ZN9ShaderLab7Program27CreateFromSerializedProgramERKNS_17SerializedProgramE10ShaderTypeiP16PropertyNamesSetPK6Shader
HMf:_Assembly_Load_m3487507613
Z6a:__ZNSt3__27__sort4IRNS_6__lessIN4core12basic_stringIcNS2_20StringStorageDefaultIcEEEES6_EEPS6_EEjT0_SA_SA_SA_T_
HJm:dynCall_viiiifii
Z9l:__ZN6il2cpp2gc19AppendOnlyGCHashMapINSt3__24pairIPK11Il2CppImageP11Il2CppClassEEP22Il2CppReflectionModule17ReflectionMapHashIS9_ENS2_8equal_toIS9_EEEC2Ev
w8:__Z20GetPersistentManagerv
Vaf:_UNITY_TT_Set_Var_Design
Wja:__ZN21SystemInfoStringCache16StaticInitializeEPv
uBk:_Collection_1__ctor_m3380123530_gshared
BHd:__ZN5physx2Sc7BodySim18internalWakeUpBaseEf
RKk:_ReadOnlyCollection_1_System_Collections_Generic_ICollectionU3CTU3E_Remove_m1100818788_gshared
Lua:__ZNSt3__26vectorIN9ShaderLab20SerializedSubProgram15StructParameterENS_9allocatorIS3_EEE6assignIPS3_EENS_9enable_ifIXaasr21__is_forward_iteratorIT_EE5valuesr16is_constructibleIS3_NS_15iterator_traitsISA_E9referenceEEE5valueEvE4typeESA_SA_
vJk:_Collection_1_IsSynchronized_m2291009199_gshared
bTb:__ZNK13MonoBehaviour7GetNameEv
byb:__ZN19ScriptingInvocation28AdjustArgumentsToMatchMethodEv
uwl:_IndexedSet_1_Contains_m1525966688_gshared
YR:__Z15_CheckFMODError11FMOD_RESULTPKciS1_
xgm:__ZN6il2cpp6icalls8mscorlib6SystemL16ThrowInvalidCastEPK11Il2CppClassS5_
I5a:__Z20RenderMultipleMeshesRK15RenderNodeQueueRK18RenderMultipleData17ShaderChannelMask
cCg:_HMAC_KeySetup_m661741544
tsh:_MaskableGraphic_get_maskable_m1260382606
$Ki:_Latin1Encoding__ctor_m498920120
N4l:__ZN6il2cpp2vm4Type19GetGenericParameterEPK10Il2CppType
Rsg:_StreamReader_Peek_m2272511193
A2b:__ZNSt3__26__sortIRNS_6__lessI11CulledLightS2_EEPS2_EEvT0_S6_T_
nlf:__Z51Register_UnityEngine_CanvasGroup_get_blocksRaycastsv
Txg:_NumberFormatter_get_IsFloatingSource_m3714711779
JLe:__ZN5physx13BigConvexData5VLoadERNS_13PxInputStreamE
BSi:_Type_GetConstructor_m1195697116
le:_glBeginQuery
wJj:__ZL104RegionInfo_t1090270226_CustomAttributesCacheGenerator_RegionInfo_t1090270226____DisplayName_PropertyInfoP21CustomAttributesCache
su:__ZN18AnimatorController19TransferRuntimeDataI24GenerateTypeTreeTransferEEvRT_
Lpe:__ZN5physx11NodeManager6resizeEj
gnd:__ZN10Effector2D25CheckEffectorColliderMaskEP10Collider2DS1_
p$b:__ZN6Camera12RenderStereoENS_10RenderFlagE8CullFlagPNS_24PerformEyeRenderFunctionE
eBb:__ZN20LocalFileSystemPosix10ToAbsoluteEPKc
x5a:__ZN20TierGraphicsSettings8TransferI19StreamedBinaryWriteILb0EEEEvRT_
HQm:b111
Bja:__GLOBAL__sub_I_runtime_input_0_cpp
Qtm:__ZN6il2cpp2vm13ComObjectBase16DisconnectObjectEj
jje:__ZNK5physx7NpScene28getSceneQueryStaticTimestampEv
Ix:__ZN14AnimationState19SetupUnstoppedStateEv
JEm:_getcwd
WTe:__ZNSt3__26vectorI9CollisionNS_9allocatorIS1_EEE21__push_back_slow_pathIKS1_EEvRT_
qfd:__ZN16b2CapsuleContact6CreateEP9b2FixtureiS1_iP16b2BlockAllocator
nWa:__ZN25ThreadsafeLinearAllocatorD2Ev
_vc:__ZL50GetAndClearChangedTransformsForMultilpleSystemsJobP45GetChangedTransformsForMultipleSystemsJobDatajPK23TransformAccessReadOnlyPKyj
kre:__ZN5physx2Sq10AABBPruner11preallocateEj
pwb:__Z21SendMessageToEveryoneRK17MessageIdentifier11MessageData
noa:__ZN21BillboardBatchManager16StaticInitializeEPv
i1h:_DateTime_AbsoluteDays_m4235097773
hla:__ZN12_GLOBAL__N_138ArchiveRedirectFileSystemStaticDestroyEPv
P8i:__Z74RuntimeInvoker_RuntimeObject_RuntimeObject_RuntimeObject_SByte_t1669577662PFvvEPK10MethodInfoPvPS4_
nGf:_DefaultControls_CreateScrollView_m3842770629
ueb:__ZN12CubemapArray34UpdateFileTextureUploadInstructionEP26FileAssetUploadInstructionj
Kge:__ZN5physx2Sc19ShapeInstancePairLLC2ERNS0_8ShapeSimES3_RNS0_9ActorPairENS_7PxFlagsINS_10PxPairFlag4EnumEtEE
UQa:__Z23CreateSparseTextureGLES9TextureIDii14GraphicsFormati
c6e:_otv_Anchor_validate
F7c:__Z17UpdateSprites2TplIL27ParticleSystemCurveEvalMode1ELS0_1EEvfRK11MinMaxCurveS3_RK23ParticleSystemParticlesPf
sei:_Guid_CompareTo_m243656946_AdjustorThunk
dbi:_CCMath_mod_m3631663509
bRi:_TimeSpan_Negate_m1889505500_AdjustorThunk
mOk:_ReadOnlyCollection_1_System_Collections_ICollection_CopyTo_m2715087453_gshared
Cef:__ZNSt3__23mapIN20TextRenderingPrivate7FontRefEP11FT_FaceRec_NS_4lessIS2_EENS_9allocatorINS_4pairIKS2_S4_EEEEEixERS9_
HYa:__ZN17ArchiveFileSystem10AddStorageEP20ArchiveStorageReader
v5d:__ZN5physx2Sc9ClothCore16setStretchConfigENS_22PxClothFabricPhaseType4EnumERKNS_20PxClothStretchConfigE
b7c:__Z19UpdateSingleRow2TplIL27ParticleSystemCurveEvalMode4ELS0_1EEvfRK11MinMaxCurveS3_RK23ParticleSystemParticlesPfbiii
V1c:__ZN9SubModule8TransferI19StreamedBinaryWriteILb0EEEEvRT_
$Bl:_AnalyticsEventTracker_Awake_m2780522130
tZe:_PxCreateFoundation
Zbd:__ZNK12b2MotorJoint16GetReactionForceEf
Scm:_il2cpp_class_get_assemblyname
DUl:__ZN6il2cpp2vm5Class15GetEnumBaseTypeEP11Il2CppClass
kLg:_Context_set_WriteSequenceNumber_m942577065
Re:_glVertexAttrib4fv
AOh:_X509CertificateEnumerator_Reset_m4026698923
hum:__ZNK6il2cpp5utils13VmStringUtils23CaseInsensitiveComparerclERKNSt3__212basic_stringIcNS3_11char_traitsIcEENS3_9allocatorIcEEEEPKc
vDf:_CanvasScaler_SetScaleFactor_m3006968999
lCj:__Z78RuntimeInvoker_Boolean_t97287965_Navigation_t3049316579_Navigation_t3049316579PFvvEPK10MethodInfoPvPS4_
wfb:__ZNK9Texture2D16GetNpotTexelSizeEv
Pxg:_NumberFormatter_Init_m3576155222
dYa:__ZL33FileEntryInfoListToFolderContentsRKN4core12basic_stringIcNS_20StringStorageDefaultIcEEEERK19dynamic_block_arrayI13FileEntryInfoLj32EERNSt3__23setIS3_NSB_4lessIS3_EENSB_9allocatorIS3_EEEE
sag:_ArrayListWrapper_IndexOf_m3692065720
JXc:__Z20EvaluateSlowThreadedRK11MinMaxCurveRNS_5CacheERKN4math7_float4ES7_
EBa:__ZN9GfxDevice22GetDefaultVertexBufferE26GfxDefaultVertexBufferTypej
NAi:_Array_InternalArray__ICollection_Contains_TisInt64_t3736567304_m2911357929_gshared
eEk:_Collection_1_Remove_m3022471627_gshared
dFm:___fseeko_unlocked
GLf:_Object_ToString_m1740002499
XEm:_sscanf
ICd:__ZN5physx3Cct17CapsuleControllerC2ERKNS_16PxControllerDescERNS_9PxPhysicsEPNS_7PxSceneE
Lmb:__ZN14SafeBinaryRead21TransferSTLStyleArrayINSt3__26vectorI17BlendShapeChannelNS1_9allocatorIS3_EEEEEEvRT_17TransferMetaFlags
NWb:__Z17BeginSplashScreenv
dtk:_Array_Resize_TisUILineInfo_t4195266810_m3763058392_gshared
Ozg:_SByte_ToString_m3584531119_AdjustorThunk
hxa:__ZN9ShaderLab16SerializedShader8TransferI19StreamedBinaryWriteILb0EEEEvRT_
pN:__ZN7mecanim9animation18CreateAvatarMemoryEPKNS0_14AvatarConstantERNS_6memory9AllocatorE
tEg:_ModulusRing__ctor_m2420310199
Egg:_Convert_ToDateTime_m626620011
l5g:_Enumerator_System_Collections_IDictionaryEnumerator_get_Key_m2500634048_AdjustorThunk
L7c:__Z17UpdateSprites2TplIL27ParticleSystemCurveEvalMode2ELS0_4EEvfRK11MinMaxCurveS3_RK23ParticleSystemParticlesPf
bM:__ZN7mecanim8skeleton16SkeletonPoseCopyIN4math4trsXENS2_7affineXEEEvPKNS0_13SkeletonPoseTIT_EEPNS5_IT0_EE
ZHa:__ZN18GfxFramebufferGLES18GetFramebufferNameERK20GfxRenderTargetSetup
ixm:_GC_print_block_list
OJh:_IPAddress__ctor_m921977496
Woh:_InputField_MoveDown_m1455948167
MJc:__Z30Event_Get_Custom_PropCharacterP12Il2CppObject
aqa:__ZN13PlayableGraph27SchedulePlayableDestructionERK9HPlayable
n5e:_cff_get_mm_var
Tyd:__ZN5physx6shdfnd5ArrayINS_12PxDebugPointENS0_19ReflectionAllocatorIS2_EEE15growAndPushBackERKS2_
BNm:_glGetFramebufferAttachmentParameteriv__wrapper
Lbh:_ChannelServices_GetCurrentChannelInfo_m3041604116
Htf:__Z13RegisterClassI20UnityConnectSettingsEvv
aFb:__Z22scripting_array_length17ScriptingArrayPtr
Dtg:_SynchronizedReader_Peek_m148942882
qSe:__ZN8Collider13AwakeFromLoadE17AwakeFromLoadMode
JUk:_Predicate_1_Invoke_m2308795536_gshared
Heb:__ZN14SafeBinaryRead20TransferTypelessDataEjPvi
Oee:__ZN5physx6shdfnd13ReadWriteLockC2Ev
hpb:__ZN14SpriteRenderer18UpdateCachedSpriteEb
mhl:_WaypointProgressTracker_Update_m424770052
PY:__ZN13dynamic_arrayI12SoundChannelLj4EE9push_backERKS0_
Mga:__Z19GetActiveColorSpacev
e1c:__ZN17SizeBySpeedModule8TransferI18StreamedBinaryReadILb0EEEEvRT_
f7e:_UNITY_tt_face_load_kern
YVf:_MonoMethodInfo_GetDeclaringType_m2924452727
_Xb:__ZN13sorted_vectorINSt3__24pairIiN17InstancingBatcher12PropertyTypeEEEN10vector_mapIiS3_NS0_4lessIiEE13stl_allocatorIS4_L18MemLabelIdentifier1ELi16EEE13value_compareESA_E21sort_clear_duplicatesEv
Ukf:__ZZN2UI14CanvasRenderer15InitializeClassEvEN38FunctorImpl_909kCanvasHierarchyChanged4CallEPviR11MessageData
mba:__Z6StrCmpPKcS0_
yza:__Z21CheckGpuProgramUsable20ShaderGpuProgramType
ikc:__ZN13ProduceHelperI14Texture2DArrayLb0EE7ProduceE10MemLabelId18ObjectCreationMode
Fqm:__ZN6il2cpp2os9Directory20GetFileSystemEntriesERKNSt3__212basic_stringIcNS2_11char_traitsIcEENS2_9allocatorIcEEEESA_iiPi
$2f:_Array_System_Collections_IList_Add_m1063688101
KSe:__ZN5Unity5Joint7SetAxisERK8Vector3f
Xik:__ZL66Navigation_t3049316579_CustomAttributesCacheGenerator_m_SelectOnUpP21CustomAttributesCache
Mdf:__ZN20TextRenderingPrivate19NativeTextGenerator5SetupEv
v6b:__ZNK15SharedLightData24GetFinalShadowResolutionEv
KZd:__ZN5physx6shdfnd8PoolBaseINS_16NpConnectorArrayENS0_19ReflectionAllocatorIS2_EEE15disposeElementsEv
Ltb:__ZN12AspectRatios8TransferI18StreamedBinaryReadILb0EEEEvRT_
e_e:__ZN14PhysicsManager19CreatePvdConnectionEv
$oc:__ZN10GameObject14CopyPropertiesERS_
AKc:__Z44Register_UnityEngine_GUIStyle_get_fixedWidthv
OBi:_Array_InternalArray__ICollection_Remove_TisLink_t544317964_m1280781374_gshared
o5f:_BitConverter_DoubleWordsAreSwapped_m1474345095
Lqj:__Z114RuntimeInvoker_Int32_t2950945753_Vector2_t2156229523_Vector2_t2156229523_ContactFilter2D_t3805203441_RuntimeObjectPFvvEPK10MethodInfoPvPS4_
Zib:__ZNK13ScreenManager12IsFullScreenEv
Lag:_FixedSizeArrayListWrapper_set_Capacity_m4221053039
yFm:_rand
dOm:_emscripten_glFramebufferRenderbuffer__wrapper
ftc:__ZN13MeshScripting10CreateMeshE21ScriptingObjectOfTypeI4MeshE
TYd:__ZNK5physx12NpConstraint9getActorsERPNS_12PxRigidActorES3_
Byh:_Slider_FindSelectableOnLeft_m1667068522
ori:_Quaternion_INTERNAL_CALL_Internal_ToEulerRad_m1913372122
YFb:__ZN14SafeBinaryRead21TransferSTLStyleArrayINSt3__26vectorI17AnimationCurveTplIfE13stl_allocatorIS4_L18MemLabelIdentifier1ELi16EEEEEEvRT_17TransferMetaFlags
obg:_SynchronizedArrayListWrapper_Contains_m3809499313
mOe:__ZN5physx6shdfnd8PoolBaseIN17PxcPoolMallocData10PoolData16ENS0_19ReflectionAllocatorIS3_EEE15disposeElementsEv
XRe:__ZN9Rigidbody23UpdateInterpolationNodeEv
qCg:_HMACSHA256__ctor_m346174875
xhi:_Color_op_Multiply_m2887457390
R8b:__Z22PrepareOptimizedPlanesPK5PlaneiPKN4math7_float4E
Z4:__ZN11UnityEngine15CloudWebService17WebFileDownloaderINS0_20WebRequestRestClientENS0_23WebRequestRestHeaderMapEE10InitializeERKN4core12basic_stringIcNS5_20StringStorageDefaultIcEEEE
loa:__ZN17UniqueIDGenerator15CreatePureIndexEv
Ew:__ZN11UnityEngine9Animation28GenericAnimationBindingCache15DidReloadDomainEv
Ulb:__ZN16BlitStereoHelper16PrepareEyeRenderEiRK19ShaderPropertySheetRS0_bRK8Vector2fS6_14VRTextureUsage
Mhe:__ZN5physx7NpScene8addActorERNS_7PxActorE
Bub:__ZNSt3__26vectorIN15ResourceManager10DependencyE13stl_allocatorIS2_L18MemLabelIdentifier52ELi16EEE6assignINS_11__wrap_iterIPS2_EEEENS_9enable_ifIXaasr21__is_forward_iteratorIT_EE5valuesr16is_constructibleIS2_NS_15iterator_traitsISC_E9referenceEEE5valueEvE4typeESC_SC_
Pv:__ZN19StreamedBinaryWriteILb0EE8TransferIN7mecanim9animation23BlendDirectDataConstantEEEvRT_PKc17TransferMetaFlags
STl:__ZN15dense_hashtableINSt3__24pairIK10KeyWrapperIPK22Il2CppGenericParameterEP11Il2CppClassEES6_N6il2cpp5utils11PointerHashIS4_EEN14dense_hash_mapIS6_S9_SE_NS6_14EqualsComparerINS0_8equal_toIS5_EEEENS0_9allocatorISA_EEE9SelectKeyESJ_SL_E14squash_deletedEv
Abb:__ZN9ShaderLabL27GetDesiredRenderTextureDescEPK6Camera
FZg:_InternalEnumerator_1_get_Current_m1523142935_AdjustorThunk
Odd:__ZNK12b2MouseJoint17GetReactionTorqueEf
yqk:_Array_InternalArray__Insert_TisMark_t3471605523_m2854535880_gshared
JKa:__ZN6prcoreL29inner_stretch_rgb565_bilinearEPKNS_9InnerInfoE
vnc:__ZZL23RegisterLightPropertiesR22GenericPropertyBindingEN18Wrapper_LightRange13SetFloatValueEPvf
mB:__ZN14SafeBinaryRead21TransferSTLStyleArrayI13dynamic_arrayI11KeyframeTplI11QuaternionfELj4EEEEvRT_17TransferMetaFlags
whh:_MethodReturnDictionary__cctor_m278392388
e8:__ZNK9Transform18TransformDirectionERK8Vector3f
fKe:__ZN5physx21PxsBodyTransformVault6updateEv
$Ed:__ZThn12_N5physx3Ext5JointINS_15PxDistanceJointENS_30PxDistanceJointGeneratedValuesEE19onConstraintReleaseEv
P5e:_otv_MarkLigPos_validate
UCh:_PrimalityTests_RabinMillerTest_m1471415870
Nqd:__ZL29GeomMTDCallback_CapsuleConvexRN5physx6PxVec3ERfRKNS_10PxGeometryERKNS_11PxTransformES5_S8_
l_l:__ZN15dense_hashtableINSt3__24pairIK10KeyWrapperIPK11Il2CppClassEPKcEES6_N6il2cpp5utils11PointerHashIS3_EEN14dense_hash_mapIS6_S9_SE_NS6_14EqualsComparerINS0_8equal_toIS5_EEEENS0_9allocatorISA_EEE9SelectKeyESJ_SL_E12resize_deltaEjj
iHm:__ZNK10__cxxabiv120__si_class_type_info27has_unambiguous_public_baseEPNS_19__dynamic_cast_infoEPvi
yEg:_Kernel_LeftShift_m4140742987
uMf:_Assembly_GetManifestResourceInternal_m1224391897
tIa:__Z30AddDefaultStreamsToMeshBuffersR9GfxDeviceR11MeshBuffersj17ShaderChannelMaskS3_
Ska:__ZL16GetInterfaceImpl18UnityInterfaceGUID
WUl:__ZN6il2cpp2vmL17SetupFieldOffsetsENS0_15FieldLayoutKindEP11Il2CppClassjRKNSt3__26vectorIjNS4_9allocatorIjEEEE
sB:__ZNSt3__26vectorIN13AnimationClip15QuaternionCurveE13stl_allocatorIS2_L18MemLabelIdentifier26ELi16EEE10deallocateEv
Ftm:__ZN6il2cpp6icalls8mscorlib6System15MonoCustomAttrs27GetCustomAttributesInternalEP12Il2CppObjectP20Il2CppReflectionTypeb
tXg:_InternalEnumerator_1_get_Current_m1408339225_AdjustorThunk
qbf:_UNITY_TT_Set_MM_Blend
Cja:__GLOBAL__sub_I_runtime_math_random_0_cpp
_Wb:__ZN14PreloadManager35WaitForAllAsyncOperationsToCompleteEv
cbe:__ZN5physx14NpRigidDynamicC2ERKNS_11PxTransformE
Aud:__Z27sweepCCTBox_HeightFieldGeomRKN5physx10PxGeometryERKNS_11PxTransformERKNS_2Gu3BoxERKNS_6PxVec3EfRNS_10PxSweepHitENS_7PxFlagsINS_9PxHitFlag4EnumEtEEf
FT:__ZL31InitializeAudioScriptingClassesv
j0b:__Z14SortGUIByDepthP10GUIElementS0_
iVc:__Z19UpdateProceduralTplIL27ParticleSystemCurveEvalMode0EEvRK20DualMinMaxPolyCurvesR23ParticleSystemParticlesPfRKN4math7_float4E
OM:__ZN12_GLOBAL__N_120ProcessRootMotionMixER33AnimationPlayableEvaluationOutputR35AnimationPlayableEvaluationConstantR32AnimationPlayableEvaluationInputS1_f
Esl:_UriParser__cctor_m3655686731
vqd:__ZN5physx3Cct9SweepTest18updateTouchedGeomsEPKNS0_30InternalCBData_FindTouchedGeomERKNS0_13UserObstaclesERKNS_17PxExtendedBounds3ERKNS_19PxControllerFiltersERKNS_6PxVec3E
yrh:_LayoutRebuilder_U3Cs_RebuildersU3Em__0_m589488547
GXe:_PxCloseExtensions
GBb:__ZNK20LocalFileSystemPosix21GetAvailableDiskSpaceEPKcRy
aka:__ZNSt3__26__treeIiNS_4lessIiEENS_9allocatorIiEEE7destroyEPNS_11__tree_nodeIiPvEE
ZAa:__ZNK9GfxDevice14GetWorldMatrixEv
wxi:_Transform_set_parent_m786917804
fyh:_Slider_get_value_m739683640
Wzb:__Z19scripting_array_new17ScriptingClassPtrjj
Dhg:_Convert_ToInt32_m2128774575
DY:__ZN11SoundHandle13CreateChannelEb
Ygb:__ZN14SafeBinaryRead21TransferSTLStyleArrayI13dynamic_arrayI12LightmapDataLj4EEEEvRT_17TransferMetaFlags
sva:__ZNSt3__26vectorIN9ShaderLab20SerializedSubProgram16TextureParameterENS_9allocatorIS3_EEE6assignIPS3_EENS_9enable_ifIXaasr21__is_forward_iteratorIT_EE5valuesr16is_constructibleIS3_NS_15iterator_traitsISA_E9referenceEEE5valueEvE4typeESA_SA_
OYl:__ZN13Il2CppHashMapIN6il2cpp5utils13dynamic_arrayIPK10Il2CppTypeLj4EEEPFvvENS0_8metadata19Il2CppSignatureHashENS9_22Il2CppSignatureCompareENSt3__29allocatorINSC_4pairIK10KeyWrapperIS6_ES8_EEEEEC2EjRKSA_RKSB_
pCc:__Z51Quaternion_CUSTOM_INTERNAL_CALL_Internal_ToEulerRadRK11QuaternionfR8Vector3f
Fam:__ZN15dense_hashtableINSt3__24pairIK10KeyWrapperIPK22Il2CppGenericParameterEPK24MonoGenericParameterInfoEES6_N6il2cpp5utils11PointerHashIS4_EEN14dense_hash_mapIS6_SA_SF_NS6_14EqualsComparerINS0_8equal_toIS5_EEEENS0_9allocatorISB_EEE9SelectKeyESK_SM_E15set_deleted_keyERKSB_
Mzg:_SByte_TryParse_m2431806379
chc:__ZN6prcoreL11inner_clearILj2EEEvPhjjj
oBg:_DSACryptoServiceProvider_get_KeySize_m786836990
_cd:__ZN12b2WheelJoint24SolvePositionConstraintsERK12b2SolverData
h5d:__ZNK5physx2Sc9ClothCore20getNbCollisionPlanesEv
Ch:_emscripten_exit_fullscreen
Coe:__ZN5physx6shdfnd5ArrayINS_9PxBounds3ENS0_15InlineAllocatorILj192ENS0_19ReflectionAllocatorIS2_EEEEE8recreateEj
lMe:__ZNK5physx13GuMeshFactory17getNbHeightFieldsEv
fsk:_Array_qsort_TisBoolean_t97287965_TisBoolean_t97287965_m214793583_gshared
K7i:_Enumerator_System_Collections_IEnumerator_Reset_m1564381721_gshared
h_e:__ZN14PhysicsManager19CreateDynamicsSceneEbb14BroadphaseType16ContactPairsModeRK4AABBi
FLf:_Object_MemberwiseClone_m1474068832
Apm:__ZN6il2cpp6icalls8mscorlib6System6String19InternalAllocateStrEi
ZRc:__Z29Transfer_Blittable_ArrayFieldI8JSONRead11QuaternionfEvRT_R9ArrayInfoRK23StaticTransferFieldInfo
K3f:_Array_SetValue_m282347242
yre:__ZNK5physx2Gu12OBBAABBTestsILb1EEclENS_6shdfnd3aos5Vec3VES5_
tzc:__Z45Register_UnityEngine_Camera_get_targetDisplayv
ymc:__ZNK24RendererAnimationBinding15GenerateBindingERKN4core12basic_stringIcNS0_20StringStorageDefaultIcEEEEbRN11UnityEngine9Animation14GenericBindingE
nKh:_IPv6Address__ctor_m3704187391
E0b:__Z15GetFlareManagerv
Qpd:__ZN5physx3Cct9SweepTestD2Ev
eK:__ZN8Animator13GetAvatarRootEv
yDm:___toread
fVb:__ZNSt3__26vectorI10vector_mapIiiNS_4lessIiEE13stl_allocatorINS_4pairIiiEEL18MemLabelIdentifier38ELi16EEES4_IS9_LS7_38ELi16EEE26__swap_out_circular_bufferERNS_14__split_bufferIS9_RSA_EE
WDg:_BigInteger_get_Rng_m3283260184
LHm:___cxa_is_pointer_type
aQ:__ZN8Animator22ScriptingStringToCRC32ERK11ICallString
QM:__ZN7mecanim9animation16EvaluateAvatarDXEPKNS0_14AvatarConstantEPKNS0_11AvatarInputEPNS0_12AvatarMemoryEPNS0_15AvatarWorkspaceEPNS0_12AvatarOutputE
oPa:__ZN4gles20DestroyRenderSurfaceEP7ApiGLESP17RenderSurfaceGLES
wwk:_Array_InternalArray__get_Item_TisKeyValuePair_2_t2530217319_m2886833132_gshared
Awh:_ScrollRect_OnEndDrag_m3202230060
zFc:__Z34Transform_CUSTOM_SetAsFirstSiblingP12Il2CppObject
R1c:__ZN21RotationBySpeedModule8TransferI19StreamedBinaryWriteILb0EEEEvRT_
Loh:_InputField_Delete_m3471899192
gch:_RemotingConfiguration_get_ProcessId_m2180277012
Xea:__ZN17PersistentManager40GlobalToLocalSerializedFileIndexInternalERK26SerializedObjectIdentifier
S1:__ZN11UnityEngine15CloudWebService17SessionEventQueue14ParseEventDataERKN4core12basic_stringIcNS2_20StringStorageDefaultIcEEEE
tYd:__ZN12GeomQueryAnyIN5physx10PxSweepHitEE7geomHitERKNS0_2Sq17SceneQueryManagerERKNS0_15MultiQueryInputERKNS3_9ShapeDataERKNS0_10PxGeometryERKNS0_11PxTransformENS0_7PxFlagsINS0_9PxHitFlag4EnumEtEEjPS1_fbPNS0_9PxBounds3E
xGa:__ZN13TranslateGLES4InitERK12GraphicsCaps16GfxDeviceLevelGL
Ssd:__ZN43CapsuleHeightfieldContactGenerationCallback7onEventEjPj
uTe:__ZThn4_N12MemoryStream4readEPvj
$mg:_Int64_System_IConvertible_ToUInt16_m848637338_AdjustorThunk
sof:__Z32CustomEventData_CUSTOM_AddUInt32P12Il2CppObjectP12Il2CppStringj
TFi:_Array_InternalArray__IndexOf_TisLink_t544317964_m455584088_gshared
wyk:_Enumerator_get_Current_m2282646120_AdjustorThunk
aOk:_ReadOnlyCollection_1_IndexOf_m2539022912_gshared
Ljk:__ZL66Selectable_t3250028441_CustomAttributesCacheGenerator_m_TransitionP21CustomAttributesCache
rBm:__ZN6il2cpp2os6Memory12AlignedAllocEjj
lzh:_Text_set_alignByGeometry_m3828822280
bvm:__ZN6il2cpp8metadataL7CompareEPK10Il2CppTypeS3_
AHh:_HybridDictionary__ctor_m1681134385
Ida:__ZN21ScalableBufferManager11GetInstanceEv
tQb:__Z18Transfer_BlittableI18StreamedBinaryReadILb0EELb1E10ColorRGBAfEvRK29SerializationCommandArgumentsR31RuntimeSerializationCommandInfo
lRi:_TimeSpan_op_LessThan_m1594498345
Ywc:__ZL27GetComponentsImplementationILb0ELi0EEbR10GameObjectbRK17CompareParametersRK39GetComponentsImplementation_ReturnValue
PTb:__ZN9Scripting36IsSystemCollectionsGenericDictionaryE17ScriptingClassPtr
Dvl:_UnityEvent_1_FindMethod_Impl_m322741469_gshared
Gni:_Mathf_LerpAngle_m295352085
dXd:__ZN5physx12NpConstraint12actorDeletedEPNS_12PxRigidActorE
Xxi:_Enumerator_get_Current_m2591725252
Bca:__ZL16ReadTypeTreeImplILb0EEbR8TypeTreeRK16TypeTreeIteratorRPKhS6_i
FRh:_Interval_Contains_m110351300_AdjustorThunk
whg:_Convert_ToInt32_m3048308591
qw:__ZN25RuntimeAnimatorControllerD2Ev
n4h:_DateTimeOffset_Equals_m3030958070
PFd:__ZN5physx2Sc8ShapeSim18reinsertBroadPhaseEv
H8a:__ZNK22BuiltinResourceManager21GetResourceInstanceIDEPKN5Unity4TypeERKN4core12basic_stringIcNS4_20StringStorageDefaultIcEEEE
mBc:__Z42Register_UnityEngine_RectOffset_set_bottomv
ACl:_AnalyticsTracker_BuildParameters_m43920649
Z1h:_DateTimeFormatInfo_GetMonthName_m2034512315
o2b:__ZN28LightProbeProxyVolumeContext8CopyFromERKS_
mPk:_ReadOnlyCollection_1_System_Collections_Generic_IListU3CTU3E_Insert_m2489506856_gshared
lia:__ZN23TransformChangeDispatch32QueueTransformChangeIfHasChangedER18TransformHierarchy
MAh:_SimpleCollator_ToDashTypeValue_m6184468
rrj:__Z105RuntimeInvoker_RuntimeObject_Vector3_t3722313464_Vector3_t3722313464_Single_t1397266774_Int32_t2950945753PFvvEPK10MethodInfoPvPS4_
pPa:__ZN7ApiGLES18DeleteRenderbufferERj
zJd:__ZN5physx6shdfnd5ArrayIPvNS0_15InlineAllocatorILj256ENS0_19ReflectionAllocatorINS_16NpConnectorArrayEEEEEE15growAndPushBackERKS2_
TNa:__ZL23ProgramUniformMatrix4fvPK7ApiGLESjiihPKv
yPa:__ZN7ApiGLES13CreateTextureEjj14GraphicsFormatiiiii
v4f:_Array_new_gap_m262136975
Ngd:__Z10b2DistanceP16b2DistanceOutputP14b2SimplexCachePK15b2DistanceInput
jze:__ZN5physx14SingleAABBTaskC2Ev
Yua:__ZN9ShaderLab20SerializedSubProgram15MatrixParameter8TransferI14SafeBinaryReadEEvRT_
_wc:__ZL27GetComponentsImplementationILb0ELi1EEbR10GameObjectbRK17CompareParametersRK39GetComponentsImplementation_ReturnValue
INh:_X509Store__ctor_m275383717
JOk:_ReadOnlyCollection_1_System_Collections_Generic_ICollectionU3CTU3E_Clear_m2844161457_gshared
rBh:_SimpleCollator_LastIndexOfOrdinalIgnoreCase_m2984667899
$9e:_Round_Down_To_Grid
UQe:__ZN5physx12storeIndicesEjjPKjRNS_14PxOutputStreamEb
kQa:__ZN13RenderTexture7ReleaseEv
wPc:__Z18Transfer_BlittableI8JSONReadLb1EN4math12int3_storageEEvRK29SerializationCommandArgumentsR31RuntimeSerializationCommandInfo
Unb:__ZN10MeshFilter23VirtualRedirectTransferER14SafeBinaryRead
z0f:_X509CertificateEnumerator_MoveNext_m2269241175
cob:__ZN12MeshRenderer17MainThreadCleanupEv
HUl:__ZN6il2cpp2vmL10InitLockedEP11Il2CppClassRKNS_2os12FastAutoLockE
dTa:__ZN22CreateGpuProgramOutput12CreateParamsEv
QU:__ZN10ObjectPoolIN4FMOD7ChannelENS0_8ChannelIEE7GetFreeEi
WTd:__ZNK5physx18NpArticulationLink11getChildrenEPPNS_18PxArticulationLinkEj
TUg:_InternalEnumerator_1_System_Collections_IEnumerator_get_Current_m548105685_gshared
nGa:__ZNK14GfxContextGLES13GetDefaultFBOEv
R6f:_Byte_System_IConvertible_ToType_m2251112646
etj:__Z81RuntimeInvoker_Char_t3634460470_RuntimeObject_Int32_t2950945753_Int16_t2552820387PFvvEPK10MethodInfoPvPS4_
EHe:__Z15atomIntegrationfPKPN5physx11PxsBodyCoreEPKPNS_12PxsRigidBodyEjPKNS_2Cm13SpatialVectorEPNS_13PxcSolverBodyEPNS_17PxcSolverBodyDataEPS9_RjSH_
w2h:_DateTime_get_Hour_m4153505178_AdjustorThunk
rWb:__ZN14GraphicsHelper5ClearE13GfxClearFlagsRK10ColorRGBAffjR17ShaderPassContext
PWh:_Evidence_Equals_m1478353107
Qde:__ZN5physx13NpRigidStatic11createShapeERKNS_10PxGeometryEPKPNS_10PxMaterialEtNS_7PxFlagsINS_11PxShapeFlag4EnumEhEE
Brc:__Z13GetImagePixelI10ColorRGBAfET_PKhii13TextureFormat15TextureWrapModeS5_ii
x2k:_List_1_System_Collections_IList_set_Item_m1842844683_gshared
Vfm:__ZN6il2cpp2vm6Thread49CheckCurrentThreadForInterruptAndThrowIfNecessaryEv
gai:_Enum_ToObject_m1136033697
Uga:__ZNSt3__23mapIN9ShaderLab16FastPropertyNameEN18UnityPropertySheet11UnityTexEnvENS_4lessIS2_EENS_9allocatorINS_4pairIKS2_S4_EEEEEixERS9_
sOa:__ZNK13TranslateGLES25GetTextureTargetDimensionEj
BNd:__ZN5physx11NpAggregate22removeActorAndReinsertERNS_7PxActorEb
hMk:_ReadOnlyCollection_1_System_Collections_IList_Remove_m1842121503_gshared
ePe:__ZZL19ExtractHullPolygonsRjRN5physx2Gu9ContainerERKNS0_17ConvexHullBuilderEPS2_S3_EN5Local9FloodFillES3_PKNS0_11AdjTriangleEjPb
Ppg:_File_OpenRead_m2936789020
GEc:__Z47Texture2D_CUSTOM_INTERNAL_CALL_GetPixelBilinearP12Il2CppObjectffR10ColorRGBAf
_9:__ZN9Scripting12LogExceptionE21ScriptingExceptionPtriPKcb
Gpj:__Z94RuntimeInvoker_Void_t1185182177_RuntimeObject_PlayableGraph_t3515989261_RuntimeObject_IntPtr_tPFvvEPK10MethodInfoPvPS4_
Dj:_emscripten_glVertexAttrib4f
fhl:_WaypointProgressTracker_set_targetPoint_m3708066232
Vya:__ZNSt3__26vectorIN20GpuProgramParameters14ConstantBufferENS_9allocatorIS2_EEE8__appendEj
qOh:_X509CertificateCollection_AddRange_m3683116910
RUk:_Predicate_1_Invoke_m2315049893_gshared
lp:FUNCTION_TABLE_vf
pch:_SinkProviderData__ctor_m1624738837
Asj:__Z88RuntimeInvoker_RuntimeObject_RuntimeObject_SByte_t1669577662_RuntimeObject_RuntimeObjectPFvvEPK10MethodInfoPvPS4_
jQd:__ZN5physx14NpArticulation26setMaxProjectionIterationsEj
ZBd:__ZN5physx3Cct15ObstacleContext14removeObstacleEj
YNf:_CustomAttributeTypedArgument_Equals_m2261980307
dI:__ZN7mecanim12statemachine24CreateStateMachineMemoryEPKNS0_20StateMachineConstantERNS_6memory9AllocatorE
FDa:__ZN9GfxDevice18SetGlobalDepthBiasEff
U0l:__ZN6il2cpp6icalls8mscorlib6System8MonoType12get_AssemblyEP20Il2CppReflectionType
Rj:_emscripten_glGetPointerv
lvk:_Dictionary_2_Do_CopyTo_TisKeyValuePair_2_t3842366416_TisRuntimeObject_m1564656153_gshared
DM:__ZN8Animator22ApplyBuiltinRootMotionEv
BWb:__Z26ApplyMaterialPassWithCacheRK18SharedMaterialDataR17ShaderPassContextP6ShaderPN9ShaderLab4PassEibPKNS6_10GrabPassesEPNS6_11SubProgramsEPK22DeviceRenderStateBlock
lWe:__ZN5physx7profile8ZoneImplINS_28PxProfileNameProviderForwardEE17handleBufferFlushEPKhj
yNd:__ZN5physx2Sc5ActorC2ERNS0_16InteractionSceneEhNS0_14IslandNodeInfo4TypeE
uxg:_MulticastDelegate_KPM_m22863605
zYg:_InternalEnumerator_1_get_Current_m1897120917_AdjustorThunk
Uwg:_MonoType_ReorderParamArrayArguments_m2458683451
qkh:_FormatterConverter_ToInt16_m4282804414
Ogj:__Z81RuntimeInvoker_Void_t1185182177_Int64_t3736567304_RuntimeObject_Int64_t3736567304PFvvEPK10MethodInfoPvPS4_
vBf:_StandaloneInputModule_ProcessTouchPress_m4019232747
Kpg:_FileStream__ctor_m3151488352
t4f:_Array_swap_m547389985
ifa:__ZN8Renderer23VirtualRedirectTransferER14SafeBinaryRead
NUi:_UInt32_ToString_m2420423038
v$k:_List_1_System_Collections_IList_Add_m634558835_gshared
cng:_Int64_System_IConvertible_ToUInt64_m2815650160
mqg:_FileStream_get_Length_m426703983
L4d:__ZN5physx2Sc9ClothCore16setRestPositionsEPKNS_6PxVec4E
_Me:__ZN5physx2Gu12TriangleMesh4loadERNS_13PxInputStreamE
Ifc:__ZL13MotionHandleriPK27EmscriptenDeviceMotionEventPv
h_g:_InternalEnumerator_1_get_Current_m3993227736_AdjustorThunk
lT:__ZN12AudioManager5ResetEv
Dpc:__ZN15DirectorManager18ScheduleGraphStartERK14HPlayableGraph
EMa:__ZN6prcoreL17RemapGenericFloatI17TexFormatRGBAHalf15TexFormatRGHalfEEvPKNS_9InnerInfoE
Irm:__ZN6il2cpp6icalls8mscorlib6System11Environment20GetWindowsFolderPathEi
O4e:_UNITY_FT_Stream_ReadFields
TG:__ZN7mecanim5human18HumanPoseBlendNodeERNS0_9HumanPoseEPS1_f
i4e:_UNITY_FT_RoundFix
pym:_GC_is_heap_ptr
$A:__Z14resize_trimmedINSt3__26vectorI24CompressedAnimationCurve13stl_allocatorIS2_L18MemLabelIdentifier26ELi16EEEEEvRT_j
Jud:__ZNK5physx2Gu15HeightFieldUtil12traceSegmentI24ConvexVsHeightfieldSweepLb0ELb0ELb1EEEvRKNS_6PxVec3ES6_PT_PS5_
DDh:_ASN1_DecodeTLV_m1200977460
Gki:_UnityEventBase_PrepareInvoke_m1785382128
PLe:__ZNK5physx12PxConvexMesh19getConcreteTypeNameEv
qPk:_ReadOnlyCollection_1_System_Collections_Generic_IListU3CTU3E_set_Item_m1584697503_gshared
eob:__ZNK12MeshRenderer22GetTypeVirtualInternalEv
B8f:_Char_System_IConvertible_ToUInt32_m3901815580
Fuh:_Scrollbar_set_onValueChanged_m346467699
nnd:__ZN13ProduceHelperI13BoxCollider2DLb0EE7ProduceE10MemLabelId18ObjectCreationMode
ivd:__ZN5physx2Gu19gjkLocalPenetrationINS0_9TriangleVENS0_17ShrunkConvexHullVEEEjRKT_RKT0_RKNS_6shdfnd3aos6FloatVERNSB_5Vec3VESG_SG_RSC_PhSI_Rhb
mjj:__Z157RuntimeInvoker_Int32_t2950945753_RuntimeObject_Int32_t2950945753_Int32_t2950945753_Int32_t2950945753_SByte_t1669577662_SByte_t1669577662_Int32U26_t1369213839PFvvEPK10MethodInfoPvPS4_
TV:__ZN4FMOD6System17setSoftwareFormatEi17FMOD_SOUND_FORMATii18FMOD_DSP_RESAMPLER
Qwd:__ZN5physx2Gu15GJKLocalRayCastERNS0_9TriangleVERNS0_4BoxVERKNS_6shdfnd3aos6FloatVERKNS6_5Vec3VESC_RS7_RSA_SE_fb
NFd:__ZN5physx2Sc13ShapeIterator4initERKNS0_8ActorSimE
zta:__ZN14SafeBinaryRead19TransferSTLStyleMapINSt3__23mapIN4core12basic_stringIcNS3_20StringStorageDefaultIcEEEES7_NS1_4lessIS7_EE13stl_allocatorINS1_4pairIKS7_S7_EEL18MemLabelIdentifier1ELi16EEEEEEvRT_17TransferMetaFlags
Ajf:__ZN2UI6Canvas27UpdateEventIndexesRecursiveERi
BF:__ZN7mecanim9animation18EvaluateRootMotionERKNS0_18ClipMuscleConstantERKNS0_15ClipMuscleInputEPKfS8_RNS0_12MotionOutputEb
Y1:__ZN11UnityEngine15CloudWebService16SessionContainer21PrepareDataErrorEventERN4core12basic_stringIcNS2_20StringStorageDefaultIcEEEE
Jyf:_ExecuteEvents_get_pointerUpHandler_m3515704212
w9f:_ArrayList_set_Item_m2003485935
RZf:_SatelliteContractVersionAttribute__ctor_m3630863995
CAf:_MouseButtonEventData_PressedThisFrame_m1060658845
BMb:__Z19TransferField_ArrayI19StreamedBinaryWriteILb0EE27Converter_SimpleNativeClassI8GUIStyleEEvRK23StaticTransferFieldInfoR31RuntimeSerializationCommandInfoRT0_
AMk:_ReadOnlyCollection_1_System_Collections_Generic_IListU3CTU3E_RemoveAt_m3969985996_gshared
L$d:__ZN5physx14NpArticulationC2Ev
wQm:_emscripten_glCopyTexSubImage2D__wrapper
DJf:_GraphicRegistry_GetGraphicsForCanvas_m4219276355
olg:_NumberFormatter_FastToDecHex_m699829267
kPc:__Z35Transfer_Blittable_FixedBufferFieldI8JSONReadiEvRK29SerializationCommandArgumentsR31RuntimeSerializationCommandInfo
Fxa:__ZN15SerializeTraitsIN9ShaderLab16FastPropertyNameEE8TransferI19StreamedBinaryWriteILb0EEEEvRS1_RT_
PZc:__ZN22ParticleSystemRenderer16UpdateCachedMeshEv
X$l:__ZNSt3__213__vector_baseIN6il2cpp2os19SocketHandleWrapperENS_9allocatorIS3_EEED2Ev
hHj:__ZL48_Type_t3588564251_CustomAttributesCacheGeneratorP21CustomAttributesCache
d0c:__ZN12LightsModule8TransferI24GenerateTypeTreeTransferEEvRT_
Rc:invoke_viiffi
sdc:__ZN13sorted_vectorINSt3__24pairIN4core12basic_stringIcNS2_20StringStorageDefaultIcEEEEPK17MessageIdentifierEEN10vector_mapIS6_S9_NS0_4lessIS6_EENS0_9allocatorISA_EEE13value_compareESF_E10insert_oneERKSA_
KZf:_ResourceSet_ReadResources_m3663669011
zni:_Mathf_CeilToInt_m432108984
WQi:_TimeSpan_FromHours_m1109641064
Wva:__Z14resize_trimmedINSt3__26vectorIN9ShaderLab18SerializedPropertyENS0_9allocatorIS3_EEEEEvRT_j
T6c:__Z20UpdateWholeSheet2TplIL27ParticleSystemCurveEvalMode3ELS0_3EEvfRK11MinMaxCurveS3_RK23ParticleSystemParticlesPf
Zge:__ZN5physx6shdfnd8PoolBaseINS_2Sc9ActorPairENS0_19ReflectionAllocatorIS3_EEE12allocateSlabEv
UZl:__ZN6il2cpp2vm13MetadataCache38GetMethodInfoFromMethodDefinitionIndexEi
uxf:_EventSystem_set_current_m38955169
gFk:_Collection_1_System_Collections_IList_Add_m3550619379_gshared
sml:_CostDelegate_EndInvoke_m2797921932
Qjb:__ZN10VertexData8TransferI24GenerateTypeTreeTransferEEvRT_
_8h:_Double_IsInfinity_m820013146
csm:__ZN13Il2CppHashMapIPK19Il2CppGenericMethodP10MethodInfoN6il2cpp8metadata23Il2CppGenericMethodHashENS6_26Il2CppGenericMethodCompareENSt3__29allocatorINS9_4pairIK10KeyWrapperIS2_ES4_EEEEEC2EjRKS7_RKS8_
evi:_Screen_get_dpi_m495672463
xNi:_UTF8Encoding_InternalGetByteCount_m2120178851
Tyi:_Vector3__ctor_m1719387948
l8b:__ZL10CullLightsRK22SceneCullingParametersR11CullResults
$ig:_Convert_ToUInt64_m3170916409
mTl:_MainModule_SetStartLifetimeMultiplier_m3747684520
_H:__ZN7mecanim12statemachine20GetBlendTreeConstantERKNS0_13StateConstantEi
aie:__ZN5physx7NpScene21setDominanceGroupPairEhhRKNS_20PxDominanceGroupPairE
Pmg:_Int64_System_IConvertible_ToInt16_m4062196970_AdjustorThunk
oxg:_MonoType_GetGenericTypeDefinition_m3201894896
Zgc:__Z40GetTemporaryCachePathApplicationSpecificv
LBa:__ZN9GfxDevice16EndAsyncJobFrameEv
guj:__Z99RuntimeInvoker_Int32_t2950945753_Ray_t3785851493_RuntimeObject_Single_t1397266774_Int32_t2950945753PFvvEPK10MethodInfoPvPS4_
_6e:_UNITY_tt_face_load_hhea
KPf:_DerivedType_get_Assembly_m2979298667
Ol:___syscall3
Gqj:__Z135RuntimeInvoker_RaycastHit2D_t2279581989_Vector2_t2156229523_Vector2_t2156229523_Single_t1397266774_Int32_t2950945753_Single_t1397266774PFvvEPK10MethodInfoPvPS4_
Rl:___syscall6
Tl:___syscall4
X2:__ZN11UnityEngine15CloudWebService20WebRequestRestClient17GetResponseStatusEv
Rhh:_ReturnMessage__ctor_m2352989078
M2l:__ZN6il2cpp2vm7Runtime9SetConfigEPKc
BCb:__ZNSt3__26__treeINS_12__value_typeIN4core12basic_stringIcNS2_20StringStorageDefaultIcEEEEPN16MemoryFileSystem4NodeEEENS_19__map_value_compareIS6_SA_NS_4lessIS6_EELb1EEE13stl_allocatorISA_L18MemLabelIdentifier55ELi16EEE7destroyEPNS_11__tree_nodeISA_PvEE
Unm:__ZN6il2cpp2vm3RCW14QueryInterfaceILb1EEEP14Il2CppIUnknownP15Il2CppComObjectRK10Il2CppGuid
wKg:_TlsServerCertificateRequest__ctor_m1334974076
jhd:__ZNSt3__26__sortIR24RayHitsByDepthComparitorP12RaycastHit2DEEvT0_S5_T_
xad:__ZN27PerformanceReportingManager23VirtualRedirectTransferER14SafeBinaryRead
zhg:_Convert_ToInt32_m1613163543
osh:_MatEntry__ctor_m1949610076
jxc:__ZN9Scripting25BroadcastScriptingMessageER10GameObjectPKc18ScriptingObjectPtr
gm:_emscripten_glShaderBinary
UTi:_UInt16_ToString_m760649087
yBb:__ZNK20LocalFileSystemPosix6ExistsERK13FileEntryData
ELd:__ZN5physx35NpArticulationJointGetBodiesFromScbERNS_3Scb17ArticulationJointERPNS0_4BodyES5_
iLe:__ZNK5physx2Sc15ClothFabricCore16getTetherLengthsEPfj
_gi:_Camera_GetAllCameras_m668492922
Xmf:__Z58Register_UnityEngine_Canvas_GetETC1SupportedCanvasMaterialv
kRi:_TimeSpan_op_Inequality_m2467851530
_Ob:__ZN17AnimationCurveTplIfE8TransferI18StreamedBinaryReadILb1EEEEvRT_
buk:_Array_Sort_TisUIVertex_t4057497605_m3996333845_gshared
uel:_Hose__ctor_m515798238
_5:__Z17DebugStringToFilePKciS0_i15LogMessageFlagsiiPFvRK11CppLogEntryE
jzg:_SByte_System_IConvertible_ToDouble_m2381680501
O4f:_Swapper_BeginInvoke_m1688449973
kji:_Display_get_renderingWidth_m1970428952
Rme:__ZN5physx2Sc13ConstraintSim8getForceERNS_6PxVec3ES3_
Rkj:__Z81RuntimeInvoker_Void_t1185182177_RuntimeObject_Int32_t2950945753_Int64_t3736567304PFvvEPK10MethodInfoPvPS4_
zca:__ZN13dynamic_arrayIcLj1EE6insertEPcPKcS3_
qhj:__Z86RuntimeInvoker_Boolean_t97287965_Int16_t2552820387_Int16_t2552820387_Int32_t2950945753PFvvEPK10MethodInfoPvPS4_
xqd:__ZN5physx15PxGeometryQuery18computePenetrationERNS_6PxVec3ERfRKNS_10PxGeometryERKNS_11PxTransformES6_S9_
ywl:_IndexedSet_1_IndexOf_m241693686_gshared
iqf:__ZN11UnityEngine15PlatformWrapper30GetGraphicsDriverLibraryStringEv
Syg:_RuntimeMethodHandle_Equals_m3301340296_AdjustorThunk
jVi:_UInt64_System_IConvertible_ToSingle_m925613075_AdjustorThunk
L_e:__ZN5Unity12PhysicsQueryC2Ev
uQb:__Z18Transfer_BlittableI18StreamedBinaryReadILb0EELb0E4AABBEvRK29SerializationCommandArgumentsR31RuntimeSerializationCommandInfo
Gub:__ZN24GenerateTypeTreeTransfer19TransferSTLStyleMapINSt3__28multimapIN4core12basic_stringIcNS3_20StringStorageDefaultIcEEEE4PPtrI6ObjectENS1_4lessIS7_EE13stl_allocatorINS1_4pairIKS7_SA_EEL18MemLabelIdentifier52ELi16EEEEEEvRT_17TransferMetaFlags
mO:__ZN16MecanimAnimation24DeleteAnimatedPropertiesERP26IAnimatedPropertyEvaluator
MMl:_CanvasRenderer_SetMaterial_m824577244
R$c:__ZN11ColorModule8TransferI24GenerateTypeTreeTransferEEvRT_
V_b:__Z14DrawGUITextureRK5RectTIfEP7Texture11ColorRGBA32P8Materiali
wMk:_ReadOnlyCollection_1_System_Collections_Generic_ICollectionU3CTU3E_Add_m2686599243_gshared
oL:__ZN9BlobWrite8TransferI22OffsetPtrArrayTransferIKN4math7_float4EEEEvRT_PKc17TransferMetaFlags
I$b:__ZN22RenderingCommandBuffer20ExecuteCommandBufferER17ShaderPassContextR15RenderNodeQueuejP13dynamic_arrayINSt3__24pairIN9ShaderLab16FastPropertyNameEP13RenderTextureEELj4EE16ComputeQueueTypeSA_
Txi:_Transform_IsChildOf_m224006092
wab:__ZN15TextureSettings8TransferI24GenerateTypeTreeTransferEEvRT_
VOc:__ZN9JSONWrite8TransferI4AABBEEvRT_PKc17TransferMetaFlags
e_a:__ZN25MultiBlocksMemoryFileData9SetLengthEy
uyj:__Z58RuntimeInvoker_Void_t1185182177_ContactPoint2D_t3390240644PFvvEPK10MethodInfoPvPS4_
$Wg:_InternalEnumerator_1_get_Current_m3191242573_AdjustorThunk
pIe:__ZNK18ScBeforeSolverTask7getNameEv
Qid:__ZN10Collider2D13AwakeFromLoadE17AwakeFromLoadMode
gvk:_Dictionary_2_Do_ICollectionCopyTo_TisRuntimeObject_m1855083806_gshared
gBl:_Aes__ctor_m178909601
mfb:__ZNK9Texture2D20GetRuntimeMemorySizeEv
vGc:__ZN11Marshalling39CreateNullExceptionForUnityEngineObjectE18ScriptingObjectPtr
zve:__ZN5physx14solve1D4_BlockEPKNS_23PxcSolverConstraintDescEjRNS_16PxcSolverContextE
$Kc:__ZN5Unity9rapidjson13GenericReaderINS0_4UTF8IcEES3_13JSONAllocatorE9ParseTrueILj0ENS0_19GenericStringStreamIS3_EENS0_15GenericDocumentIS3_S4_S4_EEEEvRT0_RT1_
qn:_emscripten_glUniform2iv
XUd:__ZN5physx2Sc8ShapeSim17onTransformChangeEv
Wqd:__ZL33GeomMTDCallback_ConvexHeightFieldRN5physx6PxVec3ERfRKNS_10PxGeometryERKNS_11PxTransformES5_S8_
vMi:_UnicodeEncoding_CopyChars_m785272451
F1e:_UNITY_FT_Outline_Transform
AEc:__Z60Register_UnityEngine_Sprites_DataUtility_Internal_GetMinSizev
iVl:__ZN6il2cpp2vm5Class10GetMethodsEP11Il2CppClassPPv
j4b:__Z30AddDefaultStreamsToMeshBuffersR9GfxDeviceR11MeshBuffersRK16DrawBuffersRange17ShaderChannelMaskS6_
ESc:__Z43ParticleSystemRenderer_RenderMultipleMeshesIL21SpriteMaskInteraction1EEvRK15RenderNodeQueueRK18RenderMultipleData17ShaderChannelMask
DOa:__ZN7ApiGLES17DeleteFramebufferERN2gl6HandleILNS0_10ObjectTypeE9EEES3_
fSa:__ZN15UniformTFMethod13MapBoneBufferEj
vif:__ZN2UI14CanvasRendererD2Ev
Pwk:_Array_InternalArray__get_Item_TisParameterModifier_t1461694466_m29553316_gshared
fng:_Int64_CompareTo_m1928360444_AdjustorThunk
GAe:__ZN5physx26PxcPCMContactCapsuleConvexERKNS_2Gu13GeometryUnionES3_RKNS_11PxTransformES6_RKfRNS_10PxcNpCacheERNS0_13ContactBufferE
zbm:__ZN15dense_hashtableINSt3__24pairIK10KeyWrapperINS1_IPK9EventInfoP11Il2CppClassEEEjEES9_17ReflectionMapHashIS8_EN14dense_hash_mapIS9_jSD_NS9_14EqualsComparerINS0_8equal_toIS8_EEEENS0_9allocatorISB_EEE9SelectKeyESI_SK_E15set_deleted_keyERKSB_
zVb:__Z9SetupArgviPPKc
Phg:_Convert_ToInt64_m2075031821
PPi:_Scheduler__cctor_m4042462055
fCl:_AnalyticsEventTracker_OnDisable_m1553012800
tRm:_glTexParameteri__wrapper
COd:__ZN5physx10PxsContext17addParticleSystemEPNS_15PxsParticleDataERKNS_26PxvParticleSystemParameterEb
yMd:__ZN5physx3Scb5Scene13addRigidNoSimINS0_4BodyELb1ELb1EEEvRT_RNS0_13ObjectTrackerE
neb:__ZN12CubemapArray23VirtualRedirectTransferER24GenerateTypeTreeTransfer
fda:__ZN12FileAccessor4OpenER15FileSystemEntry14FilePermission16FileAutoBehavior
Eqm:__ZN6il2cpp2os9Directory6CreateERKNSt3__212basic_stringIcNS2_11char_traitsIcEENS2_9allocatorIcEEEEPi
gwd:__ZL19sweepBoxVsTrianglesjPKN5physx10PxTriangleERKNS_2Gu3BoxERKNS_6PxVec3EfRNS_10PxSweepHitENS_7PxFlagsINS_9PxHitFlag4EnumEtEEbPKj
kia:__ZN23TransformChangeDispatch32QueueTransformChangeIfHasChangedERK15TransformAccess
mZe:_PxCreateCooking
udb:__ZNSt3__26vectorINS_4pairIN9ShaderLab16FastPropertyNameEN18UnityPropertySheet11UnityTexEnvEEENS_9allocatorIS6_EEE21__push_back_slow_pathIKS6_EEvRT_
qMf:_Assembly_get_FullName_m293988418
jod:__ZN22WorldContactListener2D8PreSolveEP9b2ContactPK10b2Manifold
bvc:__Z15WeldVertexArrayR13dynamic_arrayI8Vector3fLj4EERS_I12BoneWeights4Lj4EERS_IjLj4EES7_
B:tempValue
bCm:__ZN6il2cpp8metadata24Il2CppGenericContextHash4HashEPK20Il2CppGenericContext
HWg:_InternalEnumerator_1_get_Current_m356936020_AdjustorThunk
WHk:_Collection_1_CheckWritable_m1583234367_gshared
umg:_Int32_ToString_m141394615_AdjustorThunk
Gaa:__Z29scripting_class_from_fullnamePKcS0_S0_
hpg:_Directory_GetCurrentDirectory_m219218555
Fxi:_Transform_TransformDirection_m3784028109
g1f:_SmallXmlParser_UnexpectedEndError_m1914362401
xI:__ZN26AnimatorControllerPlayable18DeallocateBindingsEv
drd:__ZN5physx2Gu29ConvexVsMeshContactGeneration20generateLastContactsEv
hrj:__Z85RuntimeInvoker_Boolean_t97287965_Ray_t3785851493_Single_t1397266774_Int32_t2950945753PFvvEPK10MethodInfoPvPS4_
uHa:__ZN14DelayedDeletorI15dense_hashtableINSt3__24pairIK9TextureIDiEES3_14GfxGenericHashIS3_EN14GfxDoubleCacheIS3_iS7_NS1_8equal_toIS3_EEN31GfxDoubleCacheConcurrencyPolicy11LocklessGetE42GfxDoubleCacheDefaultEmptyDeletedGeneratorIS3_EE9SelectKeyESA_13stl_allocatorIS5_L18MemLabelIdentifier24ELi16EEEEclEv
UY:__ZN11AudioSource19CreateOpenALRolloffEfff
U6e:_UNITY_FT_Stream_ReadAt
M7d:__ZN5physx2Sc17ParticleSystemSim16getParticleStateEv
mPl:_Physics_Raycast_m3336206959
vHe:__ZN5physx6shdfnd5ArrayINS_25PxsCompoundContactManagerENS0_19ReflectionAllocatorIS2_EEE8recreateEj
jQi:_TimeSpan__ctor_m1896986612_AdjustorThunk
E$f:_ArgumentException__ctor_m1216717135
bsi:_Ray_ToString_m1732834890_AdjustorThunk
q7c:__Z19UpdateSingleRow2TplIL27ParticleSystemCurveEvalMode3ELS0_1EEvfRK11MinMaxCurveS3_RK23ParticleSystemParticlesPfbiii
n2k:_List_1_System_Collections_IList_Contains_m3860993176_gshared
rye:__ZN5physx14PxsAABBManagerC2ERNS_2Cm13EventProfilerERNS_19PxcScratchAllocatorE
IZ:__ZN11AudioModule22CreateAudioClipFromWWWEP10IWWWStreamPKcbbi
Llc:__ZN9Texture2DC2E10MemLabelId18ObjectCreationMode
Glh:_ObjectRecord_get_IsUnsolvedObjectReference_m1163921033
YTi:_UInt32_System_IConvertible_ToBoolean_m1763673183_AdjustorThunk
Tui:_SceneManager_INTERNAL_CALL_GetActiveScene_m1427626561
Aki:_UnityEvent_AddListener_m2276267359
Bkf:__Z13RegisterClassIN2UI11CanvasGroupEEvv
ehc:__ZN6prcoreL11inner_clearILj4EEEvPhjjj
ig:_emscripten_glClear
Yal:_CameraFollow_Awake_m2220155126
qri:_Quaternion_Euler_m3049309462
$pa:__ZNK8Playable6HandleEv
jnh:_SetPropertyUtility_SetColor_m2229203028
r4g:_Enumerator_MoveNext_m481679286_gshared
n5b:__Z30SetupBakedOcclusionForGeometrybRK26SharedLightmapSettingsDataRK15LightmapIndicesR17ShaderPassContext
lba:__ZN14MessageHandler28MessageIDToMessageIdentifierEi
kkb:__ZNK11SpriteAtlas20GetRuntimeRenderDataEPK6Sprite
Zog:_FileSystemInfo__ctor_m3035148496
Mlg:_Int32_System_IConvertible_ToDecimal_m2190376994_AdjustorThunk
vef:__ZN20TextRenderingPrivate15DynamicFontData36GetFaceForCharacterIfAvailableInFontERKNS_7FontRefERK13dynamic_arrayI4PPtrIN13TextRendering4FontEELj4EEj
vG:__ZN7mecanim14ValueArrayCopyILb0EEEvPKNS_10ValueArrayEPS1_
AQ:__Z51Register_UnityEngine_Animator_get_hasBoundPlayablesv
ye:emscriptenWebGLGetUniform
Xp:FUNCTION_TABLE_iiiiiiiiiii
tyl:_GUI_CallWindowDelegate_m3309453386
l5e:_cff_set_mm_blend
kyd:__ZN5physx2Gu19sweepCapsuleCapsuleERKNS0_7CapsuleES3_RKNS_6PxVec3EfRfRS4_S8_jRt
U9b:__ZL10CleanUpJobP20CullingGroupsJobData
Uog:_DirectoryInfo_get_Exists_m3142069876
ILe:__ZN5physx13BigConvexData4LoadERNS_13PxInputStreamE
M_b:__ZN13RenderManager15BatchModeUpdateEv
FNh:_X509Chain_get_CertificateAuthorities_m804805415
ujb:__ZN14SafeBinaryRead21TransferSTLStyleArrayI13dynamic_arrayI8Vector2fLj4EEEEvRT_17TransferMetaFlags
Wea:__ZN17PersistentManager51InstanceIDToLocalSerializedObjectIdentifierInternalEiR31LocalSerializedObjectIdentifier
cui:_Vector2_get_one_m738793577
Lkd:__ZN10ClipperLib7Clipper15SetWindingCountERNS_5TEdgeE
Drc:__ZNK4Mesh14GetIndexFormatEv
Iyi:_Vector2_get_magnitude_m2752892833_AdjustorThunk
HVd:__ZN5physx2Sc8ActorSim24postDominanceGroupChangeEv
ae:_glVertexAttribIPointer
Tli:_Input_GetAxisRaw_m2316819917
WNa:__ZN13dynamic_arrayI21ComputeShaderResourceLj4EE9push_backERKS0_
$rc:__ZNK6Sprite10GetPaddingE20SpriteRenderDataMode
zWd:__ZN5physx2Cm8PtrTable5clearERNS0_22PtrTableStorageManagerE
oCi:_Array_InternalArray__ICollection_Remove_TisUInt32_t2560061978_m733727733_gshared
fAg:_CryptographicException__ctor_m503735289
WBd:__ZN5physx3Cct15ObstacleContext7releaseEv
dve:__ZN5physx27solveFrictionBlockWriteBackEPKNS_23PxcSolverConstraintDescEjRNS_16PxcSolverContextEPNS_25PxcThresholdStreamElementEjPi
Pgh:_RemotingConfiguration_get_ApplicationName_m593755586
g9i:__Z93RuntimeInvoker_Boolean_t97287965_Int32_t2950945753_SByte_t1669577662_ExceptionU26_t3600731591PFvvEPK10MethodInfoPvPS4_
d2b:__ZN14qsort_internal5QSortIP15RODataDepthPassi17ROSorterDepthPassEEvT_S4_T0_T1_
E7e:_UNITY_ft_glyphslot_alloc_bitmap
m$e:__ZN13PhysicsModule21SetAutoSyncTransformsEbb
uKk:_ReadOnlyCollection_1_System_Collections_IList_Add_m3642938800_gshared
UNg:_RSASslSignatureDeformatter_SetHashAlgorithm_m895570787
jnm:__ZN14dense_hash_mapI10KeyWrapperIP12Il2CppObjectEN6il2cpp2gc9CachedCCWENS4_5utils11PointerHashIS1_EENS3_14EqualsComparerINSt3__28equal_toIS2_EEEENSB_9allocatorINSB_4pairIKS3_S6_EEEEEC2EjRKS9_RKSE_
Lll:_X509CrlEntry__ctor_m4013514048
Koj:__Z87RuntimeInvoker_Color_t2555686324_Color_t2555686324_Color_t2555686324_Single_t1397266774PFvvEPK10MethodInfoPvPS4_
xcf:_ft_raster1_render
jHc:__Z47Register_UnityEngine_Mesh_RecalculateBoundsImplv
YBa:__ZN9GfxDevice27UpdateComputeSkinPoseBufferEP9GfxBufferP12SkinMeshInfo
D_h:_String_LastIndexOf_m3451222878
sGm:__ZNKSt3__221__basic_string_commonILb1EE20__throw_length_errorEv
o3i:_EqualityComparer_1_System_Collections_IEqualityComparer_Equals_m245992594_gshared
bk:_JS_SystemInfo_GetMemory
cxh:_Selectable_get_allSelectables_m868218263
EJm:dynCall_fiffifi
jGi:_Array_InternalArray__IndexOf_TisParameterModifier_t1461694466_m1227120810_gshared
EPa:__ZN18GfxFramebufferGLES13ReadbackImageER14ImageReferenceiiiiii
DLc:__ZN5Unity9rapidjson6WriterI16TempBufferWriterNS0_4UTF8IcEES4_13JSONAllocatorE11WriteStringEPKcj
imh:_SerializationInfo_SetType_m3923964808
hLa:__ZN6prcoreL12RemapGenericI17TexFormatARGB888815TexFormatRGB565EEvPKNS_9InnerInfoE
yU:__ZN4FMOD7Channel19setReverbPropertiesEPK29FMOD_REVERB_CHANNELPROPERTIES
cDl:_StandardEventPayload_GetParameters_m2672427676
Nsg:_StreamReader_Dispose_m156389394
W9:__ZN13MonoBehaviour22GetScriptFullClassNameEv
C_c:__ZN11MinMaxCurve19GetWritableMinCurveEv
iSh:_RIPEMD160Managed_JJ_m112143231
z_k:_List_1_System_Collections_IList_Contains_m727430316_gshared
CHe:__ZN5physx6shdfnd4sortIPNS_15PxsContactPatchENS_27SortBoundsPredicateManifoldENS0_19ReflectionAllocatorIS3_EEEEvPT_jRKT0_RKT1_j
DAc:__Z48Register_UnityEngine_GameObject_BroadcastMessagev
B1b:__ZN13BatchRendererC2ER15RenderLoopStatsRK15RenderNodeQueuebb
sCb:__ZNK16MemoryFileSystem9EnumerateEPKcP19dynamic_block_arrayI13FileEntryInfoLj32EEbPPv19FileEnumerationFlag
xTb:__ZN13MonoBehaviour9CallAwakeEv
$8a:__ZN20SphericalHarmonicsL211AddWeightedERKS_f
icj:__Z82RuntimeInvoker_RuntimeObject_Int64_t3736567304_Int64_t3736567304_Int64_t3736567304PFvvEPK10MethodInfoPvPS4_
uuh:__Z14bankers_roundff
GIb:__Z19TransferField_ArrayI17RemapPPtrTransfer27Converter_SimpleNativeClassI8GUIStyleEEvRK23StaticTransferFieldInfoR31RuntimeSerializationCommandInfoRT0_
nMc:__ZN9JSONWrite8TransferI10ColorRGBAfEEvRT_PKc17TransferMetaFlags
pBd:__ZN5physx3Cct26CharacterControllerManager16createControllerERKNS_16PxControllerDescE
fba:__Z25scripting_method_get_name18ScriptingMethodPtr
dOg:_SslCipherSuite_ComputeKeys_m661027754
ZGb:__Z19TransferField_ArrayI14SafeBinaryRead16Converter_StringEvRK23StaticTransferFieldInfoR31RuntimeSerializationCommandInfoRT0_
Fpi:_Object_set_name_m291480324
vVc:__ZN14ParticleSystem17SimulateParticlesER24ParticleSystemUpdateDataR23ParticleSystemParticlesjRKfPj
A6h:_Decimal_Equals_m2486655999
Lxm:_GC_exit_check
Yz:__ZN7mecanim9animation9DenseClip8TransferI14SafeBinaryReadEEvRT_
I5c:__ZL24GenerateParticleGeometryIL24ParticleSystemRenderMode0ELb1ELb1EL25ParticleSystemRenderSpace4EEvPfRK22ParticleSystemTempDataRK26ParticleSystemRendererDataRK21ParticleSystemModulesRK23ParticleSystemParticlesRK31ParticleSystemParticlesTempData
Yrd:__ZNK5physx2Gu15OBBTriangleTest10obbTriTestERKNS_6PxVec3ES4_S4_
IWf:_MonoField_ToString_m2518484388
zEh:_DSAManaged_get_Random_m923751780
_8g:_Transform_1_Invoke_m2385719192_gshared
X8c:__ZN10SizeModuleC2E10MemLabelId
ezi:_Vector3_set_Item_m1772472431_AdjustorThunk
yQh:_Interpreter_PopulateGroup_m4042796257
rSi:_Type_GetProperty_m3414567179
eim:__ZN6il2cpp2vm13LivenessState25FieldCanContainReferencesEP9FieldInfo
Kdc:__ZNSt3__26vectorINS_4pairIN4core12basic_stringIcNS2_20StringStorageDefaultIcEEEES6_EE13stl_allocatorIS7_L18MemLabelIdentifier38ELi16EEE6insertENS_11__wrap_iterIPKS7_EERSD_
$ki:_RenderPipelineManager_DoRenderLoop_Internal_m3799666479
fL:__ZN9BlobWrite8TransferI22OffsetPtrArrayTransferI9OffsetPtrIN7mecanim12statemachine18StateMachineMemoryEEEEEvRT_PKc17TransferMetaFlags
rAm:__ZN6il2cpp2os12Cryptography23GetCryptographyProviderEv
xEk:_Collection_1_System_Collections_IList_IndexOf_m3894953546_gshared
ead:__Z73Register_UnityEngine_ParticleSystem_MainModule_SetStartLifetimeMultiplierv
Xjl:_PKCS12_get_Certificates_m26161562
mIh:_NameObjectCollectionBase_Init_m2525481323
nuk:_Array_swap_TisBoolean_t97287965_m2293774148_gshared
kYk:_List_1_Insert_m1582252370_gshared
OSl:_ParticlePhysicsExtensions_GetCollisionEvents_m1108737549
czg:_SByte_System_IConvertible_ToByte_m2268214252_AdjustorThunk
nqm:__ZN6il2cpp2os10ThreadImpl12QueueUserAPCEPFvPvES2_
Zql:_RegularExpression__ctor_m119502265
Vqf:__ZN22BaseUnityConnectClient10QueueEventERN11UnityEngine15CloudWebService17CloudServiceEventEPKcjb
xMk:_ReadOnlyCollection_1_System_Collections_Generic_ICollectionU3CTU3E_Clear_m522482168_gshared
Cnd:__ZN13ProduceHelperI17PhysicsMaterial2DLb0EE7ProduceE10MemLabelId18ObjectCreationMode
S9k:_BossFight_Update_m1464572148
$fh:_ConstructionCall_InitMethodProperty_m2021094586
Rxd:__ZNK5physx2Gu15HeightFieldUtil12traceSegmentI25CapsuleTraceSegmentReportLb0ELb0ELb1EEEvRKNS_6PxVec3ES6_PT_PS5_
OUc:__Z9UpdateTplIL27ParticleSystemCurveEvalMode1EEvRK11MinMaxCurveR23ParticleSystemParticlesjjbjRK8Vector2f
Fze:__ZN5physx10PxsContext23prepareCMDiscreteUpdateEPNS_10PxBaseTaskE
Wba:__ZNK14SerializedFile12GetHighestIDEv
Y0e:__Z43Register_UnityEngine_SpringJoint_set_damperv
Rkk:__ZL74CanvasScaler_t2767979955_CustomAttributesCacheGenerator_m_DefaultSpriteDPIP21CustomAttributesCache
aWd:__ZN5physx6shdfnd5ArrayIPvNS0_19ReflectionAllocatorINS_2Cm5BlockIhLj256EEEEEE4copyINS0_15InlineAllocatorILj256ES7_EEEEvRKNS1_IS2_T_EE
sg:_emscripten_glGetError
iam:__ZN15dense_hashtableINSt3__24pairIK10KeyWrapperIPK14Il2CppAssemblyEPK22Il2CppMonoAssemblyNameEES6_N6il2cpp5utils11PointerHashIS4_EEN14dense_hash_mapIS6_SA_SF_NS6_14EqualsComparerINS0_8equal_toIS5_EEEENS0_9allocatorISB_EEE9SelectKeyESK_SM_E14squash_deletedEv
jV:__Z14FMOD_FILE_SeekPvjS_
GZd:__ZN5physx6shdfnd8PoolBaseINS_11NpAggregateENS0_19ReflectionAllocatorIS2_EEE15disposeElementsEv
K9a:__ZN7TextureC2E10MemLabelId18ObjectCreationMode
yqh:_LayoutGroup__ctor_m2162961217
yof:__Z56Register_UnityEngine_Analytics_CustomEventData_AddStringv
Vac:__ZNK13RenderTexture32CalculateNeedsInvertedProjectionEv
KBd:__ZN5physx2Gu17RadixSortBuffered4SortEPKfj
Ag:emscriptenWebGLGet
tma:__Z19CanReplaceComponentRN5Unity9ComponentEPKNS_4TypeEPN4core12basic_stringIcNS5_20StringStorageDefaultIcEEEE
Nug:_UnmanagedMemoryStream_Flush_m1540584491
kjg:_GuidParser_ParseGuid2_m1914838819
Elc:__ZN12CubemapArray11InitTextureEiii13TextureFormatb
zLa:__ZN6prcoreL18BlitIntegerToFloatERK14ImageReferenceRS0_
m4c:__ZN32CustomDataModulePropertyBindings13SetFloatValueER14ParticleSystemif
zvc:__Z17GetSceneBuildInfoRKN4core12basic_stringIcNS_20StringStorageDefaultIcEEEEiR14SceneBuildInfo
oig:_Convert_ToSingle_m3983149863
hRg:_InternalEnumerator_1_System_Collections_IEnumerator_get_Current_m55999184_gshared
FIf:_Graphic_get_depth_m815589653
LId:__ZN27ConvexVsMeshOverlapCallbackC2ERKN5physx2Gu10ConvexMeshERKNS0_11PxMeshScaleERKNS0_2Cm23FastVertex2ShapeScalingERKNS0_11PxTransformESE_bRKNS1_3BoxE
Jtc:__Z18SetIParticleSystemP15IParticleSystem
OL:__ZN7mecanim5human13HumanFixTwistEPKNS0_5HumanEPNS_8skeleton13SkeletonPoseTIN4math4trsXEEES9_iiRKf
T4b:__ZL24AssignProjectorQueuesJobP30AssignProjectorQueuesJobHeader
tYf:_ParameterModifier_t1461694466_marshal_pinvoke
iZl:__ZN15dense_hashtableINSt3__24pairIK10KeyWrapperIN6il2cpp5utils13dynamic_arrayIPK10Il2CppTypeLj4EEEEPFvvEEESA_NS3_8metadata19Il2CppSignatureHashEN14dense_hash_mapISA_SD_SG_NSA_14EqualsComparerINSF_22Il2CppSignatureCompareEEENS0_9allocatorISE_EEE9SelectKeyESK_SM_E4swapERSP_
Pjg:_Int16_System_IConvertible_ToUInt32_m3410279543
bza:__ZN9ShaderLab20SerializedSubProgram14SetConstBufferEPKci
PTc:__ZN11ShapeModule9ResetSeedERK27ParticleSystemReadOnlyState
s3l:__ZN6il2cpp2os4File5CloseEPNS0_10FileHandleEPi
U_e:__ZN13PhysicsModule17SetRigidBodyStateER9RigidbodyRKN8IPhysics14RigidBodyStateE
v2e:_cf2_getStdVW
CTi:_UInt16_CompareTo_m2664746316_AdjustorThunk
oAa:__ZN9GfxDevice13SetActiveTierE12GraphicsTier
Hqe:__ZN5physx2Sq12BucketPruner11shiftOriginERKNS_6PxVec3E
$Qc:__Z29Transfer_Blittable_ArrayFieldI8JSONReadjEvRT_R9ArrayInfoRK23StaticTransferFieldInfo
$Ld:__ZN5physx6shdfnd5ArrayIPNS_2Sc16ArticulationCoreENS0_19ReflectionAllocatorIS4_EEE15growAndPushBackERKS4_
Rxm:_GC_check_finalizer_nested
gh:__setLetterbox
vwh:_ScrollRect_OnScroll_m3861066534
bGe:__ZN5physx19normalizePartitionsERNS_6shdfnd5ArrayIjNS0_19ReflectionAllocatorIjEEEEPNS_23PxcSolverConstraintDescEPKNS_13PxcSolverBodyEjjS5_
v6j:__ZL72FormerlySerializedAsAttribute_t2859083114_CustomAttributesCacheGeneratorP21CustomAttributesCache
Emh:_OnValidateInput_Invoke_m1009124904
Tsd:__ZN18ContactCapsuleMesh20processTriangleCacheILj16EEEbRN5physx2Gu13TriangleCacheIXT_EEE
Nnl:_PatternCompiler_EmitFastRepeat_m3012952683
Qmb:__ZNSt3__26vectorI17BlendShapeChannelNS_9allocatorIS1_EEE6assignINS_11__wrap_iterIPS1_EEEENS_9enable_ifIXaasr21__is_forward_iteratorIT_EE5valuesr16is_constructibleIS1_NS_15iterator_traitsISA_E9referenceEEE5valueEvE4typeESA_SA_
Qfc:__ZN11TimeManager11GetRealtimeEv
IHd:__ZN5physx2Sc16InteractionScene25removeFromActiveActorListERNS0_5ActorE
DV:__ZN29AudioEffectInternalDefinitionC2EP26UnityAudioEffectDefinitionb
LRk:_ReadOnlyCollection_1_System_Collections_IList_Remove_m2434650390_gshared
VTi:_UInt16_ToString_m3056878594_AdjustorThunk
DTc:__ZNK11MinMaxCurve20FindMinMaxIntegratedEv
TCd:__ZN5physx3Ext21InertiaTensorComputer6rotateERKNS_7PxMat33E
vRh:_Interval_get_IsSingleton_m3386290029
d5l:__ZNSt3__2plIcNS_11char_traitsIcEENS_9allocatorIcEEEENS_12basic_stringIT_T0_T1_EERKS9_PKS6_
twi:_Time_get_unscaledDeltaTime_m4270080131
gFe:__ZN5physx22PxcDiscreteNarrowPhaseERNS_18PxcNpThreadContextERNS_13PxcNpWorkUnitE
gKa:_stbir_resize
vFi:_Array_IndexOf_TisCustomAttributeTypedArgument_t2723150157_m3158556463_gshared
qai:_Environment_GetOSVersionString_m407782784
e0h:_DecoderExceptionFallback_Equals_m1082173956
aLj:__ZL69Assembly_t_CustomAttributesCacheGenerator_Assembly_GetName_m981771927P21CustomAttributesCache
yfd:__ZN24b2ChainAndCapsuleContact6CreateEP9b2FixtureiS1_iP16b2BlockAllocator
k_a:__Z37ReadDirectoryInfo_UnityWebAndUnityRawR12FileAccessorRKN20ArchiveStorageHeader6HeaderERNS1_13DirectoryInfoE
rRl:_Physics2D_INTERNAL_CALL_Internal_OverlapCircleAll_m991066286
Ela:__ZNSt3__26__treeINS_12__value_typeIPKciEENS_19__map_value_compareIS3_S4_15compare_tstringIS3_ELb1EEENS_9allocatorIS4_EEE7destroyEPNS_11__tree_nodeIS4_PvEE
NJi:_Array_InternalArray__Insert_TisIntPtr_t_m189626842_gshared
Fmg:_Int64_System_IConvertible_ToByte_m375085029_AdjustorThunk
ADg:_RijndaelManaged_CreateEncryptor_m263736311
zrf:__ZN13dynamic_arrayIN4core12basic_stringIcNS0_20StringStorageDefaultIcEEEELj4EE6assignEPKS4_S7_
b2b:__ZN20DynamicPropertySheet14SetValueQueuedEN9ShaderLab16FastPropertyNameEN19ShaderPropertySheet12PropertyTypeEjNS2_8SetFlagsE
jjf:__ZN2UI6Canvas26MarkAllNestedCanvasesDirtyEv
fki:_InvokableCallList_ClearPersistent_m1904264973
ZUb:__ZN25PathNamePersistentManagerD2Ev
y8:__ZN17PersistentManager48IntegrateObjectAndUnlockIntegrationMutexInternalEi
ssa:__ZZ29InitializeSortingGroupManagerPvEN44PostLateUpdateSortingGroupsUpdateRegistrator7ForwardEv
sek:__ZL55EventTrigger_t1076084509_CustomAttributesCacheGeneratorP21CustomAttributesCache
GXh:_SecurityElement_SearchForChildByTag_m900466299
$q:__ZN6Object12SetHideFlagsENS_9HideFlagsE
Jed:__ZN9b2Fixture11SynchronizeEP12b2BroadPhaseRK11b2TransformS4_
wUe:__ZN9Rigidbody23VirtualRedirectTransferER14SafeBinaryRead
hig:_Convert_ToSingle_m3227075028
eOm:_emscripten_glGetFramebufferAttachmentParameteriv__wrapper
m$b:__ZN13RendererScene15InitializeUmbraEv
S7a:__Z28CalculateGlobalMatrixInverse23TransformAccessReadOnly
pZc:__ZN23ParticleSystemParticles17SetUsesCustomDataEi
_5i:_GenericEqualityComparer_1_Equals_m3457564127_gshared
oEg:_BigInteger_ModInverse_m2426215562
a0h:_DecoderExceptionFallback__ctor_m4044614564
_7d:__ZNK5physx15PxsParticleData15getWorldBoundsVEv
Sug:_LocalDataStoreSlot__cctor_m644942532
Pyd:__ZN12_GLOBAL__N_124HfTrianglesEntityReport27onEventEjPj
$Bm:__ZN6il2cpp6icalls8mscorlib6System6Object7GetTypeEP12Il2CppObject
xXf:_MonoProperty_CachePropertyInfo_m2968057423
Muf:__ZNK25UnityWebRequestJavaScript18GetDownloadedBytesEv
$ri:_Ray_GetPoint_m1852405345_AdjustorThunk
$Ud:__ZN5physx17PxsContactManager16resetCachedStateEv
Euf:__ZN12HeaderHelper14SetUnvalidatedERKN4core12basic_stringIcNS0_20StringStorageDefaultIcEEEES6_b
BR:__ZN4FMOD6SoundI7releaseEv
Xce:__ZN5physx20NpRigidActorTemplateINS_14PxRigidDynamicEE15setActorSimFlagEb
Xob:__ZN14SpriteRenderer13AwakeFromLoadE17AwakeFromLoadMode
Z3e:_cff_parse_num
O_a:__ZN10MemoryFile9SetLengthEy
Dv:__ZN7mecanim10ValueArray8TransferI19StreamedBinaryWriteILb0EEEEvRT_
CZc:__ZN11ShapeModule17DidModifyMeshDataEv
$Tb:__Z28scripting_class_is_interface17ScriptingClassPtr
xi:_glTexStorage2D
seg:_SyncHashtable_get_Item_m2686606216
yya:__ZNK9ShaderLab10SubProgram14EnsureCompiledEv
OSf:_MethodBuilder_GetGenericArguments_m1765425737
Q2h:_DateTime_CompareTo_m3687348273
Gwm:_GC_push_marked
Y3h:_DateTime_ToUniversalTime_m1945318289_AdjustorThunk
DXe:__ZN5physx7profile10DataBufferINS_6shdfnd6MutexTINS0_26WrapperReflectionAllocatorIhEEEENS0_14ScopedLockImplIS6_EEE17handleBufferFlushEPKhj
Xaa:__Z18BuildScriptClassId17ScriptingClassPtr
rLl:_TextGenerator_Init_m1168488231
Lxi:_Transform_LookAt_m3649447396
nYa:__ZL31DeleteLastPathNameComponentImplRKN4core12basic_stringIcNS_20StringStorageDefaultIcEEEEPKc
uic:__Z13RegisterClassI18DelayedCallManagerEvv
hrf:__ZN18UnityConnectClient15GetCloudServiceEv
UIb:__Z18Transfer_BlittableI24GenerateTypeTreeTransferLb0EiEvRK29SerializationCommandArgumentsR31RuntimeSerializationCommandInfo
OIe:__ZN5physx20PxsConstraintProjectEPKNS_13PxsConstraintEbf
G0d:__ZN5physx7NpShape7setFlagENS_11PxShapeFlag4EnumEb
GVg:_InternalEnumerator_1_get_Current_m2698009637_gshared
R$l:__ZN6il2cpp2os19SocketHandleWrapperD2Ev
cfd:__ZN15b2CircleContact6CreateEP9b2FixtureiS1_iP16b2BlockAllocator
UTb:__ZL28SerializationCommandGroupForRK31TransferFunctionScriptingTraits17ScriptingClassPtr17ScriptingFieldPtrRK20CoreScriptingClasses
t1a:__ZN10TagManager32RegisterDefaultTagsAndLayerMasksEv
dQi:_WaitHandle_Dispose_m738127030
mij:__Z50RuntimeInvoker_Double_t594665363_Int32_t2950945753PFvvEPK10MethodInfoPvPS4_
LEe:__ZN5physx2Sc35ParticleElementRbElementInteraction12onDeactivateEj
Fsj:__Z104RuntimeInvoker_Void_t1185182177_Color_t2555686324_Single_t1397266774_SByte_t1669577662_SByte_t1669577662PFvvEPK10MethodInfoPvPS4_
aXk:_Enumerator_System_Collections_IEnumerator_get_Current_m1540440674_gshared
BYh:_Single_System_IConvertible_ToInt16_m809233024_AdjustorThunk
Gof:__Z56Register_UnityEngine_Analytics_CustomEventData_AddUInt32v
EEm:_fmodf
Hmh:_InputField_UpdateLabel_m1837760870
wGa:__ZN4gles8InitCapsEP7ApiGLESP12GraphicsCapsR16GfxDeviceLevelGL
YDa:__ZN13GfxDeviceGLES22GetNativeBufferPointerEP9GfxBuffer
N4a:__Z24CalculateVertexLightDataRK15SharedLightDataR14GfxVertexLight
fj:_glEnable
v8l:__ZN15dense_hashtableINSt3__24pairIK10KeyWrapperINS1_IPK12PropertyInfoP11Il2CppClassEEEjEES9_17ReflectionMapHashIS8_EN14dense_hash_mapIS9_jSD_NS9_14EqualsComparerINS0_8equal_toIS8_EEEENS0_9allocatorISB_EEE9SelectKeyESI_SK_E15insert_noresizeERKSB_
vya:__ZNK9ShaderLab7Program28BeginReadUnsupportedVariantsEv
are:__ZN5physx2Sq10AABBPrunerC2Eb
Yha:__ZN12CachedWriter11Align4WriteEv
nvb:__ZNSt3__26vectorIN30RuntimeInitializeOnLoadManager9ClassInfoE13stl_allocatorIS2_L18MemLabelIdentifier13ELi16EEE7reserveEj
rme:__ZN5physx2Sq8AABBTreeC2Ev
snl:_PatternCompiler_EmitCategory_m851169746
AMc:__Z35Transfer_Blittable_FixedBufferFieldI9JSONWriteiEvRK29SerializationCommandArgumentsR31RuntimeSerializationCommandInfo
I3c:__ZN11TrailModuleD2Ev
GCh:_BigInteger_op_Subtraction_m1575155386
Mbl:_ButtonHandler_SetAxisPositiveState_m3921153019
pI:__ZN26AnimatorControllerPlayable17ProcessRootMotionEP35AnimationPlayableEvaluationConstantP32AnimationPlayableEvaluationInputP33AnimationPlayableEvaluationOutput
EHg:_RSAManaged_ImportParameters_m1117427048
rug:_UnexceptionalStreamReader_Peek_m1842169584
BCl:_AnalyticsTracker_SendEvent_m2955089255
Kpf:__ZN11UnityEngine7Connect15DeviceInfoEvent16CollectExtraInfoEv
oum:__ZN6il2cpp2os11Environment22SetEnvironmentVariableERKNSt3__212basic_stringIcNS2_11char_traitsIcEENS2_9allocatorIcEEEESA_
QLe:__ZN5physx2Gu10ConvexMeshD2Ev
wAg:_CryptographicException__ctor_m1422015889
$9l:__ZN6il2cpp2gc19AppendOnlyGCHashMapIPK10Il2CppTypeP20Il2CppReflectionTypeNS_8metadata14Il2CppTypeHashENS7_26Il2CppTypeEqualityComparerEEC2Ev
Ezi:_Vector4_Equals_m1779210055_AdjustorThunk
F7a:__ZN17LightBakingOutput8TransferI19StreamedBinaryWriteILb0EEEEvRT_
v$a:__ZN20ArchiveStorageReader10InitializeER15FileSystemEntryyb
Hum:__ZThn8_N6il2cpp2vm13CachedCCWBaseINS0_13ManagedObjectEE6AddRefEv
YSf:_TypeBuilder_CreateType_m3375483507
Odh:_RemotingServices_GetRealProxy_m2081098851
fEh:_BlockProcessor_Core_m189015002
mOm:_emscripten_glScissor__wrapper
aq:FUNCTION_TABLE_viifi
dq:FUNCTION_TABLE_viiff
_ei:_AnimationCurve_GetKey_Internal_m1174643252
TFd:__ZNK5physx2Sc8ShapeSim10getBodySimEv
L$f:_X501__cctor_m1166912714
Ssh:_MaskUtilities_GetRectMasksForClip_m532898711
Laf:_UNITY_tt_face_free_hdmx
Hhd:__ZNSt3__26__sortIRN18Overlap2DQueryBase29ColliderHitsByDepthComparitorEPP10Collider2DEEvT0_S7_T_
Dgi:_Bounds_ToString_m4208690781
Vdj:__Z88RuntimeInvoker_RuntimeObject_RuntimeObject_RuntimeObject_Int32_t2950945753_RuntimeObjectPFvvEPK10MethodInfoPvPS4_
L3l:__ZN6il2cpp2vm14TypeNameParser5ParseEb
jvg:_Math_Sqrt_m1297338011
etg:_StreamWriter_Initialize_m3490883444
ESi:_Type_GetGenericArguments_m3500465462
eWd:__ZN5physx6shdfnd5ArrayIPvNS0_19ReflectionAllocatorINS_2Cm5BlockIhLj128EEEEEE15growAndPushBackERKS2_
Ftf:__ZN23UnityPurchasingSettingsC2Ev
Eob:__ZNK9Transform13GetWorldScaleEv
FVf:_Module_IsDefined_m2423524910
mPf:_DerivedType_create_unmanaged_type_m747846525
v9j:__ZL60EventType_t3528516131_CustomAttributesCacheGenerator_repaintP21CustomAttributesCache
y3a:__ZN17GPUFenceInternals7ReleaseEv
Kjk:__ZL66Selectable_t3250028441_CustomAttributesCacheGenerator_m_NavigationP21CustomAttributesCache
m1d:__ZN5physx14NpShapeManager15setupSceneQueryERNS_2Sq17SceneQueryManagerERKNS_12PxRigidActorERKNS_7NpShapeE
Wac:__ZL10RenderFaceR9GfxDeviceR18MaterialStateCacheP13RenderTextureiif
uFi:_Array_IndexOf_TisCustomAttributeNamedArgument_t287865710_m2817957199_gshared
hva:__ZN15SerializeTraitsI13dynamic_arrayIN9ShaderLab21SerializedBindChannelELj4EEE19ResizeSTLStyleArrayERS3_i
Ykm:__ZNK24NamespaceAndNamePairHashclERKNSt3__24pairIPKcS3_EE
kjl:_ExtendedKeyUsageExtension_ToString_m2116504780
gyb:__ZNK5Unity9Component38MarkGameObjectAndComponentDependenciesER27GarbageCollectorThreadState
JIe:__ZN22ScAfterIntegrationTask11runInternalEv
xog:_BinaryReader_Read_m3708759962
Wzf:_PointerEventData_IsPointerMoving_m1902409386
RNd:__ZNK5physx2Sc9ClothCore23getExternalAccelerationEv
Cwd:__ZN5physx2Gu13coarseCullingERKNS_6PxVec3ES3_ffRKNS_10PxTriangleE
bGa:__ZN9GfxDevice26CreateDefaultVertexBuffersEv
GPm:_emscripten_glVertexAttrib2fv__wrapper
Ftg:_SynchronizedReader_ReadToEnd_m2160105378
lFe:__ZN5physx2Sc5Scene29processNarrowPhaseTouchEventsEv
uJa:__ZN4crnd12symbol_codec32decode_receive_static_data_modelERNS_25static_huffman_data_modelE
mgc:__ZN18ScriptingArguments8AddFloatEf
Iwi:_TouchScreenKeyboard_Open_m3325559252
KKf:_Image_set_fillOrigin_m469806249
Apf:__ZN11UnityEngine15PlatformWrapper16GetVRRenderScaleEv
UPd:__ZN5physx6shdfnd5ArrayIPvNS0_15InlineAllocatorILj256ENS0_19ReflectionAllocatorINS_18NpArticulationLinkEEEEEE15growAndPushBackERKS2_
ANc:__Z18Transfer_BlittableI9JSONWriteLb0EaEvRK29SerializationCommandArgumentsR31RuntimeSerializationCommandInfo
vVe:__ZN5Unity11SpringJoint8TransferI19StreamedBinaryWriteILb0EEEEvRT_
s1:__ZN11UnityEngine15CloudWebService14DataDispatcher34OnSessionContainerArchivedAndReadyERNS0_16SessionContainerE
fpi:_ConnectionChangeEvent__ctor_m764126802
Sbd:__ZN7b2World11CreateJointEPK10b2JointDef
WVc:__ZN23ParticleSystemParticles20SetUsesTriggerEventsEb
aCd:__ZNK5physx3Cct15ObstacleContext11getObstacleEj
OYf:_ResolveEventHandler_Invoke_m1337322179
OVk:_Enumerator_VerifyState_m2621680056_gshared
Url:_UriParser_InternalRegister_m3643767086
Fta:__ZN14SafeBinaryRead19TransferSTLStyleMapINSt3__23mapIN4core12basic_stringIcNS3_20StringStorageDefaultIcEEEEiNS1_4lessIS7_EENS1_9allocatorINS1_4pairIKS7_iEEEEEEEEvRT_17TransferMetaFlags
X8e:_gray_move_to
V4h:_DBNull_System_IConvertible_ToSingle_m13713620
CLk:_ReadOnlyCollection_1_System_Collections_IList_Contains_m1327645028_gshared
XKf:_Image_GetDrawingDimensions_m3060965396
M6j:__ZL69FontTextureRebuildCallback_t2467502454_CustomAttributesCacheGeneratorP21CustomAttributesCache
XSi:_TypeLoadException__ctor_m1154572625
Vxc:__Z30RegisterValidateMethodCallbackiPF18ScriptingMethodPtrS_17ScriptingClassPtrP6ObjectEPKc
jLg:_Context_get_WriteSequenceNumber_m1115956887
wvk:_Dictionary_2_Do_ICollectionCopyTo_TisKeyValuePair_2_t2401056908_m1169495264_gshared
dXc:__Z25GetTransformationMatricesPN4math8float3x3ES1_bbRK10Matrix4x4fS4_
KEf:_ContentSizeFitter__ctor_m2349275633
Rpe:__ZN5physx13IslandManager6resizeEj
i8e:_tt_cmap_init
SRc:__ZN8JSONRead8TransferI9BoundsIntEEvRT_PKc17TransferMetaFlagsb
Ya:invoke_viidi
S7c:__Z17UpdateSprites2TplIL27ParticleSystemCurveEvalMode0ELS0_2EEvfRK11MinMaxCurveS3_RK23ParticleSystemParticlesPf
ccl:_CrossPlatformInputManager_GetAxisRaw_m3082695103
MKd:__ZN5physx6shdfnd8PoolBaseINS_2Cm5BlockIPvLj16EEENS0_19ReflectionAllocatorIS5_EEE17releaseEmptySlabsEv
wIf:_Graphic_OnRectTransformDimensionsChange_m3695755375
ezg:_SByte_System_IConvertible_ToChar_m1489191771_AdjustorThunk
cU:__ZN9AudioClip7CleanupEv
qfm:__ZNK15dense_hashtableINSt3__24pairIK10KeyWrapperIP11Il2CppClassES4_EES5_N6il2cpp8metadata16SZArrayClassHashEN14dense_hash_mapIS5_S4_SA_NS5_14EqualsComparerINS9_19SZArrayClassCompareEEENS0_9allocatorIS7_EEE9SelectKeyESE_SG_E12test_deletedEj
MCd:__ZL20updateMassAndInertiabRN5physx11PxRigidBodyEPKfjPKNS_6PxVec3Eb
tQc:__Z18Transfer_BlittableI8JSONReadLb0EdEvRK29SerializationCommandArgumentsR31RuntimeSerializationCommandInfo
NXe:__ZN5physx24NpPtrTableStorageManagerC2Ev
iu:__ZN7mecanim9animation21BlendTreeNodeConstant35Transfer_4_0_BackwardsCompatibilityI14SafeBinaryReadEEvRT_
bfh:_SynchronizationAttribute_EnterContext_m1660729920
Rmf:__Z44Register_UnityEngine_Canvas_set_sortingOrderv
$Ll:_Canvas_get_referencePixelsPerUnit_m3420541976
$xl:_Event_get_current_m2393892120
jEl:_VertexHelper_Clear_m627349662
_Aa:__ZNK9GfxDevice13GetViewMatrixEv
Oug:_UnmanagedMemoryStream_Dispose_m2681886347
Iie:__ZN5physx7NpScene15flushSimulationEb
VRg:_InternalEnumerator_1_System_Collections_IEnumerator_get_Current_m1295084274_gshared
A$d:__ZN5physx6shdfnd8PoolBaseINS_10NpMaterialENS0_19ReflectionAllocatorIS2_EEE12allocateSlabEv
tca:__ZN8TypeTree8BlobReadERPKhS1_ib
l4f:_Array_Reverse_m3714848183
SGf:_Dropdown_ClearOptions_m4085591601
XDf:_CanvasUpdateRegistry_InternalRegisterCanvasElementForGraphicRebuild_m3522560454
uPe:__ZN5physx18ReducedVertexCloudC2EPKNS_6PxVec3Ej
Kvb:__ZN18LoadSceneOperation23GetAllowSceneActivationEv
T1a:__ZN6CameraD0Ev
era:__ZN31CanvasBatchIntermediateRenderer16StaticInitializeEPv
HH:__ZN7mecanim12AndValueMaskILb0EEEvPKNS_14ValueArrayMaskEPS1_
bvb:__ZN14SafeBinaryRead21TransferSTLStyleArrayINSt3__26vectorIi13stl_allocatorIiL18MemLabelIdentifier13ELi16EEEEEEvRT_17TransferMetaFlags
_Ji:_EncoderFallback__cctor_m3806755293
Uef:_raccess_guess_apple_double
s0e:__Z48Rigidbody_CUSTOM_INTERNAL_CALL_AddExplosionForceP12Il2CppObjectfRK8Vector3fffi
zNa:__ZL18ProgramUniform1uivPK7ApiGLESjiihPKv
U4c:__ZN27ShapeModulePropertyBindings13GetFloatValueERK14ParticleSystemi
Olc:__ZN14Texture2DArray13RebuildMipMapEv
hWl:__ZN13Il2CppHashSetIPK17Il2CppGenericInstN6il2cpp8metadata21Il2CppGenericInstHashENS4_24Il2CppGenericInstCompareENSt3__29allocatorI10KeyWrapperIS2_EEEEC2EjRKS5_RKS6_
pEb:__Z18Transfer_BlittableI14SafeBinaryReadLb1EaEvRK29SerializationCommandArgumentsR31RuntimeSerializationCommandInfo
urm:__ZN6il2cpp2gc16GarbageCollector14RemoveWeakLinkEPPv
cza:__ZN9ShaderLab20SerializedSubProgram14AddVectorParamEPKcii15ShaderParamTypei
O1k:_List_1_GetEnumerator_m563931292_gshared
Afg:_Enumerator__ctor_m3362421874
Spj:__Z117RuntimeInvoker_CSSSize_t3377836552_IntPtr_t_Single_t1397266774_Int32_t2950945753_Single_t1397266774_Int32_t2950945753PFvvEPK10MethodInfoPvPS4_
dUm:_emscripten_glIsFramebuffer__wrapper
uom:__ZN6il2cpp2vm6Object3BoxEP11Il2CppClassPv
egm:__ZN6il2cpp2vm6Thread7SetNameEP12Il2CppThreadP12Il2CppString
fWb:__ZN13ScreenManager18SetAllowCursorLockEb
M2:__ZN11UnityEngine15CloudWebService10RestClientINS0_23WebRequestRestHeaderMapEE16SetRequestHeaderERKN4core12basic_stringIcNS4_20StringStorageDefaultIcEEEESA_
gvb:__ZN30RuntimeInitializeOnLoadManager15ClassMethodInfo8TransferI14SafeBinaryReadEEvRT_
Qfh:_ConstructionCall_InitDictionary_m2824447813
mVc:__ZN23ParticleSystemParticles14element_assignEjj
__:__ZL22InitializeModule_Audiov
uqe:__ZN5physx2Sq11PruningPoolD0Ev
fCb:__ZN16MemoryFileSystem8IsLockedERK13FileEntryData
mye:__ZN3MBP15removeBoxPrunerEj
Nhm:__ZN6il2cpp6icalls8mscorlib6System2IO6MonoIO5WriteEiP11Il2CppArrayiiPi
u5c:__ZN14ParticleSystem23OnGeometryJobsScheduledEj
Nni:_Mathf_InverseLerp_m4155825980
zfj:__Z92RuntimeInvoker_RuntimeObject_RuntimeObject_RuntimeObject_SByte_t1669577662_SByte_t1669577662PFvvEPK10MethodInfoPvPS4_
Ul:_emscripten_glBindRenderbuffer
y$k:_List_1_System_Collections_IList_Insert_m1011775503_gshared
Gxm:_GC_dirty_init
Rlm:__ZN6il2cpp2vm5Image33GetCachedMemoryMappedResourceFileEP24Il2CppReflectionAssembly
rkf:__ZNK2UI6Canvas16GetTargetDisplayEv
aud:__ZL15SweepBoxCapsulePKN5physx3Cct9SweepTestEPKNS0_11SweptVolumeEPKNS0_11TouchedGeomERKNS_14PxExtendedVec3ERKNS_6PxVec3ERNS0_12SweptContactE
Voa:__ZN6Object17FindObjectsOfTypeEPKN5Unity4TypeER13dynamic_arrayIPS_Lj4EEb
rTb:__ZN13MonoBehaviour17RemoveFromManagerEv
czi:_Vector3_get_Item_m668685504_AdjustorThunk
SJe:__ZN5physx2Sc19ParticlePacketShapeD2Ev
fWf:_MonoEventInfo_GetEventInfo_m873645389
Bib:__ZL11DecodeValuePPKcS0_
Byl:_GUIUtility_get_pixelsPerPoint_m2369948084
sXh:_WindowsIdentity_System_Runtime_Serialization_IDeserializationCallback_OnDeserialization_m3428853631
$5:__ZN13MemoryManagerC2Ev
sRa:__ZN12SkinMeshInfo10DeallocateEPS_
Yvh:_ScrollRect_SetDirty_m214267968
b$a:__ZN20ArchiveStorageReader28AcquireAndPrefillUnusedBlockEjPNS_11CacheResultE
W5f:_Boolean_System_IConvertible_ToDateTime_m603510836
Ilc:__Z12NHxRoughnessIA4_tEvP9Texture2DPT_iiii
IDh:_ASN1_get_Value_m1857007406
npa:__ZN18AsyncUploadManagerD2Ev
Jzb:__ZN9Transform5ResetEv
$6h:_Decimal_op_Explicit_m1842265407
$Kb:__Z22TransferField_NonArrayI24GenerateTypeTreeTransfer16Converter_StringEvRK23StaticTransferFieldInfoR31RuntimeSerializationCommandInfoRT0_
RMl:_CanvasRenderer_SetAlphaTexture_m2009567627
D4e:_UNITY_FT_CMap_New
tSg:_InternalEnumerator_1_get_Current_m4241643334_AdjustorThunk
_Vb:__Z17MainLoopKeepalivePv
DNd:__ZN5physx7NpScene16addActorInternalERNS_7PxActorE
JYg:_InternalEnumerator_1_get_Current_m1588647567_AdjustorThunk
EMf:_Assembly_UnprotectedGetName_m600830855
IMj:__ZL51GCHandle_t3351438187_CustomAttributesCacheGeneratorP21CustomAttributesCache
e9b:__Z14CalcHullBoundsPK8Vector3fPKhhRK5PlaneRK10Matrix4x4fR10MinMaxAABB
_mh:_InputField_get_caretBlinkRate_m3620074524
INk:_ReadOnlyCollection_1_System_Collections_Generic_IListU3CTU3E_set_Item_m375376101_gshared
Y1b:__Z19SetupLODFadeKeywordR17ShaderPassContexti
oTh:_RSAPKCS1SignatureFormatter_CreateSignature_m3191980616
Obb:__ZN10builtintex16GetDefaultTexEnvE16TextureDimensionb
WQa:__ZL25CheckCopyTextureArgumentsRK7ApiGLESP11GLESTextureS3_
g5c:__ZN24UVModulePropertyBindings13AddPropertiesER10vector_mapIi22ParticleModulePropertyNSt3__24lessIiEENS2_9allocatorINS2_4pairIiS1_EEEEE
SSm:_glDeleteShader__wrapper
yKb:__Z29Transfer_Blittable_ArrayFieldI24GenerateTypeTreeTransferyEvRT_R9ArrayInfoRK23StaticTransferFieldInfo
PU:__ZN4FMOD7SystemI9playSoundE17FMOD_CHANNELINDEXPNS_5SoundEbPPNS_7ChannelE
ing:_Int64_GetHashCode_m703091690
gdb:__ZNSt3__26__sortIRPFbRKNS_4pairIN9ShaderLab16FastPropertyNameE10ColorRGBAfEES7_EPS5_EEvT0_SC_T_
srb:__ZN19StreamedBinaryWriteILb0EE21TransferSTLStyleArrayINSt3__26vectorI17SubstanceEnumItemNS2_9allocatorIS4_EEEEEEvRT_17TransferMetaFlags
fmd:__ZN17PhysicsMaterial2D5ResetEv
Uxl:_Event_get_commandName_m4275147343
GH:__ZN27AnimationLayerMixerPlayable17LayerMixerProcessEP35AnimationPlayableEvaluationConstantP32AnimationPlayableEvaluationInputP33AnimationPlayableEvaluationOutputM17AnimationPlayableFvS1_S3_S5_EMS_FvS1_S3_S5_ESA_MS_FvS5_S1_S3_S5_ifE
g7h:_Decimal_op_Implicit_m4256234411
oT:__ZN12AudioManager23VirtualRedirectTransferER18StreamedBinaryReadILb0EE
acj:__Z60RuntimeInvoker_RuntimeObject_RuntimeObject_Int16_t2552820387PFvvEPK10MethodInfoPvPS4_
zmb:__ZN10VertexData13SwapEndianessEv
Jsg:_StreamReader__ctor_m3941437302
i4c:__ZN27ColorModulePropertyBindings13GetFloatValueERK14ParticleSystemi
JFc:__Z57Register_UnityEngine_Transform_INTERNAL_get_localRotationv
CKm:dynCall_viif
M3b:__ZN29MotionVectorRenderLoopScratchD2Ev
LIe:__ZN5physx2Sc24ConstraintProjectionTree11projectPoseERNS0_19ConstraintGroupNodeE
eIb:__ZL26Transfer_SimpleNativeClassI17RemapPPtrTransfer8GradientLb0EEvRK29SerializationCommandArgumentsR31RuntimeSerializationCommandInfo
D3k:_List_1_Contains_m1508588659_gshared
h6c:__ZL32TransformParticleMeshAnimatedUVsILb1EEvRK16ParticleMeshDataiRK22ParticleSystemTempDataRK31ParticleSystemParticlesTempData11ColorRGBA32RK26ParticleSystemRendererDataRK21ParticleSystemModulesRK10Matrix4x4fRK10Matrix3x3fRK8Vector3fRK23ParticleSystemParticlesjPPhPPf
rJ:__ZN17AnimationPlayable26DisconnectNoTopologyChangeEPS_i
D6f:_Boolean_Equals_m2410333903_AdjustorThunk
_6k:_List_1_System_Collections_IList_Contains_m2131605266_gshared
ASd:__ZN5physx2Sc21ArticulationJointCore28setSwingLimitContactDistanceEf
jLm:dynCall_viifffi
H3:__ZN13UploadHandlerD2Ev
yIm:dynCall_viiiiiffi
rd:_emscripten_glBlendFuncSeparate
HEk:_Collection_1_Add_m809543251_gshared
naa:__Z20scripting_string_newPKc
SDc:__Z43Material_CUSTOM_Internal_CreateWithMaterialP12Il2CppObjectS0_
crl:_Parser_IsSingleline_m326238187
zcg:_CollectionBase_get_Count_m1708965601
TBg:_HMAC__ctor_m97939284
eWi:_ValueType_DefaultEquals_m2927252100
YLc:__ZN9JSONWrite12AppendToNodeEPN5Unity9rapidjson12GenericValueINS1_4UTF8IcEE13JSONAllocatorEEPKcRS6_
PDh:_ASN1_ToString_m1340204511
ved:__ZN16PhysicsManager2D20GetRigidBodyVelocityERK11Rigidbody2D
LNh:_X509Store_get_Certificates_m2149701265
V0e:__Z44Register_UnityEngine_Joint_set_connectedBodyv
kSi:_Type_GetField_m2961003358
kOk:_ReadOnlyCollection_1_System_Collections_Generic_IListU3CTU3E_set_Item_m711370667_gshared
hgk:__ZL144StandaloneInputModule_t2760469101_CustomAttributesCacheGenerator_StandaloneInputModule_t2760469101____allowActivationOnMobileDevice_PropertyInfoP21CustomAttributesCache
MMe:__ZThn8_N5physx2Gu11HeightFieldD1Ev
ULi:_StringBuilder_set_Chars_m3548656617
k3l:__ZN6il2cpp2os4File17GetFileAttributesERKNSt3__212basic_stringIcNS2_11char_traitsIcEENS2_9allocatorIcEEEEPi
IRd:__ZNK5physx19PxArticulationJoint19getConcreteTypeNameEv
wM:__ZNSt3__26__sortIRPFbPKN8Animator11AnimatorJobES4_EPS4_EEvT0_S9_T_
tS:__ZN17AudioCustomFilterD2Ev
zvm:_GC_unpromote_black_lists
lPa:__ZN18GfxFramebufferGLES18ReleaseFramebufferEP17RenderSurfaceBaseP14GfxContextGLES
jPc:__Z18Transfer_BlittableI8JSONReadLb1EiEvRK29SerializationCommandArgumentsR31RuntimeSerializationCommandInfo
zQf:_EnumBuilder_GetEvent_m4074915332
_4:__ZN19CloudServiceHandler34HandleSaveFileWebRequestPlayerLoopEv
dJ:__ZN7mecanim21ValueArrayReverseCopyEPKNS_18ValueArrayConstantEPKNS_10ValueArrayES2_PS3_PKi
bS:__Z31GetParentSampleClipFromInstancePN11SoundHandle8InstanceE
Ujc:__ZNK28RectTransformPropertyBinding13GetFloatValueERKN11UnityEngine9Animation10BoundCurveE
rbc:__ZN6Camera22StandaloneCustomRenderENS_10RenderFlagEP6ShaderRKN4core12basic_stringIcNS3_20StringStorageDefaultIcEEEEPNS_21PerformRenderFunctionE
RFi:_Array_InternalArray__IndexOf_TisKeyValuePair_2_t2401056908_m4118889689_gshared
yub:__ZNSt3__26vectorI4PPtrI6ObjectE13stl_allocatorIS3_L18MemLabelIdentifier52ELi16EEE6assignINS_11__wrap_iterIPS3_EEEENS_9enable_ifIXaasr21__is_forward_iteratorIT_EE5valuesr16is_constructibleIS3_NS_15iterator_traitsISD_E9referenceEEE5valueEvE4typeESD_SD_
pee:__ZL22addOrRemoveRigidObjectILb0ELb0ELb0ELb1EN5physx3Scb11RigidStaticEEvRNS0_2Sc5SceneERT3_b
wCm:__ZN6il2cpp2os16ThreadLocalValue8GetValueEPPv
OMh:_X509Certificate2_get_PublicKey_m370665820
Bfh:_AsyncResult_AsyncProcessMessage_m2076471000
b$:__ZN13AudioListener17ReadExtensionNameEi
id:invoke_iiidii
YId:__ZNK5physx2Gu19SupportMapLocalImplINS0_11ConvexHullVEE18doWarmStartSupportEiRNS_6shdfnd3aos5Vec3VE
YKd:__ZN5physx6shdfnd4sortIPvNS0_4LessIS2_EENS0_19ReflectionAllocatorINS_2Cm5BlockIS2_Lj8EEEEEEEvPT_jRKT0_RKT1_j
h$d:__ZNK5physx9NpPhysics11getNbShapesEv
Rq:setThrew
zlc:__ZL21BuildEmptyCubeTexturePKci11ColorRGBA3217TextureColorSpace
Ita:__ZN14SafeBinaryRead21TransferSTLStyleArrayINSt3__26vectorIN9ShaderLab20SerializedSubProgramENS1_9allocatorIS4_EEEEEEvRT_17TransferMetaFlags
oGi:_Array_InternalArray__IndexOf_TisX509ChainStatus_t133602714_m48896230_gshared
GZa:__ZN19dynamic_block_arrayI13FileEntryInfoLj32EE4growEj
sPc:__Z15Transfer_StringI8JSONReadLb1EEvRK29SerializationCommandArgumentsR31RuntimeSerializationCommandInfo
pTk:_Comparison_1_BeginInvoke_m816899747_gshared
jCc:__Z35Light_Set_Custom_PropShadowStrengthP12Il2CppObjectf
XZh:_String_IndexOf_m3406607758
X6e:_sfnt_load_face
ref:_UNITY_FT_Render_Glyph_Internal
Fim:__ZNSt3__212basic_stringIDsNS_11char_traitsIDsEENS_9allocatorIDsEEE21__grow_by_and_replaceEjjjjjjPKDs
X4e:_UNITY_ft_service_list_lookup
_Ic:__ZN5IMGUI21SelectReceivingWindowER8GUIStateb
hCg:_HMAC_Initialize_m3157696427
Usd:__ZN5physx2Gu20intersectTriangleBoxERKNS_6PxVec3ES3_S3_S3_S3_
Mtg:_SynchronizedWriter_Write_m2529550287
c_d:__ZN5physx10NpMaterial8setFlagsENS_7PxFlagsINS_14PxMaterialFlag4EnumEtEE
A5:__ZN13BaseAllocator13TryDeallocateEPv
HLh:_X509SubjectKeyIdentifierExtension__ctor_m2055934916
ppc:__ZN10GUIElementC2E10MemLabelId18ObjectCreationMode
FDm:_sprintf
yxc:__ZN9Scripting25CreateNullExceptionObjectE18ScriptingObjectPtr
SFh:_PrivateKeyInfo_DecodeRSA_m2889346634
XS:__ZN13AudioListener17RemoveFromManagerEv
me:_glAttachShader
VEf:_ContentSizeFitter_SetLayoutHorizontal_m2833273874
AKk:_ReadOnlyCollection_1_System_Collections_IList_RemoveAt_m134366701_gshared
fWe:__ZN5physx6shdfnd8internal8HashBaseINS0_4PairIKtPKcEEtNS0_4HashItEENS1_11HashMapBaseItS6_S9_NS_7profile26WrapperReflectionAllocatorIS6_EEE6GetKeyESD_Lb1EE6createERS4_Rb
T7:__ZNK6Camera19GetProjectionMatrixEv
Bje:__ZNK5physx7NpScene24getWakeCounterResetValueEv
m7c:__Z19UpdateSingleRow2TplIL27ParticleSystemCurveEvalMode2ELS0_4EEvfRK11MinMaxCurveS3_RK23ParticleSystemParticlesPfbiii
Anh:_InputField_SetToCustomIfContentTypeIsNot_m2813459946
eFk:_Collection_1_System_Collections_ICollection_CopyTo_m1691066866_gshared
eHe:__ZNK5physx16PxsSolverEndTask7getNameEv
zei:_Guid_GetHashCode_m3042133858_AdjustorThunk
TAe:__ZN5physx2Gu32PCMConvexVsMeshContactGeneration20generateLastContactsEv
O9:__Z38PreallocateObjectFromPersistentManagerib
m_d:__ZThn12_N5physx10NpMaterialD0Ev
GQh:_Interpreter_Backtrack_m2828876822
tfb:__ZNK9Texture2D20GetUnscaledTextureIDEv
T4h:_DBNull_System_IConvertible_ToInt64_m3889862579
uzg:_SByte_System_IConvertible_ToType_m4075253447
TGh:_StrongName_get_PublicKey_m1841537984
vQe:__ZN5physx6shdfnd4sortIjNS_19SortBoundsPredicateENS0_19ReflectionAllocatorIjEEEEvPT_jRKT0_RKT1_j
WQm:_glFenceSync__wrapper
M0d:__ZN5physx7NpShape14onRefCountZeroEv
Bxi:_Transform_INTERNAL_get_worldToLocalMatrix_m2730237241
DVc:__ZNK14ParticleSystem7GetLoopEv
T4f:_AssemblyLoadEventHandler_Invoke_m1462077361
Ndl:_ExplosionFireAndDebris_Start_m3801736675
UPe:__ZL15TestContainmentRKN5physx6PxVec3EPKfjPKNS_2Gu15HullPolygonDataE
yfb:__ZNK9Texture2D26CanReuploadDataToGfxDeviceEv
jRj:__ZL63CodeAccessPermission_t2681295399_CustomAttributesCacheGeneratorP21CustomAttributesCache
uwb:__Z29ClearRepeatingLogMessageStatev
WWg:_InternalEnumerator_1_get_Current_m3191242573_gshared
G7f:_Byte_Equals_m1161982810_AdjustorThunk
VMe:__ZN5physx2Gu11HeightField12loadFromDescERKNS_17PxHeightFieldDescEb
Joa:__ZN21EnlightenSceneMappingaSERKS_
oVa:__ZN7ApiGLESD2Ev
P0a:__ZN9Transform47ClearTransformHierarchyAndApplyToSerializedDataEv
Hge:__ZN5physx6shdfnd8PoolBaseINS_2Gu30LargePersistentContactManifoldENS0_19ReflectionAllocatorIS3_EEE12allocateSlabEv
HQc:__ZN8JSONRead21TransferSTLStyleArrayINSt3__26vectorI8MonoPPtr13stl_allocatorIS3_L18MemLabelIdentifier1ELi16EEEEEEvRT_17TransferMetaFlags
Z1a:__ZN6Camera23VirtualRedirectTransferER19StreamedBinaryWriteILb0EE
ZKm:dynCall_fidi
V5l:__ZN15dense_hashtableINSt3__24pairIK10KeyWrapperINS1_IPK9FieldInfoP11Il2CppClassEEEjEES9_17ReflectionMapHashIS8_EN14dense_hash_mapIS9_jSD_NS9_14EqualsComparerINS0_8equal_toIS8_EEEENS0_9allocatorISB_EEE9SelectKeyESI_SK_E12resize_deltaEjj
XEe:__ZN5physx20getVertexEdgeIndicesERKNS_2Gu11HeightFieldEjjjPNS_8EdgeDataE
Nle:__ZN5physx6shdfnd5ArrayIPNS_2Sc8BodyCoreENS0_19ReflectionAllocatorIS4_EEE6resizeEjRKS4_
qBd:__ZN5physx3Cct26CharacterControllerManager16createControllerERNS_9PxPhysicsEPNS_7PxSceneERKNS_16PxControllerDescE
Myl:_GUILayoutEntry__ctor_m2229197035
Yfa:__ZN15dense_hashtableINSt3__24pairIKN9ShaderLab7Program23ShaderKeywordSetAndHashEPKNS2_10SubProgramEEES4_NS3_24ShaderKeywordHashFunctorEN14dense_hash_mapIS4_S8_SA_NS0_8equal_toIS4_EE13stl_allocatorIS9_L18MemLabelIdentifier67ELi16EEE9SelectKeyESD_SG_E15insert_noresizeERKS9_
crb:__ZN14SubstanceInput8TransferI24GenerateTypeTreeTransferEEvRT_
vxc:__ZNK13MonoBehaviour13GetScriptTypeEv
I9a:__ZN13RenderTexture12SetDimensionE16TextureDimension
tOg:_SslClientStream_set_ClientCertSelectionDelegate_m1261530976
df:_SDL_FreeRW
Uoe:__ZN5physx6shdfnd8PoolBaseINS_2Cm5BlockIhLj128EEENS0_19ReflectionAllocatorIS4_EEE15disposeElementsEv
Glf:__Z34CanvasRenderer_Get_Custom_PropCullP12Il2CppObject
Y8d:__ZN5physx3Scb14ParticleSystem14setRestOffsetsEjRKNS_16PxStrideIteratorIKjEERKNS2_IKfEE
JY:__ZN20SoundChannelInstance8getDelayE14FMOD_DELAYTYPEPjS1_
nga:__ZNSt3__26vectorIN20GpuProgramParameters15StructParameterENS_9allocatorIS2_EEEC2ERKS5_
yQg:_ArrayReadOnlyList_1_Contains_m232667507_gshared
Rhj:__Z77RuntimeInvoker_Boolean_t97287965_IntPtr_t_Int32_t2950945753_SByte_t1669577662PFvvEPK10MethodInfoPvPS4_
Cqi:_PlayableHandle_GetPlayableType_m432385838_AdjustorThunk
gdf:__ZNSt3__26vectorIN20TextRenderingPrivate8FontImpl13CharacterInfoE13stl_allocatorIS3_L18MemLabelIdentifier1ELi16EEE8__appendEj
tsg:_Stream_Dispose_m2589290611
v:tempBigInt
Jqk:_Array_InternalArray__Insert_TisKeyframe_t4206410242_m1558638568_gshared
mf:_emscripten_glVertexAttrib1fv
pua:__ZNSt3__26vectorIN9ShaderLab20SerializedSubProgram12UAVParameterENS_9allocatorIS3_EEE7reserveEj
RDg:_BigInteger__ctor_m2644482640
nHm:__ZSt11__terminatePFvvE
Bke:__ZN5physx13NpVolumeCacheC2EPNS_2Sq17SceneQueryManagerEjj
ULd:__ZThn24_N5physx2Sc20ArticulationJointSimD1Ev
nV:__ZN12AudioManager14systemCallbackEP11FMOD_SYSTEM24FMOD_SYSTEM_CALLBACKTYPEPvS3_
xUk:_Nullable_1_Equals_m4046255732_gshared
cri:_QualitySettings_set_shadowDistance_m3878605578
PPk:_ReadOnlyCollection_1_System_Collections_Generic_ICollectionU3CTU3E_Clear_m3451551308_gshared
GCf:_BaseMeshEffect_OnEnable_m3291426649
Z8d:__ZN5physx2Sc18ParticleSystemCore14setRestOffsetsEjRKNS_16PxStrideIteratorIKjEERKNS2_IKfEE
jtd:__ZN5physx2Gu16testPolyDataAxisERKNS0_8CapsuleVERKNS0_13PolygonalDataEPNS0_12SupportLocalERKNS_6shdfnd3aos6FloatVERSB_RNSA_5Vec3VE
U8a:__ZN16ReflectionProbes16UpdateSampleDataEv
sXc:__Z9UpdateTplIL27ParticleSystemCurveEvalMode1EEvRK11MinMaxCurveR23ParticleSystemParticlesjjPKN4math8floatNx3E
LOd:__ZN5physx2Sc17ParticleSystemSimD0Ev
Pci:_CultureInfo_GetCultureInfo_m56098747
vqb:__ZN18ProceduralMaterial23VirtualRedirectTransferER17RemapPPtrTransfer
KIl:__ZL25UnresolvedVirtualCall_139P12Il2CppObject17Color_t2555686324faaPK10MethodInfo
u8b:__Z20AddActiveLocalLightsR11CullResultsR27LocalLightCullingParametersPPK15SharedLightDataPK8Vector4fRK9IndexListPfRSA_R12ActiveLightsSG_P5RectTIfEP13TargetEyeMask
BIj:__ZL80Hashtable_t1853889766_CustomAttributesCacheGenerator_Hashtable__ctor_m1763145853P21CustomAttributesCache
Qgg:_Convert_ToDecimal_m1284148187
mHk:_Collection_1__ctor_m3489157029_gshared
oOm:_emscripten_glRenderbufferStorage__wrapper
f4l:__ZNK6il2cpp2vm14TypeNameParser10NextWillBeEcb
r2e:_cf2_getNormalizedVector
Jf:_JS_Sound_Play
MQk:_ReadOnlyCollection_1_System_Collections_IList_set_Item_m1538987737_gshared
j1g:_DefaultComparer_Compare_m1920986590_gshared
lNg:_RecordProtocol_ProcessChangeCipherSpec_m15839975
Wsa:__ZN9ShaderLab16SerializedShader8TransferI14SafeBinaryReadEEvRT_
VJf:_GridLayoutGroup_set_constraint_m3308895167
kgh:_ConstructionCallDictionary_SetMethodProperty_m3145285304
amg:_Int32_System_IConvertible_ToUInt32_m3557270157
Mkj:__Z243RuntimeInvoker_Void_t1185182177_Int16_t2552820387_RuntimeObject_Int32_t2950945753_Int32_t2950945753_Int32_t2950945753_SByte_t1669577662_SByte_t1669577662_SByte_t1669577662_SByte_t1669577662_Int16_t2552820387_SByte_t1669577662_SByte_t1669577662PFvvEPK10MethodInfoPvPS4_
mng:_Int64_Parse_m3309897583
QL:__ZN7mecanim8skeleton13SkeletonAlignEPKNS0_8SkeletonERKN4math7_float4ES7_i
rmc:__ZN19ShaderPropertySheet16SetVectorIndexedEN9ShaderLab16FastPropertyNameEifRK8Vector4fNS_8SetFlagsE
FRi:_Type_get_IsAbstract_m1120089130
hzi:_Vector3_get_normalized_m2454957984_AdjustorThunk
Bsl:_UriFormatException__ctor_m1115096473
dem:__ZN15dense_hashtableINSt3__24pairIK10KeyWrapperINS1_IP11Il2CppClassjEEES4_EES6_N6il2cpp8metadata14ArrayClassHashEN14dense_hash_mapIS6_S4_SB_NS6_14EqualsComparerINSA_17ArrayClassCompareEEENS0_9allocatorIS8_EEE9SelectKeyESF_SH_E9copy_fromERKSK_j
vAl:_GUIUtility_IsExitGUIException_m3644066650
H4:__ZN11UnityEngine15CloudWebService14DataDispatcher4StopEv
Rjg:_Int16_System_IConvertible_ToUInt64_m134975563
rua:__ZNSt3__26vectorIN9ShaderLab20SerializedSubProgram12UAVParameterENS_9allocatorIS3_EEE8__appendEj
SIc:__ZN5IMGUI9GUIWindow5OnGUIER8GUIState
wuj:__Z79RuntimeInvoker_Void_t1185182177_RuntimeObject_RuntimeObject_Vector3_t3722313464PFvvEPK10MethodInfoPvPS4_
duc:__ZNK17AnimationCurveTplI11QuaternionfE8GetRangeEv
TIi:_Array_InternalArray__ICollection_CopyTo_TisSingle_t1397266774_m455540885_gshared
CYa:__ZN17ScriptingGCHandle7AcquireE18ScriptingObjectPtr25ScriptingGCHandleWeakness
dkj:__Z74RuntimeInvoker_RuntimeObject_RuntimeObject_Int64_t3736567304_RuntimeObjectPFvvEPK10MethodInfoPvPS4_
Bjf:__ZN2UI14CanvasRenderer14AttachToCanvasER8JobFencePNS_6CanvasENS0_15InstructionTypeE
TUd:__ZN5physx12NpConstraint8comShiftEPNS_12PxRigidActorE
yJm:dynCall_iifiii
WJa:__Z21HasAlphaTextureFormat13TextureFormat
s_:__ZN12AudioManager6UpdateEv
PJa:__ZN14ImageReference9BlitImageERKS_NS_8BlitModeE
sD:__ZN8Animator12AddToManagerEv
_sc:__Z26ApplyBlendShapesToVerticesR12SkinMeshInfoRKN4math5_int4EPNS1_8floatNx3ES6_
jsd:__ZNK5physx2Gu16SupportLocalImplINS0_11ConvexHullVEE9doSupportERKNS_6shdfnd3aos5Vec3VERNS5_6FloatVESA_
lUb:__ZN23CachedSerializationDataD2Ev
rac:__ZNK25CameraStackRenderingState31CalculateStereoCameraTargetTypeEv
u8a:__ZN14RenderSettings23VirtualRedirectTransferER14SafeBinaryRead
w_g:_InternalEnumerator_1_get_Current_m114240259_gshared
Xgd:__ZNK13b2CircleShape5CloneEP16b2BlockAllocator
vqm:__ZN6il2cpp2os10ThreadImpl15CurrentThreadIdEv
Vqk:_Array_InternalArray__Insert_TisVector2_t2156229523_m2148694950_gshared
PUh:_SymmetricAlgorithm_get_Key_m3241860519
Uph:_U3CMouseDragOutsideRectU3Ec__Iterator1_Reset_m2233410497
knh:_InputField_set_customCaretColor_m720445789
J0a:__Z17IsObjectAvailablei
Drb:__ZN12InputManagerD0Ev
Qyk:_Queue_1_Peek_m1713833142_gshared
qOi:_ExecutionContext_Capture_m681135907
pVd:__ZN5physx2Sc9RigidCore20removeShapeFromSceneERNS0_9ShapeCoreEb
JSg:_InternalEnumerator_1_System_Collections_IEnumerator_get_Current_m2889979481_AdjustorThunk
hGm:_posix_memalign
qQe:__ZN5physx11RTreeCooker18buildFromTrianglesERNS_2Gu5RTreeEPKNS_6PxVec3EjPKtPKjjRNS_6shdfnd5ArrayIjNSB_19ReflectionAllocatorIjEEEEPNS0_13RemapCallbackEfNS_17PxMeshCookingHint4EnumE
APd:__ZN5physx6shdfnd5ArrayIPvNS0_15InlineAllocatorILj256ENS0_19ReflectionAllocatorINS_14NpArticulationEEEEEE15growAndPushBackERKS2_
MDh:_ASN1_GetBytes_m3305539297
S9:__ZNK15MonoScriptCache7ReleaseEv
UUl:__ZN6il2cpp2vm5Class13HasReferencesEP11Il2CppClass
xCe:__ZN5physx9PxTaskMgrC2EPNS_15PxCpuDispatcherEPNS_15PxGpuDispatcherEPNS_15PxSpuDispatcherE
Xg:_glBindTexture
wEm:_snprintf
zsj:__Z50RuntimeInvoker_RuntimeObject_Resources_t1597885468PFvvEPK10MethodInfoPvPS4_
FPm:_emscripten_glVertexAttrib1fv__wrapper
Uxb:__Z36scripting_liveness_calculation_begin17ScriptingClassPtriPFvPP12Il2CppObjectiPvES3_PFvvES7_
Du:__ZN7mecanim12statemachine13StateConstant8TransferI24GenerateTypeTreeTransferEEvRT_
rIm:dynCall_viiiiiifi
cOm:_emscripten_glGetProgramInfoLog__wrapper
qO:__ZN25AnimatedPropertyEvaluator29BindCurveToScriptingObjectPtrERKN13AnimationClip10FloatCurveEj18ScriptingObjectPtrb
Pba:__ZN17PersistentManager23DestroyFromFileInternalEi
iji:_Display__ctor_m501911701
WLk:_ReadOnlyCollection_1_System_Collections_Generic_IListU3CTU3E_Insert_m1020890112_gshared
TFf:_DefaultControls_SetDefaultTextValues_m1943359795
C3b:__Z19SetupMotionMatricesR6CameraR18RPDataMotionVector
BQl:__ZL7log2_64y
_Ih:_TypeConverterAttribute_Equals_m1580461255
kN:__ZN26AnimatorControllerPlayable18PrepareForPlaybackERN7mecanim6memory9AllocatorE
LH:__ZN7mecanim5human25HumanPoseAddOverrideLayerERNS0_9HumanPoseERKS1_fRKNS_6bitsetILj83EEE
QJf:_GridLayoutGroup_get_cellSize_m2967185053
Fse:__ZN5physx19PxsMaterialCombiner24combineIsotropicFrictionERKNS_15PxsMaterialDataES3_
Mjl:_PKCS12_Decrypt_m1280162536
XRl:_CustomEventData_AddChar_m2745147926
SSg:_InternalEnumerator_1_get_Current_m3081223448_gshared
cyl:_Event_get_isMouse_m1058251071
u6a:__ZN10VertexDataC2ERKS_17ShaderChannelMask10MemLabelId
y5e:_otv_JSTF_validate
qga:__ZN22CreateGpuProgramOutputC2Ev
tki:_PersistentCallGroup_Initialize_m4253175514
V5f:_Boolean_System_IConvertible_ToChar_m4279513009_AdjustorThunk
RHh:_DictionaryNodeEnumerator__ctor_m1005316675
elg:_NumberFormatter_ScaleOrder_m3813786990
py:__Z21GetAnimatableBindTypeRK16TypeTreeIterator
TFh:_PrivateKeyInfo_DecodeDSA_m771724585
yOe:__ZN5physx7Cooking16cookTriangleMeshERKNS_18PxTriangleMeshDescERNS_14PxOutputStreamE
m7l:__ZNK15dense_hashtableINSt3__24pairIK10KeyWrapperINS1_IPK10MethodInfoP11Il2CppClassEEEjEES9_17ReflectionMapHashIS8_EN14dense_hash_mapIS9_jSD_NS9_14EqualsComparerINS0_8equal_toIS8_EEEENS0_9allocatorISB_EEE9SelectKeyESI_SK_E23find_position_with_hashERSA_j
jof:__Z38CustomEventData_CUSTOM_InternalDestroyP12Il2CppObject
QZe:__ZN14CompletionTask4InitEPN5physx7PxSceneE
MMd:__ZN5physx2Sc7ElementD0Ev
nUi:_UInt32_System_IConvertible_ToSByte_m1061556466
XQe:__ZN5physx6shdfnd10Foundation7releaseEv
fdh:_WellKnownClientTypeEntry__ctor_m2471908952
TUl:__ZN6il2cpp2vm5Class4InitEP11Il2CppClass
wf:_emscripten_glBindBuffer
byg:_NumberFormatter_FormatRoundtrip_m19342689
Gjh:_RemotingServices_CreateClientProxyForContextBound_m783705199
ntc:__ZNK15GUIEventManager15GetEventAtIndexEi
Sjf:__ZN2UI14CanvasRenderer17SyncDirtyElementsER8JobFence
c4g:_Enumerator_System_Collections_IEnumerator_get_Current_m3816090481_gshared
ytm:__ZN6il2cpp5utils11StringUtils15StringDuplicateEPKc
W1i:_DefaultComparer_Equals_m2480133610_gshared
Hfa:__ZNK9ShaderLab21ShaderRasterStateDesc16ToGfxRasterStateEPK19ShaderPropertySheetS3_R14GfxRasterState
huk:_Array_Sort_TisVector3_t3722313464_m1915176437_gshared
DCm:__ZN6il2cpp2os9EventImplC2Ebb
IYc:__Z12RangedRandomR5RandNRKiS2_
MFk:_Collection_1_ConvertItem_m2110978655_gshared
a3k:_List_1_get_Item_m2113769949_gshared
Ksh:_MaskableGraphic_OnTransformParentChanged_m329502413
nA:__ZNSt3__26vectorIN13AnimationClip9PPtrCurveE13stl_allocatorIS2_L18MemLabelIdentifier26ELi16EEE6resizeEj
Gga:__Z20IsMatrixBuiltinParamPKcPi
gWh:_String_memcpy4_m979367827
uMi:_UnicodeEncoding_GetBytesInternal_m1902824297
_lc:__ZN8Renderer19PostInitializeClassEv
kFi:_Array_FindIndex_TisRuntimeObject_m2504082708_gshared
Dll:_X509Chain_FindCertificateRoot_m1937726457
Sym:__ZN6il2cpp6icalls8mscorlib6System8Delegate23CreateDelegate_internalEP20Il2CppReflectionTypeP12Il2CppObjectP22Il2CppReflectionMethodb
d5g:_Enumerator_System_Collections_IEnumerator_get_Current_m921113401_AdjustorThunk
FTb:__ZN18DelayedCallManager18CancelCallDelayed2E4PPtrI6ObjectEPF15CallObjectStatePS1_PvES7_
Qni:_Matrix4x4_GetHashCode_m4034747639
qWa:__ZN25ThreadsafeLinearAllocator10ReallocateEPvji
GDb:__Z18Transfer_BlittableI14SafeBinaryReadLb1E11QuaternionfEvRK29SerializationCommandArgumentsR31RuntimeSerializationCommandInfo
WSd:__ZNK5physx18PxArticulationLink8isKindOfEPKc
osa:__ZN18SpriteAtlasManagerD0Ev
Ije:__ZN5physx13NpVolumeCache13onOriginShiftERKNS_6PxVec3E
Imb:__ZN10Matrix4x4f8TransferI14SafeBinaryReadEEvRT_
Dn:FUNCTION_TABLE_vifiiiiiiiiiiiiiiiiii
tAg:_CryptographicUnexpectedOperationException__ctor_m2381988196
Dam:__ZN14dense_hash_mapI10KeyWrapperIPK22Il2CppGenericParameterEPK24MonoGenericParameterInfoN6il2cpp5utils11PointerHashIS2_EENS4_14EqualsComparerINSt3__28equal_toIS3_EEEENSD_9allocatorINSD_4pairIKS4_S7_EEEEE15set_deleted_keyERSJ_
eN:__ZN14AvatarPlayback8StopTimeEv
vVg:_InternalEnumerator_1_System_Collections_IEnumerator_get_Current_m4213507601_gshared
Tma:__Z6AppendRKN4core12basic_stringIcNS_20StringStorageDefaultIcEEEEPKc
qNb:__Z18Transfer_BlittableI18StreamedBinaryReadILb1EELb0E8Vector3fEvRK29SerializationCommandArgumentsR31RuntimeSerializationCommandInfo
oAl:_GUIUtility_RemoveCapture_m1294193818
QFa:__ZN7ApiGLES18ClearBufferSubDataEjN2gl12BufferTargetEll
dQ:__ZN8Animator7SetBoolEib
fzc:__Z37Camera_Get_Custom_PropAllCamerasCountv
dlb:__ZN14Texture2DArray8TransferI18StreamedBinaryReadILb0EEEEvRT_
qWd:__ZN5physx15NpActorTemplateINS_18PxArticulationLinkEED2Ev
D7b:__Z18ApplyOcclusionMaskR19ProbeOcclusionCacheRK17LightProbeContextRK10RenderNodeb
scf:_Split_Cubic
vb:invoke_fiiii
rph:_InputField_OnSubmit_m3583210804
IJm:dynCall_viiiiiiffii
Orl:_Uri_CheckHostName_m2213216182
CPm:_emscripten_glBindRenderbuffer__wrapper
_vk:_Mesh_SetUvsImpl_TisVector2_t2156229523_m3009194955_gshared
eGg:_HMAC_set_Key_m3535779141
qag:_ArrayListWrapper_Contains_m2641184447
ecf:_ft_black_render
mhj:__Z177RuntimeInvoker_Int32_t2950945753_RuntimeObject_Int32_t2950945753_Int32_t2950945753_RuntimeObject_Int32_t2950945753_EncoderFallbackBufferU26_t2343550713_CharU5BU5DU26_t3299466565PFvvEPK10MethodInfoPvPS4_
fLm:dynCall_viiifi
yOa:__ZN18GfxFramebufferGLES20ActiveContextChangedEPP17RenderSurfaceBaseS2_
pOa:__Z19PluginsRenderMarkeri
GP:__ZN10HumanTrait18InitializeBoneNameEv
yua:__ZNSt3__26vectorIN9ShaderLab20SerializedSubProgram15StructParameterENS_9allocatorIS3_EEE6assignINS_11__wrap_iterIPS3_EEEENS_9enable_ifIXaasr21__is_forward_iteratorIT_EE5valuesr16is_constructibleIS3_NS_15iterator_traitsISC_E9referenceEEE5valueEvE4typeESC_SC_
pEd:__ZNK5physx3Ext5JointINS_15PxDistanceJointENS_30PxDistanceJointGeneratedValuesEE18getConstraintFlagsEv
Wlm:__ZNSt3__214__split_bufferIN6il2cpp2vm5Image20EmbeddedResourceDataERNS_9allocatorIS4_EEEC2EjjS7_
J3d:__ZNK5physx7NpCloth25getNbSelfCollisionIndicesEv
CCh:_Kernel_multiByteDivide_m4249920547
BS:__ZN12AudioManager17RemoveAudioSourceEP11AudioSource
MNh:_X509Certificate2Collection_Add_m3151757943
F2g:_Comparer_1__cctor_m951016718_gshared
jcg:_CaseInsensitiveHashCodeProvider_get_DefaultInvariant_m4264275163
Ehj:__Z195RuntimeInvoker_Int32_t2950945753_RuntimeObject_Int32_t2950945753_Int32_t2950945753_Int32_t2950945753_RuntimeObject_DecoderFallbackBufferU26_t3866396827_ByteU5BU5DU26_t4057885439_SByte_t1669577662PFvvEPK10MethodInfoPvPS4_
Zje:__ZN5physx2Sc5Scene22setNbContactDataBlocksEj
l0:__ZN5physx14PxLightCpuTask12addReferenceEv
c6a:__ZNK15InstancingProps35FillInstanceBufferDispatchConstantsIN10Instancing14RenderLoopArgsEEEvPPvjjRK19ShaderPropertySheetRKT_
Jwj:__Z86RuntimeInvoker_Int32_t2950945753_Color32_t2600501292_Color32_t2600501292_RuntimeObjectPFvvEPK10MethodInfoPvPS4_
Hhb:__ZN21EnlightenSceneMapping8TransferI19StreamedBinaryWriteILb0EEEEvRT_
Hnm:__ZN6il2cpp2gc16GarbageCollector19InitializeFinalizerEv
fJ:__ZN7mecanim8skeleton18CreateSkeletonMaskEjPKNS0_19SkeletonMaskElementERNS_6memory9AllocatorE
xIc:__ZN10GUIManager10DoGUIEventER10InputEventb
yJb:__Z35Transfer_Blittable_FixedBufferFieldI24GenerateTypeTreeTransferxEvRK29SerializationCommandArgumentsR31RuntimeSerializationCommandInfo
m6e:_otv_LangSys_validate
pti:_RectOffset_get_right_m2294081512
irk:_Array_InternalArray__set_Item_TisLink_t544317964_m1234244240_gshared
Xaf:_UNITY_TT_Init_Glyph_Loading
D2b:__Z20CalculateSqrDistanceRK8Vector3fRK4AABB
D_e:__ZN14PhysicsManager15ProcessContactsEv
kmh:_SerializationInfo_GetBoolean_m1756153320
Pwd:__ZN21BoxTraceSegmentReport7onEventEjPj
DSd:__ZN5physx2Sc21ArticulationJointCore13setSwingLimitEff
_W:__Z32AudioMixerDuckingProcessCallbackP21UnityAudioEffectStatePfS1_jii
Asd:__ZL20HullProjectionCB_BoxRKN5physx2Gu13PolygonalDataERKNS_6PxVec3ERKNS_2Cm8Matrix34ERKNS7_23FastVertex2ShapeScalingERfSE_
toi:_Mesh_get_uv2_m3615020997
clc:__ZN26CustomRenderTextureManagerD2Ev
W2i:_EqualityComparer_1_System_Collections_IEqualityComparer_Equals_m4172006498_gshared
xye:__ZN5physx14PxsAABBManager21selfCollideAggregatesEPKNS_19AggregateSortedDataE
tT:__ZN12AudioManager8TransferI24GenerateTypeTreeTransferEEvRT_
yni:_Mathf_Round_m4098141538
Q3c:__ZN16CustomDataModuleD0Ev
UIa:__Z25GetBytesFromTextureFormat13TextureFormat
ihm:__ZN6il2cpp6icalls8mscorlib6System9Threading6Thread20Thread_free_internalEP12Il2CppThreadi
FGe:__ZN5physx12_GLOBAL__N_112innerProductERKNS_14Px1DConstraintERS1_RKNS0_9MassPropsE
FIh:__KeysEnumerator_get_Current_m2996478063
xJm:dynCall_iifff
JDd:__ZN19ControllerHitReportD2Ev
Fba:__Z32scripting_class_get_assemblyname17ScriptingClassPtr
Cpf:__ZN11UnityEngine15PlatformWrapper15GetVRDeviceNameEv
msj:__Z99RuntimeInvoker_Boolean_t97287965_Int32_t2950945753_PointerEventDataU26_t867828220_SByte_t1669577662PFvvEPK10MethodInfoPvPS4_
AHc:__Z50Register_UnityEngine_Rigidbody2D_AddForce_Injectedv
Lue:__ZN5physx26PxcFrictionPatchStreamPairC2ERNS_17PxcNpMemBlockPoolE
bUg:_InternalEnumerator_1_get_Current_m2128158355_AdjustorThunk
sUa:__ZN9GfxDevice21RegisterNativeTextureE9TextureIDi16TextureDimension
BIf:_GraphicRegistry__ctor_m1851575309
gAm:__ZN6il2cpp6icalls8mscorlib6System10Reflection4Emit11TypeBuilder20create_generic_classEP27Il2CppReflectionTypeBuilder
CTh:_SHA1Internal_FillBuff_m3615718415
SCi:_PlayableHandle_IsPlayableOfType_TisAnimationLayerMixerPlayable_t3631223897_m201603007_gshared
P$:__Z60Register_UnityEngine_AudioListener_GetNumExtensionPropertiesv
Qj:_emscripten_glUniformMatrix4fv
zyb:__ZN12ScriptMapperD2Ev
oUe:__ZN9Rigidbody13AwakeFromLoadE17AwakeFromLoadMode
woi:_Mesh_get_colors32_m1253190811
w_c:__ZN9SubModule8TransferI14SafeBinaryReadEEvRT_
hwm:_GC_stopped_mark
Upm:__ZN6il2cpp2os6Thread3RunEPFvPvES2_
Xei:_AnimationCurve_Finalize_m2397002729
jUc:__ZN14ParticleSystem15AddCustomLightsERK27LocalLightCullingParametersRK11CullResultsR12ActiveLightsRi9LightType
iYd:__ZNK5physx14NpSceneQueries10multiQueryINS_12PxOverlapHitEEEbRKNS_15MultiQueryInputERNS_13PxHitCallbackIT_EENS_7PxFlagsINS_9PxHitFlag4EnumEtEEPKNS_12PxQueryCacheERKNS_17PxQueryFilterDataEPNS_21PxQueryFilterCallbackEPNS_20BatchQueryFilterDataE
uDj:__Z50RuntimeInvoker_RuntimeObject_ColorTween_t809614380PFvvEPK10MethodInfoPvPS4_
Vlh:_SerializationCallbacks__cctor_m1674315180
Fal:_MainMenuController__ctor_m3120332928
REc:__Z52Register_UnityEngine_RenderTexture_Internal_GetWidthv
bxm:_GC_check_leaked
yxa:__ZN9ShaderLab20SerializedSubProgram16TextureParameter8TransferI19StreamedBinaryWriteILb0EEEEvRT_
Qb:invoke_fiiiiiiiifiiiif
$Sc:__ZN14ParticleSystem23RendererBecameInvisibleEv
VVa:__ZNK7Hash12812PackToUInt32Ev
rbg:_SynchronizedArrayListWrapper_IndexOf_m3642674350
sda:__ZNSt3__227__insertion_sort_incompleteIRNS_6__lessI14ObjectLoadDataS2_EEPS2_EEbT0_S6_T_
P4:__ZN11UnityEngine15CloudWebService16SessionContainer8AddEventEPNS0_14CloudEventInfoE
hTa:__Z4TrimRKN4core12basic_stringIcNS_20StringStorageDefaultIcEEEES5_
wbl:_VirtualInput_AxisExists_m2330478845
Gjd:__ZN13dynamic_arrayIN19CompositeCollider2D11SubColliderELj4EE12emplace_backEv
ovk:_Dictionary_2_Do_ICollectionCopyTo_TisKeyValuePair_2_t3842366416_m1399105608_gshared
YMh:_X509Certificate2_Import_m4026562329
r6g:_Enumerator_System_Collections_IEnumerator_get_Current_m2763095718_AdjustorThunk
UQm:_glGetStringi__wrapper
Djb:__ZN10VertexData8TransferI14SafeBinaryReadEEvRT_
KRd:__ZN5physx19NpArticulationJointD0Ev
IJa:__ZN11TextureData17GetImageReferenceEii
Xxm:_GC_malloc_atomic
DYe:__ZN5physx9NpPhysics14createInstanceEjRNS_12PxFoundationERKNS_17PxTolerancesScaleEbPNS_20PxProfileZoneManagerE
H0e:__Z59Register_UnityEngine_Physics_INTERNAL_CALL_Internal_Raycastv
_6i:_HashSet_1_GetEnumerator_m3346268098_gshared
FAm:__ZN6il2cpp5utils6Memory13AlignedMallocEjj
xph:_Selectable_get_animator_m2899312855
I8:__ZL20SortItemByInstanceIDRKN18AwakeFromLoadQueue4ItemES2_
wyi:_Vector2_op_Multiply_m2347887432
jYe:__ZN5physx6shdfnd5ArrayIPvNS0_15InlineAllocatorILj256ENS0_19ReflectionAllocatorINS_24NpPtrTableStorageManager8PtrBlockILi16EEEEEEEE15growAndPushBackERKS2_
XIh:_TypeConverterAttribute__ctor_m1774069684
qJ:__ZNK34AnimationStateMachineMixerPlayable26GetInterruptedPosePlayableEv
tsf:__ZN20UnityConnectSettings8TransferI24GenerateTypeTreeTransferEEvRT_
x$c:__ZN25IParticleSystemProperties8PropertyIfNS_11ClampRadiusEE8TransferI14SafeBinaryReadEEvRT_PKc
rL:__ZN34BlobWriteTransferSTLStyleArrayImplI22OffsetPtrArrayTransferIbEEclERS1_17TransferMetaFlagsR9BlobWrite
F0f:_Byte_ToString_m4063101981
Bwg:_MonoType_GetConstructors_m2574682189
F$l:__ZN6il2cpp2vm13MetadataCache31GetParameterDefinitionFromIndexEi
Yui:_SceneManager_LoadSceneAsyncNameIndexInternal_m4031498323
E0d:__ZN5physx7NpShape13setRestOffsetEf
HJh:_ServicePointManager_FindServicePoint_m4119451290
xoa:__ZL31InitializeRendererUpdateManagerPv
MOf:_ParameterInfo__ctor_m2779026345
rnh:_InputField_set_onValueChange_m1251390545
e1d:__ZN5physxL11getTriangleERKNS_2Gu12TriangleMeshEjPNS_6PxVec3EPKS4_PKvRKNS_2Cm8Matrix34Eb
u$f:_DeriveBytes_set_Password_m3005258189
Vxg:_NumberFormatter_get_IsZeroInteger_m2263284741
$Te:__ZN14SafeBinaryRead21TransferSTLStyleArrayINSt3__26vectorIjNS1_9allocatorIjEEEEEEvRT_17TransferMetaFlags
k2d:__ZNK5physx7NpCloth16lockParticleDataEv
Zhl:_X509Certificate_PEM_m2020851166
Fzg:_SByte_Equals_m865896384_AdjustorThunk
HJi:_Array_InternalArray__Insert_TisDateTime_t3738529785_m2308632330_gshared
lsb:__ZN11TimeManager8TransferI19StreamedBinaryWriteILb0EEEEvRT_
zMg:_TlsServerCertificateRequest_ProcessAsTls1_m3214041063
I6e:_compare_uni_maps
nqf:__ZN11UnityEngine15PlatformWrapper27GetGraphicsCapsSupportFlagsEv
pvk:_Dictionary_2_Do_ICollectionCopyTo_TisRuntimeObject_m3695543300_gshared
S0e:__Z63Register_UnityEngine_Rigidbody_INTERNAL_CALL_AddForceAtPositionv
Kne:__ZN5physx13NpRigidStatic9visualizeERNS_2Cm12RenderOutputEPNS_7NpSceneE
$Mb:__ZN12NativeBufferI16Converter_StringE15SetupForWritingER9ArrayInfo
rDh:_SequentialSearchPrimeGeneratorBase_GenerateSearchBase_m3595783982
Hra:__ZN13RuntimeStaticI18AssetBundleManagerLb1EE16StaticInitializeEPv
wSm:___cxa_end_catch__wrapper
ik:_emscripten_glVertexAttrib3fv
L5c:__ZL24GenerateParticleGeometryIL24ParticleSystemRenderMode0ELb1ELb0EL25ParticleSystemRenderSpace4EEvPfRK22ParticleSystemTempDataRK26ParticleSystemRendererDataRK21ParticleSystemModulesRK23ParticleSystemParticlesRK31ParticleSystemParticlesTempData
eqe:__ZN5physx6shdfnd8PoolBaseINS_2Sc35ParticleElementRbElementInteractionENS0_19ReflectionAllocatorIS3_EEE15disposeElementsEv
xTh:_SHA1CryptoServiceProvider_Dispose_m1653611664
f9f:_Char_ToString_m278452217
u9i:__Z32RuntimeInvoker_Boolean_t97287965PFvvEPK10MethodInfoPvPS4_
XVh:_String_Format_m1881875187
UEg:_BigInteger_op_RightShift_m460065452
oUb:__ZN13MonoBehaviour22DoScriptRebuildWarningEv
hzc:__Z38Camera_CUSTOM_INTERNAL_CALL_RaycastTryP12Il2CppObjectRK3Rayfi
Woc:__ZNK10GameObject22GetComponentPtrAtIndexEi
Enc:__ZZL23RegisterLightPropertiesR22GenericPropertyBindingEN22Wrapper_LightSpotAngle13GetFloatValueEPv
Uyf:_ExecuteEvents_get_cancelHandler_m1220395193
Ygf:__Z38TextGenerator_Get_Custom_PropLineCountP12Il2CppObject
Fhl:_InternalAsyncResult_SetComplete_m963842420
PKi:_Encoding_GetEncoding_m2801244948
zJc:__ZN11IMGUIModule25GetGUIStyleScriptingClassEv
k9e:_tt_get_interface
pPg:_SslStreamBase_EndRead_m495357226
Vgm:__ZN6il2cpp5utils9PathUtils7CombineIcEENSt3__212basic_stringIT_NS3_11char_traitsIS5_EENS3_9allocatorIS5_EEEERKSA_SC_
Q0e:__Z46Register_UnityEngine_Rigidbody_set_isKinematicv
Hye:__ZN5physx14PxsAABBManager16processBPResultsERKNS_20PxsComputeAABBParamsE
hPc:__ZN9JSONWrite8TransferI13dynamic_arrayIiLj4EEEEvRT_PKc17TransferMetaFlags
Owe:__ZN5physx23PxsBroadPhaseContextSapD2Ev
Xjj:__Z64RuntimeInvoker_RuntimeObject_SByte_t1669577662_SByte_t1669577662PFvvEPK10MethodInfoPvPS4_
eqc:__ZN13PlayableGraph21InvalidateMultithreadEv
aEd:__ZNK5physx15PxDistanceJoint19getConcreteTypeNameEv
z5i:_GenericComparer_1_Compare_m459680062_gshared
pQf:_EnumBuilder_GetConstructorImpl_m3068576149
qaa:__Z18ConvertUTF16toUTF8PPKtS0_PPhS2_15ConversionFlags
Qrm:__ZN6il2cpp2os20PathErrnoToErrorCodeERKNSt3__212basic_stringIcNS1_11char_traitsIcEENS1_9allocatorIcEEEEi
jik:__ZL68InputField_t3762917431_CustomAttributesCacheGenerator_m_KeyboardTypeP21CustomAttributesCache
dvc:__Z24GetActualTargetFrameRatev
oQl:__ZL16my_g_bit_nth_msfj
WO:__ZN9Animation12CleanupClassEv
lyk:_Enumerator_MoveNext_m3662315381_AdjustorThunk
hMg:_TlsClientFinished_ProcessAsTls1_m2429863130
P0b:__Z23SetupStereoFlareElementP11FlareVertexRK8Vector2fS3_S3_RK11ColorRGBA32RK10Matrix4x4fRK8Vector3fb
TPf:_DerivedType_GetCustomAttributes_m851300494
fb:invoke_iiiifiiii
gPk:_ReadOnlyCollection_1_IndexOf_m3549361731_gshared
xnh:_InputField_EnforceContentType_m2436948794
t9c:__ZN11ShapeModule13DidDeleteMeshEv
K4d:__ZNK5physx2Sc9ClothCore16getRestPositionsEPNS_6PxVec4E
vte:__ZN5physx20PxcSweepConvexConvexERKNS_11PxsCCDShapeES2_PKNS_12PxsRigidBodyES5_RKNS_11PxTransformES8_S8_S8_fRNS_6PxVec3ESA_RNS_10PxcNpCacheERNS_18PxcNpThreadContextEf
e$h:_String_Join_m2050845953
R7d:__ZN5physx15PxsParticleDataD0Ev
rPa:__ZL19BlitFramebufferImplRN4gles23BlitFramebufferDrawQuadER9GfxDevice9TextureIDRK8Vector4f
oOe:__ZN5physx6shdfnd5ArrayIPvNS0_19ReflectionAllocatorIN17PxcPoolMallocData9PoolData8EEEE15growAndPushBackERKS2_
w6l:__ZN15dense_hashtableINSt3__24pairIK10KeyWrapperIPK10Il2CppTypeEjEES6_N6il2cpp8metadata14Il2CppTypeHashEN14dense_hash_mapIS6_jSB_NS6_14EqualsComparerINSA_26Il2CppTypeEqualityComparerEEENS0_9allocatorIS8_EEE9SelectKeyESF_SH_E4findERS7_
uJm:dynCall_viiiiiiiiiiiiii
Baf:_UNITY_FT_List_Add
Clc:__ZN14Texture2DArray11InitTextureEiii13TextureFormatb
Yil:_X509Extension__ctor_m1474351312
$tl:_InvokableCall_1_Invoke_m1524307439_gshared
cSe:__ZN5physx15PxGeometryQuery14getWorldBoundsERKNS_10PxGeometryERKNS_11PxTransformEf
Z5d:__ZN5physx2Sc9ClothCore18setSolverFrequencyEf
Rog:_Directory_CreateDirectoriesInternal_m3735342319
zZe:__ZN8ColliderC2E10MemLabelId18ObjectCreationMode
sbm:__ZN15dense_hashtableINSt3__24pairIK10KeyWrapperINS1_IPK11Il2CppImageP11Il2CppClassEEEjEES9_17ReflectionMapHashIS8_EN14dense_hash_mapIS9_jSD_NS9_14EqualsComparerINS0_8equal_toIS8_EEEENS0_9allocatorISB_EEE9SelectKeyESI_SK_E14squash_deletedEv
EUh:_SHAConstants__cctor_m1699027474
Wrb:__ZN9InputAxis8TransferI18StreamedBinaryReadILb0EEEEvRT_
fsd:__ZN5physx2Gu16buildPartialHullERKNS0_13PolygonalDataEPNS0_12SupportLocalERNS0_14SeparatingAxesERKNS_6shdfnd3aos5Vec3VESC_
rvb:__Z14resize_trimmedINSt3__26vectorIN4core12basic_stringIcNS2_20StringStorageDefaultIcEEEE13stl_allocatorIS6_L18MemLabelIdentifier13ELi16EEEEEvRT_j
oEb:__Z18Transfer_BlittableI14SafeBinaryReadLb0EaEvRK29SerializationCommandArgumentsR31RuntimeSerializationCommandInfo
j9f:_CharEnumerator_System_Collections_IEnumerator_get_Current_m1328529384
NXc:__ZN11NoiseModule17CalculateNoiseJobILi3ELb1ELb1EEEvP12NoiseJobData
CMm:_emscripten_glFrustum__wrapper
YQd:__ZNK5physx2Sc16ArticulationCore17releaseDriveCacheERNS_9PxcFsDataE
Wth:_GetRayIntersectionAllCallback_Invoke_m1316694896
fbf:_UNITY_FT_List_Iterate
iFd:__ZN5physx11NpAggregate7releaseEv
E8f:_Char_System_IConvertible_ToUInt64_m3536560782
l2i:_EqualityComparer_1__cctor_m3452395357_gshared
QC:__ZN19StreamedBinaryWriteILb0EE8TransferIKN4math7_float3EEEvRT_PKc17TransferMetaFlags
u$b:__Z20SyncFenceCullResultsR11CullResults
VRa:__ZN15TextureTFMethod20IsBoneCountSupportedEi
l9h:_Double_ToString_m3828879243_AdjustorThunk
JIb:__Z22TransferField_NonArrayI17RemapPPtrTransfer27Converter_SimpleNativeClassI8GUIStyleEEvRK23StaticTransferFieldInfoR31RuntimeSerializationCommandInfoRT0_
y0d:__ZN5physx7NpShape12setMaterialsEPKPNS_10PxMaterialEt
tgc:__ZNK17AnimationCurveTplIfE20EvaluateWithoutCacheEfRf
jpj:__Z67RuntimeInvoker_Boolean_t97287965_Rect_t2360479859_SByte_t1669577662PFvvEPK10MethodInfoPvPS4_
M8a:__ZN19ShaderPropertySheet10SetTextureERK23FastTexturePropertyNameP7Texture
KNf:_CustomAttributeData__ctor_m2966233049
KDf:_CanvasUpdateRegistry_PerformUpdate_m1793997159
xLg:_Context_set_ClientWriteIV_m3405909624
Hsc:__ZN4Mesh10SetNormalsEPK8Vector3fj
Wod:__Z66Register_UnityEngine_Physics2D_INTERNAL_CALL_GetRayIntersectionAllv
kBl:_AesManaged_CreateDecryptor_m692040246
wA:__ZN17AnimationCurveTplIfE8TransferI14SafeBinaryReadEEvRT_
b4k:_List_1__ctor_m808270210_gshared
ork:_Array_InternalArray__set_Item_TisInt16_t2552820387_m2544074754_gshared
T2f:_ArithmeticException__ctor_m3551809662
qpg:_MonoIO_ExistsDirectory_m2182482658
w8c:__ZN22ParticleSystemRenderer15InitializeClassEv
_dc:__Z29StdTemplateConversionFunctionIybEbPvR14SafeBinaryRead
cib:__ZNSt3__26vectorIN15QualitySettings14QualitySettingENS_9allocatorIS2_EEE6assignIPS2_EENS_9enable_ifIXaasr21__is_forward_iteratorIT_EE5valuesr16is_constructibleIS2_NS_15iterator_traitsIS9_E9referenceEEE5valueEvE4typeES9_S9_
Jzd:__Z15raycast_capsuleRKN5physx10PxGeometryERKNS_11PxTransformERKNS_6PxVec3ES8_fNS_7PxFlagsINS_9PxHitFlag4EnumEtEEjPNS_12PxRaycastHitEbPFbRSD_PvESG_
hZk:_List_1_CheckCollection_m1671972112_gshared
IJg:_CipherSuiteFactory_GetSsl3SupportedCiphers_m3757358569
GMi:_UnicodeEncoding_GetPreamble_m3002287178
yHe:__ZNK5physx34PxsSolverConstraintPostProcessTask7getNameEv
Ooj:__Z52RuntimeInvoker_Color_t2555686324_Color32_t2600501292PFvvEPK10MethodInfoPvPS4_
Xya:__ZN20GpuProgramParameters14AddVectorParamEPKcii15ShaderParamTypeiiiP16PropertyNamesSet
ptd:__ZN5physx2Gu23distancePointBoxSquaredERKNS_6PxVec3ES3_S3_RKNS_7PxMat33EPS1_
uYe:__ZN5physx9NpPhysics20MeshDeletionListener28onGuMeshFactoryBufferReleaseEPKNS_6PxBaseEtb
puf:__ZNK12HeaderHelper3GetERKN4core12basic_stringIcNS0_20StringStorageDefaultIcEEEE
Trb:__ZN9InputAxis8TransferI14SafeBinaryReadEEvRT_
b9:__ZNK21ExecutionOrderManager30GetCustomAwakeFromLoadQueueForEPKN5Unity4TypeE
Uhe:__ZNK5physx7NpScene9getActorsENS_7PxFlagsINS_15PxActorTypeFlag4EnumEtEEPPNS_7PxActorEjj
Itf:__Z27RegisterModule_UnityConnectv
Irg:_MemoryStream_Expand_m3554752073
i2h:_DateTimeFormatInfo_get_RoundtripPattern_m796050488
Kpe:__ZN5physx11NodeManagerD0Ev
ivi:_ScriptableObject_CreateInstance_m2611081756
bkh:_ObjectRecord_get_IsInstanceReady_m2304516395
v_g:_InternalEnumerator_1_System_Collections_IEnumerator_get_Current_m1635397542_gshared
nsg:_Path__cctor_m3273994011
MBl:_AnalyticsEventTracker__ctor_m3064238498
tHm:__ZNSt11logic_errorD2Ev
U1h:_DateTimeUtils_CountRepeat_m3396693018
Uld:__ZNK17Physics2DSettings22GetTypeVirtualInternalEv
ROm:_glBindRenderbuffer__wrapper
bW:__ZN10ObjectPoolIN4FMOD12ChannelGroupENS0_13ChannelGroupIEE7SetSizeEi
XAl:_SymmetricTransform_FinalDecrypt_m764004682
Bqm:__ZN6il2cpp2os10ThreadImpl33UnregisterCurrentThreadForCleanupEv
Iol:_Parser_ParseGroupingConstruct_m263270497
Nhc:__ZN9Polygon2D7SetPathEiRK13dynamic_arrayI8Vector2fLj4EE
rt:__ZN15SerializeTraitsINSt3__24pairI8StateKey10StateRangeEEE8TransferI14SafeBinaryReadEEvRS4_RT_
ybm:__ZN14dense_hash_mapI10KeyWrapperINSt3__24pairIPK9EventInfoP11Il2CppClassEEEj17ReflectionMapHashIS8_ENS9_14EqualsComparerINS1_8equal_toIS8_EEEENS1_9allocatorINS2_IKS9_jEEEEE15set_deleted_keyERSH_
gGf:_Dropdown_RefreshShownValue_m2806045241
U2d:__ZNK5physx7NpCloth25getMotionConstraintConfigEv
pac:__ZN25CameraStackRenderingState19SetupLastEyeCamerasERK11CameraStack
s$a:__Z12GUIDToStringRK9UnityGUID
VNg:_RSASslSignatureDeformatter_SetKey_m2204705853
jpm:__ZN6il2cpp6icalls8mscorlib6System4Enum12get_hashcodeEP12Il2CppObject
_R:__ZN11SoundHandleC2ERKS_
HD:__ZN17AnimationPlayableC2E18DirectorPlayerType
iYc:__Z9UpdateTplIL27ParticleSystemCurveEvalMode2EEvRK11MinMaxCurveR23ParticleSystemParticlesPfRKN4math7_float4Ejj
f_l:__ZNK6il2cpp5utils11collections13ArrayValueMapIPK10Il2CppType17Il2CppInteropData26InteropDataToTypeConverterNS_8metadata14Il2CppTypeLessENS8_26Il2CppTypeEqualityComparerEE10find_firstERKS5_
Rs:__ZN18AnimatorController23VirtualRedirectTransferER18StreamedBinaryReadILb0EE
lqg:_FileStream_get_CanSeek_m331583577
wBg:_DSAParameters_t1885824122_marshal_pinvoke_back
zBd:__ZN5physx3Cct26CharacterControllerManager24setOverlapRecoveryModuleEb
WJ:__ZN8Animator22OnGraphTopologyChangedEP8Playablei
gDh:_Kernel_MultiplyByDword_m1266935086
mtm:__ZN4utf89unchecked8utf8to16INSt3__220back_insert_iteratorINS2_12basic_stringIDsNS2_11char_traitsIDsEENS2_9allocatorIDsEEEEEEPKcEET_T0_SE_SD_
gG:__ZN17AnimationPlayable18DeallocateBindingsEv
Zbc:__ZN6Camera25StandaloneRenderToCubemapEP7TextureiPFvPK9SceneNodePK4AABBR9IndexListPvESA_j
b_h:_String_Trim_m3384720403
y8a:__ZN14RenderSettings18TransferDeprecatedI14SafeBinaryReadEEvRT_
Nxl:_Event__ctor_m526447123
Ukj:__Z88RuntimeInvoker_RuntimeObject_RuntimeObject_RuntimeObject_RuntimeObject_Int32_t2950945753PFvvEPK10MethodInfoPvPS4_
DSi:_Type_ToString_m3975981286
V8:__ZN12TLSAllocatorI14StackAllocatorE8AllocateEji
Waa:__ZN16ScriptingManager18GetMonoScriptCacheEi
zjh:_RemotingServices__cctor_m4056345423
Wol:_ExpressionAssertion__ctor_m2554412824
hFd:__ZNK5physx3Ext5JointINS_15PxDistanceJointENS_30PxDistanceJointGeneratedValuesEE11getBodyPoseEPKNS_12PxRigidActorE
Tsk:_Array_Resize_TisCustomAttributeTypedArgument_t2723150157_m3021884250_gshared
O7i:_Enumerator_System_Collections_IEnumerator_get_Current_m2237476582_gshared
vEb:__Z18Transfer_BlittableI14SafeBinaryReadLb1EyEvRK29SerializationCommandArgumentsR31RuntimeSerializationCommandInfo
eWc:__ZNSt3__27__sort5IR31SortCollisionEventsByGameObjectP22ParticleCollisionEventEEjT0_S5_S5_S5_S5_T_
Gxg:_NullReferenceException__ctor_m3076065613
dMc:__ZN8JSONRead8TransferIfEEvRT_PKc17TransferMetaFlagsb
uya:__ZN9ShaderLab7Program22ComputeSupportsShadowsEv
KLh:_X509SubjectKeyIdentifierExtension_Decode_m1505409124
F3d:__ZN5physx7NpCloth25setSelfCollisionStiffnessEf
JBl:_AnalyticsEventParamListContainer__ctor_m1995104893
GZh:_String_System_IConvertible_ToUInt16_m2888090399
KX:__ZN11AudioSource21ApplyCachedParametersE12SoundChannel
AMf:_Assembly_InternalGetType_m3065345470
J0:__ZN13Simd4iFactoryIN6detail9FourTupleEEC2Eiiii
zZf:_ResourceSet__ctor_m3356376607
tNj:__ZL56_ParameterInfo_t489405856_CustomAttributesCacheGeneratorP21CustomAttributesCache
hhb:__ZN15SerializeTraitsI33EnlightenTerrainChunksInformationE8TransferI14SafeBinaryReadEEvRS0_RT_
Ded:__ZN6b2Body12SetTransformERK6b2Vec2f
omc:__ZNK32RendererMaterialAnimationBinding9BindValueER6ObjectRKN11UnityEngine9Animation14GenericBindingERNS3_10BoundCurveE
M9g:_Transform_1_Invoke_m1731820209_gshared
t9a:__Z13GetIAnimationv
sKa:__ZL18stbir__support_onef
ZYh:_Single_CompareTo_m189772128
QNc:__Z26Transfer_UnityEngineObjectI9JSONWriteLb0EEvRK29SerializationCommandArgumentsR31RuntimeSerializationCommandInfo
U0g:_DefaultComparer_Compare_m4042058291_gshared
q3c:__ZN14VelocityModuleD2Ev
Ocb:__ZNSt3__26vectorIN4core12basic_stringIcNS1_20StringStorageDefaultIcEEEE13stl_allocatorIS5_L18MemLabelIdentifier1ELi16EEE6assignINS_11__wrap_iterIPS5_EEEENS_9enable_ifIXaasr21__is_forward_iteratorIT_EE5valuesr16is_constructibleIS5_NS_15iterator_traitsISF_E9referenceEEE5valueEvE4typeESF_SF_
tKm:dynCall_iiiifii
_if:__ZNSt3__27__sort5IRNS_6__lessIN2UI14DepthSortEntryES3_EEPS3_EEjT0_S7_S7_S7_S7_T_
Ypg:_FileLoadException_ToString_m2989457882
EFl:_AudioListener_ClearExtensionProperties_m3849891634
xSc:__Z39ParticleSystemRenderer_RenderBillboardsIL21SpriteMaskInteraction0EEvRK15RenderNodeQueuej17ShaderChannelMaski
_1e:_UNITY_FT_DivFix
Bwk:_Array_InternalArray__get_Item_TisDecimal_t2948259380_m3511003792_gshared
sWh:_SecurityElement_IsValidAttributeValue_m948345692
Plc:__ZN14Texture2DArrayC2E10MemLabelId18ObjectCreationMode
Na:invoke_vdd
Ko:FUNCTION_TABLE_fiii
iug:_TextWriter_Write_m2252948084
vpc:__Z19RegisterModule_Corev
Hkc:__ZNK30SpriteRendererAnimationBinding12GetPPtrValueERKN11UnityEngine9Animation10BoundCurveE
Bgf:__ZZ29InitializeTextRenderingModulevEN27cleanupAfterLoadRegistrator7ForwardEv
Bzb:__ZNSt3__26__sortIRPFbRK23TransformAccessReadOnlyS3_EPS1_EEvT0_S8_T_
bbi:_CCFixed_FromDateTime_m3894190577
WAm:__ZN6il2cpp6icalls8mscorlib4Mono8Security12Cryptography18KeyPairPersistence19_IsMachineProtectedEP12Il2CppString
cac:__Z29PluginsIssueRenderingExtEvent26UnityRenderingExtEventTypePv
Kcj:__Z116RuntimeInvoker_RuntimeObject_RuntimeObject_Int32_t2950945753_RuntimeObject_RuntimeObject_RuntimeObject_RuntimeObjectPFvvEPK10MethodInfoPvPS4_
Hkh:_MessageFormatter_ReadMethodCall_m2327590823
k7c:__Z19UpdateSingleRow2TplIL27ParticleSystemCurveEvalMode2ELS0_2EEvfRK11MinMaxCurveS3_RK23ParticleSystemParticlesPfbiii
plc:__Z14RandomRotationP9Texture2DPhiiii
NHi:_Array_InternalArray__ICollection_Add_TisUInt16_t2177724958_m3981262878_gshared
eXe:__ZThn132_N5physx7profile8ZoneImplINS_28PxProfileNameProviderForwardEED1Ev
X6i:_HashSet_1_Contains_m3173358704_gshared
DDl:_ToggleEvent__ctor_m834619998
_Gg:_PKCS1_Encode_v15_m2077073129
s_b:__ZZ23InitPlayerLoopCallbacksvEN39PostLateUpdateGUIClearEventsRegistrator7ForwardEv
rie:__ZN5physx7NpScene27setCCDContactModifyCallbackEPNS_26PxCCDContactModifyCallbackE
hhl:_WaypointProgressTracker_set_speedPoint_m1627538866
$Oe:__ZNK5physx17ConvexHullBuilder17ComputeGeomCenterERNS_6PxVec3E
Yei:_AnimationCurve_Evaluate_m2125563588
Mri:_Random_INTERNAL_get_insideUnitSphere_m2687634800
cfm:__ZNSt3__214__split_bufferIN6il2cpp8metadata18GenericArrayMethodERNS_9allocatorIS3_EEED2Ev
oxe:__ZN3MBPD0Ev
tNa:__ZN4gles14UseGLSLProgramER15DeviceStateGLESjbij
RSm:_glDeleteProgram__wrapper
qzc:__Z50Register_UnityEngine_Camera_INTERNAL_get_pixelRectv
m0c:__ZN11ShapeModule18MultiModeParameterIN25IParticleSystemProperties8PropertyIfNS1_11ClampRadiusEEEE8TransferI24GenerateTypeTreeTransferEEvRT_
BLa:__ZN6prcoreL18BlitFloatToIntegerERK14ImageReferenceRS0_
Y4h:_DBNull_System_IConvertible_ToUInt32_m3784627971
AKg:_ClientSessionCache_Add_m964342678
xle:__ZNK5physx10PxsContext18getBounceThresholdEv
DRa:__ZN13dynamic_arrayI15ComputeShaderCBLj4EE6assignEPKS0_S3_
i4:__ZN11UnityEngine15CloudWebService14RestDownloader17OnCompleteContentEv
n5l:__ZN15dense_hashtableINSt3__24pairIK10KeyWrapperINS1_IPK14Il2CppAssemblyP11Il2CppClassEEEjEES9_17ReflectionMapHashIS8_EN14dense_hash_mapIS9_jSD_NS9_14EqualsComparerINS0_8equal_toIS8_EEEENS0_9allocatorISB_EEE9SelectKeyESI_SK_E15insert_noresizeERKSB_
sxi:_Transform_get_localScale_m129152068
t6h:_DivideByZeroException__ctor_m3496959969
Age:__ZN5physx6shdfnd5ArrayIPvNS0_15InlineAllocatorILj256ENS0_19ReflectionAllocatorINS_2Gu31SpherePersistentContactManifoldEEEEEE15growAndPushBackERKS2_
GJe:__ZN5physx2Cm18DelegateFanoutTaskINS_2Sc5SceneEXadL_ZNS3_17finalizationPhaseEPNS_10PxBaseTaskEEEE11runInternalEv
CJ:__ZN17AnimationPlayable28UpdateInternalStateRecursiveILi1ELb0EEEvPK35AnimationPlayableEvaluationConstant
Vnm:__ZN6il2cpp2gcL10CleanupCCWEPvS1_
hb:invoke_vifff
wAc:__Z41Register_UnityEngine_GameObject_set_layerv
sRm:_glGetVertexAttribiv__wrapper
nVd:__ZN5physx6shdfnd15atomicDecrementEPVi
If:_emscripten_request_fullscreen
ZUk:_Predicate_1_Invoke_m851618236_gshared
iVb:__ZN20LocalFileSystemWebGL6DeleteER13FileEntryDatab
Kf:_emscripten_glDisableVertexAttribArray
kCi:_Array_InternalArray__ICollection_Remove_TisSingle_t1397266774_m3361324455_gshared
Eo:FUNCTION_TABLE_iiiifiiii
psa:__ZN4core8hash_mapINS_12basic_stringIcNS_20StringStorageDefaultIcEEEE13dynamic_arrayI4PPtrI6SpriteELj4EENS_4hashIS4_EENSt3__28equal_toIS4_EEE12delete_nodesEv
Kc:invoke_fifffi
qHk:_Collection_1_System_Collections_IList_Add_m2969482770_gshared
RDh:_BitConverterLE_GetBytes_m4130646282
PHa:__ZN4gles23ClearCurrentFramebufferEP7ApiGLESbbbRK10ColorRGBAffi
$H:__ZN7mecanim12statemachine20CreateStateWorkspaceEjjjRNS_6memory9AllocatorE
zvl:_UnityEvent_1_Invoke_m3604335408_gshared
HOe:__ZN5physx2Gu11HeightField13releaseMemoryEb
Vf:_emscripten_glDeleteObjectARB
Gxf:_EventSystem_RaycastComparer_m3685368675
fNa:__Z14DecompressDXT3iiiPKjPj
Egj:__Z131RuntimeInvoker_Void_t1185182177_RuntimeObject_RuntimeObject_Int64_t3736567304_ObjectU26_t2146539884_SerializationInfoU26_t419328957PFvvEPK10MethodInfoPvPS4_
zUc:__ZN12LightsModule5StartER23ParticleSystemParticlesjj
GEh:_DSAManaged_CreateSignature_m2233977444
rHh:_PKCS12_RemoveCertificate_m1421555398
CMa:__ZN6prcoreL17RemapGenericFloatI17TexFormatRGBAHalf18TexFormatARGBFloatEEvPKNS_9InnerInfoE
Jhd:__ZNSt3__27__sort4IRN18Overlap2DQueryBase29ColliderHitsByDepthComparitorEPP10Collider2DEEjT0_S7_S7_S7_T_
pJc:__Z14GetBuiltinSkini
ehh:_MethodDictionary_get_Item_m1201458851
xBf:_StandaloneInputModule_ProcessMouseEvent_m2923582521
JYh:_Single_System_IConvertible_ToSingle_m1939829239_AdjustorThunk
qja:___cxx_global_var_init_18
cm:_JS_SystemInfo_GetBrowserVersionString
bzb:__ZN2UI13RectTransform23VirtualRedirectTransferER14SafeBinaryRead
aje:__ZN5physx7NpScene17flushQueryUpdatesEv
Pva:__ZNSt3__26vectorIN9ShaderLab20SerializedSubProgramENS_9allocatorIS2_EEE6assignIPS2_EENS_9enable_ifIXaasr21__is_forward_iteratorIT_EE5valuesr16is_constructibleIS2_NS_15iterator_traitsIS9_E9referenceEEE5valueEvE4typeES9_S9_
aQc:__Z18Transfer_BlittableI8JSONReadLb0E8BitFieldEvRK29SerializationCommandArgumentsR31RuntimeSerializationCommandInfo
e9f:_Char_ToString_m3588025615_AdjustorThunk
R6i:_HashSet_1_CopyTo_m2849056227_gshared
tOb:__ZL17Transfer_GUIStyleI18StreamedBinaryReadILb1EELb0EEvRK29SerializationCommandArgumentsR31RuntimeSerializationCommandInfo
QCh:_ModulusRing_Multiply_m343333088
g_e:__ZN12PhysXRaycast15InitializeClassEv
sje:__ZN5physx7NpScene10unlockReadEv
Eta:__ZN9ShaderLab14SerializedPass8TransferI14SafeBinaryReadEEvRT_
hKc:__Z71Register_UnityEngine_GUILayoutUtility_INTERNAL_CALL_Internal_MoveWindowv
w_:__ZN12AudioManager16SetListenerPauseEb
Vjd:__ZNSt3__26__sortIRN10ClipperLib12LocMinSorterEPNS1_12LocalMinimumEEEvT0_S6_T_
Bcl:_VirtualButton_Remove_m2283809840
aDi:_SetPropertyUtility_SetStruct_TisSingle_t1397266774_m2805350785_gshared
qim:__ZN6il2cpp2vm9Exception25RaiseOutOfMemoryExceptionERKNS_5utils10StringViewIDsEE
ga:invoke_viiiiiiiiiii
iDm:___syscall_ret
Pjl:_DeriveBytes_set_Salt_m1400945044
Pzf:_PointerEventData_set_worldNormal_m1888481930
Epl:_AnchorInfo__ctor_m46784903
yYl:__ZN15dense_hashtableI10KeyWrapperIPK17Il2CppGenericInstES4_N6il2cpp8metadata21Il2CppGenericInstHashEN14dense_hash_setIS4_S7_NS4_14EqualsComparerINS6_24Il2CppGenericInstCompareEEENSt3__29allocatorIS4_EEE8IdentityESB_SE_E6insertERKS4_
gJg:_CipherSuiteCollection_get_Item_m4188309062
QOg:_SslHandshakeHash_HashFinal_m2573455475
Veh:_SynchronizationAttribute_ReleaseLock_m1030353464
Shc:__ZN14qsort_internal30FindAndMovePivotToLastPositionIP8Vector2fi26PointDistanceSortPredicateEEvT_S4_T0_T1_
Jof:__Z56Register_UnityEngine_Analytics_CustomEventData_AddDoublev
fkb:__ZN11ChannelInfo8TransferI19StreamedBinaryWriteILb0EEEEvRT_
stm:__ZN4utf88internal13validate_nextIPKcEENS0_9utf_errorERT_S5_Rj
skk:__ZL53ToggleGroup_t123837990_CustomAttributesCacheGeneratorP21CustomAttributesCache
W4d:__ZN5physx2Sc9ClothCore22setFrictionCoefficientEf
D1b:__ZN14qsort_internal13Partition3WayIP17RODataReplacementi19ROSorterReplacementEENSt3__24pairIT_S6_EES6_S6_T0_T1_
U_d:__ZNK5physx9NpPhysics17getNbConvexMeshesEv
Pie:__ZNK5physx7NpScene29getContactCorrelationDistanceEv
OAc:__Z34Register_UnityEngine_Gradient_Initv
Rrc:__Z15WriteLineVertexILb0EEvRPhRKN4math8float4x4ERKNS2_7_float3ERK11ColorRGBA32RKffRKNS2_7_float2E
r0c:__ZN13InitialModule8TransferI17RemapPPtrTransferEEvRT_
heh:_Context_ToString_m1073616138
v1c:__ZN25IParticleSystemProperties8PropertyI8Vector3fNS_3MinILi0EEEE8TransferI18StreamedBinaryReadILb0EEEEvRT_PKc
tmh:_InputField_EnforceTextHOverflow_m3400115777
Uw:__ZN9Animation13AwakeFromLoadE17AwakeFromLoadMode
T6h:_Decimal_op_Increment_m2045993911
L0e:__Z39Register_UnityEngine_Rigidbody_get_dragv
Xrb:__ZN9InputAxis8TransferI19StreamedBinaryWriteILb0EEEEvRT_
okg:__Z33il2cpp_codegen_check_sub_overflowxx
tJm:dynCall_viififiii
gnh:_InputField_get_caretColor_m2973283772
dDd:__ZN5physx6shdfnd8SyncImpl4waitEj
D8h:_Double_System_IConvertible_ToInt16_m3591921965_AdjustorThunk
cTk:_Comparison_1_Invoke_m2925518770_gshared
X4c:__ZN33SizeBySpeedModulePropertyBindings13GetFloatValueERK14ParticleSystemi
q0a:__ZN10GameObject23VirtualRedirectTransferER18StreamedBinaryReadILb0EE
GAl:_SymmetricTransform__ctor_m2693628991
JLf:_ObjectDisposedException__ctor_m1034312941
RPl:_Rigidbody_INTERNAL_set_angularVelocity_m4188482450
Aoj:__Z67RuntimeInvoker_Void_t1185182177_Scene_t2348375561_Scene_t2348375561PFvvEPK10MethodInfoPvPS4_
kh:_glFrontFace
n_l:__ZNK15dense_hashtableINSt3__24pairIK10KeyWrapperIPK11Il2CppClassEPKcEES6_N6il2cpp5utils11PointerHashIS3_EEN14dense_hash_mapIS6_S9_SE_NS6_14EqualsComparerINS0_8equal_toIS5_EEEENS0_9allocatorISA_EEE9SelectKeyESJ_SL_E13find_positionERS7_
cXc:__Z13DragUpdateTplIL27ParticleSystemCurveEvalMode4EEvRK11MinMaxCurvebbR23ParticleSystemParticlesjjRKN4math7_float4E
jti:_RectOffset__ctor_m3236153262
o0c:__ZN14ParticleSystem8TransferI17RemapPPtrTransferEEvRT_
WQd:__ZN5physx21PxcArticulationHelper13applyImpulsesERKNS_9PxcFsDataEPNS_14PxcSIMDSpatialES5_
CYc:__Z11StartCircleILN11ShapeModule14MultiModeValueE3EEvRS0_R23ParticleSystemParticlesRK19ParticleSystemStateRK27ParticleSystemEmissionStateRKN4math8float3x3ERKNSB_8float4x4Ejbj
Ish:_MaskUtilities_IsDescendantOrSelf_m2247511982
Hke:__ZN5physx13NpVolumeCache17getNbCachedShapesEv
z6b:__ZNSt3__26vectorI16ShadowCasterData13stl_allocatorIS1_L18MemLabelIdentifier2ELi16EEE21__push_back_slow_pathIKS1_EEvRT_
lhf:__Z51Register_UnityEngine_TextGenerator_GetLinesInternalv
cah:_Enumerator_get_Current_m2250080680_AdjustorThunk
CXh:_SecurityElement__cctor_m3326869319
rBl:_AesManaged_set_Key_m767972181
qjg:_Int16_System_IConvertible_ToBoolean_m1656400658_AdjustorThunk
l7f:_Byte_System_IConvertible_ToInt64_m285584218
vlh:_ObjectManager__ctor_m1844334865
gFa:__ZN13GfxDeviceGLES22SetScissorRectPlatformERK5RectTIiE
TLa:__ZN6prcoreL17RemapGenericFloatI17TexFormatRGBFloat18TexFormatRGBAFloatEEvPKNS_9InnerInfoE
ime:__ZN5physx2Sc5Scene15getRenderBufferEv
fHi:_Array_InternalArray__ICollection_Add_TisDictionaryEntry_t3123975638_m665385049_gshared
xvg:_MissingMemberException__ctor_m2707802176
jAb:__ZN12HandlerChain10ToAbsoluteEPKc
WLl:_Canvas_get_renderMode_m841659411
nhb:__ZN15SerializeTraitsI13dynamic_arrayI28EnlightenRendererInformationLj8EEE19ResizeSTLStyleArrayERS2_i
pod:__ZN16PhysicsManager2D12BeginContactEP9b2Contact
eTb:__ZN13MonoBehaviour23VirtualRedirectTransferER19StreamedBinaryWriteILb0EE
RR:__ZN9AudioClip11CreateSoundEv
Jnj:__Z98RuntimeInvoker_Void_t1185182177_Single_t1397266774_Vector3U26_t3464235976_QuaternionU26_t651104941PFvvEPK10MethodInfoPvPS4_
SZe:__Z19ExtractDataFromMeshR4MeshR13dynamic_arrayI8Vector3fLj4EERS1_IjLj4EES6_b
Mbm:__ZN14dense_hash_mapI10KeyWrapperINSt3__24pairIPK9FieldInfoP11Il2CppClassEEEj17ReflectionMapHashIS8_ENS9_14EqualsComparerINS1_8equal_toIS8_EEEENS1_9allocatorINS2_IKS9_jEEEEEC2EjRKSB_RKSF_
i7l:__ZNK15dense_hashtableINSt3__24pairIK10KeyWrapperINS1_IPK10MethodInfoP11Il2CppClassEEEjEES9_17ReflectionMapHashIS8_EN14dense_hash_mapIS9_jSD_NS9_14EqualsComparerINS0_8equal_toIS8_EEEENS0_9allocatorISB_EEE9SelectKeyESI_SK_E13find_positionERSA_
qdl:_StandaloneInput_SetAxisZero_m1656451625
IFb:__Z19TransferField_ArrayI14SafeBinaryRead27Converter_SimpleNativeClassI10RectOffsetEEvRK23StaticTransferFieldInfoR31RuntimeSerializationCommandInfoRT0_
Qsf:__ZN11UnityEngine7Connect16PersistentValues13RestoreValuesER8JSONRead
WUe:__ZN14SphereCollider22FetchPoseFromTransformEv
Fei:_Guid_BaseToString_m3600006650
XZa:__ZN20ArchiveStorageReader31TryToReadDirectoryFromBlockDataEyPKvj
TEe:__ZNK5physx2Gu11HeightField17getHeightInternalEff
uri:_Quaternion_get_identity_m3722672781
ykm:__ZN6il2cpp2vmL11GetIdentityEP14Il2CppIUnknown
O_l:__ZN6il2cpp2vm13MetadataCache26GetWindowsRuntimeClassNameEPK11Il2CppClass
Mwm:_GC_push_gc_structures
rMg:_TlsServerCertificate_ProcessAsTls1_m819212276
hie:__ZNK5physx7NpScene22getClientBehaviorFlagsEh
Evk:_Dictionary_2_Do_ICollectionCopyTo_TisRuntimeObject_m3942192587_gshared
z$d:__ZN5physx9NpFactory14createMaterialEfff
M0:__ZN5physx5cloth11PhaseConfigC2Et
u7c:__Z19UpdateSingleRow2TplIL27ParticleSystemCurveEvalMode0ELS0_2EEvfRK11MinMaxCurveS3_RK23ParticleSystemParticlesPfbiii
EA:__ZNSt3__26vectorIN13AnimationClip10FloatCurveE13stl_allocatorIS2_L18MemLabelIdentifier26ELi16EEE6resizeEj
xEg:_Kernel_DwordDivMod_m1540317819
o5c:__ZN22ParticleSystemRenderer23UpdateVertexInputLayoutEv
Tge:__ZThn8_N5physx2Sc19ShapeInstancePairLLD0Ev
Tze:__ZN5physx19PxcContactSphereBoxERKNS_2Gu13GeometryUnionES3_RKNS_11PxTransformES6_RKfRNS_10PxcNpCacheERNS0_13ContactBufferE
gyk:_Enumerator_System_Collections_IEnumerator_get_Current_m1399273671_gshared
vie:__ZNK5physx7NpScene21getBroadPhaseCallbackEh
VJd:__ZN5physx6shdfnd5ArrayIPNS_12PxConstraintENS0_19ReflectionAllocatorIS3_EEE15growAndPushBackERKS3_
SEd:__ZN5physx3Ext5JointINS_15PxDistanceJointENS_30PxDistanceJointGeneratedValuesEE10onComShiftEj
zkb:__ZNSt3__213__stable_sortIRNS_4lessI4PPtrI11SpriteAtlasEEENS_11__wrap_iterIPS4_EEEEvT0_SA_T_NS_15iterator_traitsISA_E15difference_typeEPNSD_10value_typeEi
Eng:_Int64_ToString_m2085073918_AdjustorThunk
o9g:_Transform_1_Invoke_m4084479750_gshared
aRd:__ZNK5physx2Sc15ArticulationSim11checkResizeEv
QUf:_FieldInfo_GetFieldOffset_m1356898082
mGi:_Array_InternalArray__IndexOf_TisTypeTag_t3541821701_m2988972362_gshared
Ika:__ZN8keywords6CreateEPKc
Mtd:__ZN5physx2Gu11gjkRelativeINS0_8CapsuleVENS0_11ConvexHullVEEEjRKT_RKT0_RKNS_6shdfnd3aos15PsMatTransformVERNSB_5Vec3VESG_SG_RNSB_6FloatVE
CQl:__ZL7log2_32j
S:Math_imul
qVe:__ZN5Unity5Joint22JointTransferPreNoAxisI14SafeBinaryReadEEvRT_
B7c:__Z17UpdateSprites2TplIL27ParticleSystemCurveEvalMode4ELS0_4EEvfRK11MinMaxCurveS3_RK23ParticleSystemParticlesPf
MMg:_TlsServerKeyExchange_Update_m453798279
qib:__ZN11PlayerPrefs6GetIntERKN4core12basic_stringIcNS0_20StringStorageDefaultIcEEEEi
nJg:_CipherSuiteCollection_System_Collections_IList_IndexOf_m1361500977
uzh:_Text_set_fontStyle_m648756124
Ugf:__Z45TextGenerator_CUSTOM_INTERNAL_get_rectExtentsP12Il2CppObjectP5RectTIfE
m1h:_DateTime__ctor_m2135476686_AdjustorThunk
j$:__ZN11AudioSource12SetAudioClipEP9AudioClip
Zti:_RectTransform_GetLocalCorners_m823861473
xYa:__Z18ReadStringFromFilePN4core17string_with_labelILi1EEERKNS_12basic_stringIcNS_20StringStorageDefaultIcEEEE
k5c:__ZN30VelocityModulePropertyBindings13GetFloatValueERK14ParticleSystemi
caa:__ZN18ScriptingArguments9AddObjectE18ScriptingObjectPtr
hlf:__Z39CanvasGroup_Get_Custom_PropInteractableP12Il2CppObject
Ild:__ZN16CircleCollider2D23VirtualRedirectTransferER18StreamedBinaryReadILb0EE
_sf:__ZL38InitializeUnityConnectScriptingClassesv
Mac:__ZN13ProbeRenderer8ConvolveEbijjb
kAl:_GUIUtility_set_systemCopyBuffer_m608712289
hIa:__ZN17GenericDynamicVBOC2ER9GfxDevice13GfxBufferModejj
Yhd:__Z28GetPhysics2DScriptingClassesv
qIc:__ZZN10GUIManager14InitGUIManagerEvEN41PreUpdateIMGUISendQueuedEventsRegistrator7ForwardEv
NKh:_ServicePointManager_get_SecurityProtocol_m966397919
yee:__ZNK5physx2Sc5Scene7isValidEv
mbi:_CCGregorianCalendar_day_from_fixed_m1674702403
F2:__ZN11UnityEngine15CloudWebService17SessionEventQueue10PurgeItemsEj
yke:__ZN5physx2Sq17SceneQueryManager29setDynamicTreeRebuildRateHintEj
qbc:__ZN6Camera16StandaloneRenderENS_10RenderFlagEP6ShaderRKN4core12basic_stringIcNS3_20StringStorageDefaultIcEEEE
oNh:_X509Chain_PrepareForNextCertificate_m3691934993
cti:_Rect_Equals_m4169342960
NNb:__Z18Transfer_BlittableI18StreamedBinaryReadILb1EELb1EtEvRK29SerializationCommandArgumentsR31RuntimeSerializationCommandInfo
t9j:__ZL58EventType_t3528516131_CustomAttributesCacheGenerator_keyUpP21CustomAttributesCache
BPj:__ZL57X509Certificate_t713131622_CustomAttributesCacheGeneratorP21CustomAttributesCache
rnb:__ZN12BoneWeights48TransferI19StreamedBinaryWriteILb0EEEEvRT_
sCa:__ZN9GfxDevice20DeallocRenderSurfaceEP17RenderSurfaceBase
RPd:__ZN5physx6shdfnd5ArrayIPvNS0_19ReflectionAllocatorINS_18NpArticulationLinkEEEE4copyINS0_15InlineAllocatorILj256ES5_EEEEvRKNS1_IS2_T_EE
Lya:__ZN20GpuProgramParameters36UpdatePrepareValuesMaximumBufferSizeEv
Tpd:__ZNK5physx3Cct10Controller12getKineShapeEv
VYc:__Z15GetPositionMeshIL20MeshDistributionMode1ELb1E11ColorRGBA32EvRN4math8floatNx3ES4_RNS2_4pix4ERK13dynamic_arrayIS1_Lj4EERK14StrideIteratorI8Vector3fESF_RKSB_IT1_ERKS7_I16MeshTriangleDataLj4EERKS7_I11MeshAreaLUTLj4EERKfRKiST_R5RandNP12SkinMeshInfo
Uyi:_Vector3__ctor_m1719387948_AdjustorThunk
jId:__ZN5physx6shdfnd4sortIPvNS0_4LessIS2_EENS0_19ReflectionAllocatorINS_2Sc18TriggerInteractionEEEEEvPT_jRKT0_RKT1_j
zIi:_Array_InternalArray__ICollection_CopyTo_TisDecimal_t2948259380_m2749946216_gshared
Q1a:__ZN12BaseRenderer23RendererBecameInvisibleEv
Jce:__ZNK5physx2Sc8BodyCore14getMaxAngVelSqEv
odf:__ZN20TextRenderingPrivate8FontImpl13CharacterInfo8TransferI18StreamedBinaryReadILb0EEEEvRT_
aLb:__Z29Transfer_Blittable_ArrayFieldI24GenerateTypeTreeTransferfEvRT_R9ArrayInfoRK23StaticTransferFieldInfo
kna:__ZNSt3__26__treeINS_12__value_typeIN4core12basic_stringIcNS2_20StringStorageDefaultIcEEEES6_EENS_19__map_value_compareIS6_S7_NS_4lessIS6_EELb1EEE13stl_allocatorIS7_L18MemLabelIdentifier13ELi16EEE7destroyEPNS_11__tree_nodeIS7_PvEE
Dki:_UnityEvent_FindMethod_Impl_m2312362624
Gcc:__ZN19CustomRenderTexture9AddParentE4PPtrIS_E
Gia:__ZN8Gradient8TransferI14SafeBinaryReadEEvRT_
JFf:_FloatTween_AddOnChangedCallback_m2814315272
Gol:_Parser_ParseSpecial_m1961501104
RYh:_Single_System_IConvertible_ToUInt64_m3299129161_AdjustorThunk
Ncb:__ZNSt3__26vectorIN4core12basic_stringIcNS1_20StringStorageDefaultIcEEEE13stl_allocatorIS5_L18MemLabelIdentifier1ELi16EEE7reserveEj
sKh:_IPv6Address_AsIPv4Int_m844941024
SAe:__ZN5physx2Gu32PCMConvexVsMeshContactGeneration15processTriangleEPKNS_6PxVec3EjhPKj
_eg:_SortedList_GetEnumerator_m772783392
J_f:_Marshal__cctor_m4007734770
Gvm:_GC_new_free_list_inner
zGh:_SymmetricTransform_Random_m2004892672
lvm:_GC_err_printf
uEe:__ZN5physx6shdfnd5ArrayINS_2Cm8Matrix34ENS0_19ReflectionAllocatorIS3_EEE15growAndPushBackERKS3_
AHg:_RSAManaged_DecryptValue_m1804388365
ZAe:__ZN5physx2Gu32PCMConvexVsMeshContactGeneration31generatePolyDataContactManifoldERNS0_9TriangleVEjjhPNS0_21MeshPersistentContactERjRKNS_6shdfnd3aos6FloatVERNS8_5Vec3VE
$Qg:_InternalEnumerator_1_System_Collections_IEnumerator_get_Current_m2980550840_AdjustorThunk
CQe:__ZN5physx10SubSortSAH5splitEPjj
_kh:_ObjectReader_ReadArrayOfPrimitiveType_m3374303005
et:__ZN25RuntimeAnimatorController8TransferI14SafeBinaryReadEEvRT_
QQc:__ZN8JSONRead8TransferI10RectOffsetEEvRT_PKc17TransferMetaFlagsb
n2:__ZN9JSONWrite8TransferIN11UnityEngine15CloudWebService14DataErrorEvent15FileErrorDetailEEEvRT_PKc17TransferMetaFlags
pmg:_Int32_Parse_m2087562008
mvd:__ZN5physx2Gu3EPA8addFacetEjjjRKNS_6shdfnd3aos6FloatVES6_
v0c:__ZN14RotationModule8TransferI17RemapPPtrTransferEEvRT_
GXf:_MonoProperty_GetAccessors_m412928203
Xwl:_TweenRunner_1_Start_m3757154622_gshared
XU:__ZN12SoundManager20RegisterModifiedClipEP10SampleClip
_ih:_RemotingServices_GetClientChannelSinkChain_m1499550585
BMf:_Assembly_FillName_m1660001542
lob:__ZN12MeshRenderer15AddAsRenderNodeER15RenderNodeQueueRK20DeprecatedSourceData
iNj:__ZL56_EventBuilder_t2558055199_CustomAttributesCacheGeneratorP21CustomAttributesCache
eUh:_SHA384Managed_processBlock_m1272529332
BX:__ZN11AudioSource4PlayEd
g9f:_Char_ToString_m278452217_AdjustorThunk
WCd:__ZN5physx3Cct9CCTParamsC2Ev
KXl:__ZN15dense_hashtableI10KeyWrapperIPK17Il2CppGenericInstES4_N6il2cpp8metadata21Il2CppGenericInstHashEN14dense_hash_setIS4_S7_NS4_14EqualsComparerINS6_24Il2CppGenericInstCompareEEENSt3__29allocatorIS4_EEE8IdentityESB_SE_E13set_empty_keyERKS4_
laj:__Z63RuntimeInvoker_Char_t3634460470_Int16_t2552820387_RuntimeObjectPFvvEPK10MethodInfoPvPS4_
ahg:_Convert_ToDouble_m2924063577
v2d:__ZN5physx7NpCloth21setStiffnessFrequencyEf
ute:__ZN5physx17PxcSweepBoxConvexERKNS_11PxsCCDShapeES2_PKNS_12PxsRigidBodyES5_RKNS_11PxTransformES8_S8_S8_fRNS_6PxVec3ESA_RNS_10PxcNpCacheERNS_18PxcNpThreadContextEf
OMe:__ZThn8_N5physx2Gu11HeightField14onRefCountZeroEv
DHd:__ZN5physx2Sc5Actor9setActiveEbj
Btd:__ZN12_GLOBAL__N_127SphereMeshContactGeneration15processTriangleEjRKN5physx6PxVec3ES4_S4_PKj
lbh:_ValueCollection_System_Collections_Generic_ICollectionU3CTValueU3E_Remove_m3673494156_gshared
ofb:__ZN7Cubemap23VirtualRedirectTransferER18StreamedBinaryReadILb0EE
wCc:__ZNSt3__27__sort4IRNS_6__lessI11KeyframeTplIfES3_EEPS3_EEjT0_S7_S7_S7_T_
R9e:_Read_CVT
ZHd:__ZN5physx2Sc10NPhaseCore28reserveContactReportPairDataEjjRj
Std:__ZN5physx2Gu22barycentricCoordinatesERKNS_6shdfnd3aos5Vec3VES5_S5_RNS2_6FloatVE
i_a:__ZN12FileAccessor4SeekEx10FileOrigin
QJb:__ZL26Transfer_SimpleNativeClassI24GenerateTypeTreeTransfer17AnimationCurveTplIfELb0EEvRK29SerializationCommandArgumentsR31RuntimeSerializationCommandInfo
Ngg:_Convert_ToDecimal_m1783778724
QRc:__ZN8JSONRead21TransferSTLStyleArrayI13dynamic_arrayI9BoundsIntLj4EEEEvRT_17TransferMetaFlags
vhb:__ZN24GenerateTypeTreeTransfer8TransferI13dynamic_arrayI33EnlightenTerrainChunksInformationLj4EEEEvRT_PKc17TransferMetaFlags
c2h:_DateTimeFormatInfo__ctor_m3106345035
dKg:_TlsServerKeyExchange_verifySignature_m3412856769
c2i:_EqualityComparer_1_System_Collections_IEqualityComparer_GetHashCode_m4137147946_gshared
WOe:__ZL18TestUnifiedNormalsjPKN5physx6PxVec3EjPNS_2Gu9TriangleTIjEEb
Hoa:__ZN16LightmapSettings20DidChangeActiveSceneEP10UnitySceneS1_
Fnk:__ZL59g_AssemblyU2DCSharp_Assembly_CustomAttributesCacheGeneratorP21CustomAttributesCache
H2l:__ZN6il2cpp5utils9PathUtils8BasenameIcEENSt3__212basic_stringIT_NS3_11char_traitsIS5_EENS3_9allocatorIS5_EEEERKSA_
ojh:_RemotingProxy__cctor_m4096951805
VJc:__Z35Register_UnityEngine_Event_get_typev
Bim:__ZN6il2cpp2vm9Exception23GetInvalidCastExceptionERKNS_5utils10StringViewIDsEE
xLe:__ZNK5physx13GuMeshFactory17getNbConvexMeshesEv
k9c:__ZN14ParticleSystem15InitializeClassEv
L8:__Z63ThreadAndSerializationSafeCheckGetMonoBehaviourBeingTransferredv
b8h:_StackTrace__ctor_m206492268
k0k:_List_1_set_Item_m4224739467_gshared
$Ef:_ColorTween_set_startColor_m2562993758_AdjustorThunk
WOf:_ConstructorBuilder_get_Name_m2426555260
RBc:__Z37Register_UnityEngine_Input_GetAxisRawv
Hol:_Parser_ParseCharacterClass_m4285351396
wWk:_Enumerator_System_Collections_IEnumerator_get_Current_m1643543708_AdjustorThunk
_hg:_Convert_ToSByte_m2653418303
leg:_SyncHashtable__ctor_m2449935938
nX:__ZN11AudioSource5ResetEv
qTh:_RSAPKCS1SignatureFormatter_SetKey_m2935054088
b1b:__ZN12ImageFilters27SetSurfaceUseResolvedBufferEP13RenderTextureb
Okb:__ZN14Texture2DArray23VirtualRedirectTransferER18StreamedBinaryReadILb0EE
pNi:_UTF7Encoding_GetByteCount_m209415911
Uyb:__ZN2UI13RectTransform13AwakeFromLoadE17AwakeFromLoadMode
nrl:_RegularExpression_Compile_m2385682508
CGc:__Z30Light_Set_Custom_PropIntensityP12Il2CppObjectf
Z5b:__ZN14qsort_internal30FindAndMovePivotToLastPositionIP20ShadowCasterSortDatai26ShadowCasterSortDataSorterEEvT_S4_T0_T1_
mDb:__Z18Transfer_BlittableI14SafeBinaryReadLb1EiEvRK29SerializationCommandArgumentsR31RuntimeSerializationCommandInfo
uNh:_X509ExtensionEnumerator_get_Current_m256207749
Lja:__GLOBAL__sub_I_modules_profiler_public_0_cpp
uxb:__ZN17PersistentManager13GetAllFileIDsERKN4core12basic_stringIcNS0_20StringStorageDefaultIcEEEER13dynamic_arrayIxLj8EE
B4f:_Array_Sort_m182264525
Aqh:_LayoutGroup_set_padding_m282562135
yNf:_Default_IsArrayAssignable_m953489228
QTi:_UInt16_ToString_m355311020_AdjustorThunk
Bbl:_VirtualInput_UnRegisterVirtualAxis_m3725553202
DYd:__ZN18MultiQueryCallbackIN5physx12PxOverlapHitEE6invokeERfPKNS0_2Sq13PrunerPayloadEj
Axd:__ZN5physx2Gu18gjkRelativeRayCastINS0_4BoxVES2_NS0_10ShrunkBoxVES3_EEbRT_RT0_RKNS_6shdfnd3aos15PsMatTransformVERKNS9_6FloatVERKNS9_5Vec3VESI_RSD_RSG_SK_fb
zl:_glGetStringi
c0h:_DecoderExceptionFallback_CreateFallbackBuffer_m1133375601
smm:__ZNK15dense_hashtableI10KeyWrapperIP18Il2CppGenericClassES3_N6il2cpp8metadata22Il2CppGenericClassHashEN14dense_hash_setIS3_S6_NS3_14EqualsComparerINS5_25Il2CppGenericClassCompareEEENSt3__29allocatorIS3_EEE8IdentityESA_SD_E10test_emptyERK30dense_hashtable_const_iteratorIS3_S3_S6_SF_SA_SD_E
M4g:_Enumerator_get_CurrentKey_m889650866_gshared
iPl:_Physics_Raycast_m3133704280
dMe:__ZThn8_N5physx2Gu10ConvexMeshD0Ev
Cqe:__ZNK5physx2Sq12BucketPruner7raycastERKNS_6PxVec3ES4_RfRNS0_14PrunerCallbackE
VK:__ZN8Animator9WriteStepEy
kd:invoke_viiiiifffi
$2:__ZN11UnityEngine15CloudWebService20WebRequestRestClient18GetResponseHeadersEv
zib:__ZNSt3__23mapIN4core12basic_stringIcNS1_20StringStorageDefaultIcEEEE9PrefValueNS_4lessIS5_EENS_9allocatorINS_4pairIKS5_S6_EEEEEixERSB_
Ipc:__ZN15DirectorManager22ConstructPlayableGraphEv
qBk:_Collection_1_ConvertItem_m1743542180_gshared
ahf:__Z38Register_UnityEngine_Font_HasCharacterv
W9b:__Z35IntersectSpherePlaneBoundsOptimizedRKN4math7_float4EPS1_i
xSh:_RNGCryptoServiceProvider__cctor_m3587754670
VFd:__ZN5physx2Sc8ShapeSim20createLowLevelVolumeEjRKNS_9PxBounds3EjNS_9AABBMgrIdE
x4c:__ZN37InheritVelocityModulePropertyBindings13GetFloatValueERK14ParticleSystemi
gpm:__ZN6il2cpp2os5posix15PosixWaitObject13InterruptWaitEv
A2d:__ZNK5physx7NpCloth22getAngularInertiaScaleEv
nzd:__ZN26IntersectAnyVsMeshCallbackILi1ELb1EE10processHitERKN5physx12PxRaycastHitERKNS1_6PxVec3ES7_S7_RfPKj
eoa:__Z22CleanupLODGroupManagerPv
RJc:__Z21Event_CUSTOM_PopEventP12Il2CppObject
im:_glUniform3fv
ABm:__ZNK6il2cpp8metadata24Il2CppGenericInstCompareclERK10KeyWrapperIPK17Il2CppGenericInstES8_
sub:__ZNSt3__218__insertion_sort_3IRN15ResourceManager10Dependency6SorterEPS2_EEvT0_S6_T_
PNh:_X509ChainElement_Set_m655180762
aSl:_CustomEventData_AddInt32_m548429697
nuc:__ZNK8Gradient19InitializeOptimizedER17OptimizedGradient
Voi:_MonoBehaviour_StopCoroutine_m615723318
K4b:__ZNK16LightmapSettings31GetRealtimeLightmapDecodeValuesEv
pW:__ZN5audio5mixer12SetSuspendedERNS0_16AudioMixerMemoryEb
myb:__ZN17PersistentManager21UnloadNonDirtyStreamsEv
ohj:__Z96RuntimeInvoker_Int32_t2950945753_RuntimeObject_Int32_t2950945753_RuntimeObject_Int32_t2950945753PFvvEPK10MethodInfoPvPS4_
eCl:_AnalyticsEventTracker_OnEnable_m1121905268
Prl:_Uri_get_Parser_m3737125102
dMl:_Canvas_get_overrideSorting_m2740418462
Nii:_Debug_LogFormat_m309087137
Ksi:_Rect_set_xMin_m2413290617_AdjustorThunk
Plb:__ZN12ImageFilters4BlitER17ShaderPassContextP7TextureP13RenderTextureiPK18SharedMaterialDataPKcP6ShaderiNS_9BlitFlagsE11CubemapFaceRK8Vector2fSH_
mYe:__ZN5physx6shdfnd8PoolBaseINS_24NpPtrTableStorageManager8PtrBlockILi4EEENS0_19ReflectionAllocatorIS4_EEE12allocateSlabEv
Dml:_Mark_get_Index_m3048692661
Lkk:__ZL69CanvasScaler_t2767979955_CustomAttributesCacheGenerator_m_ScaleFactorP21CustomAttributesCache
pYi:_Dictionary_2_ToTValue_m692436965_gshared
P2:__ZN11UnityEngine15CloudWebService10RestClientINS0_23WebRequestRestHeaderMapEED2Ev
eJe:__ZN5physx2Sc5Scene13ccdBroadPhaseEPNS_10PxBaseTaskE
Fm:_emscripten_glDepthMask
UAe:__ZN5physx2Gu24PCMMeshContactGeneration15processContactsEhb
Ejh:_RemotingServices_CreateClientProxy_m3886727610
wJa:__ZN4crnd25static_huffman_data_model22prepare_decoder_tablesEv
l2d:__ZN5physx7NpCloth12setParticlesEPKNS_15PxClothParticleES3_
glc:__ZN16ReflectionProbesD2Ev
eii:_Component_BroadcastMessage_m2662892479
mNg:_RecordProtocol_GetMessage_m2086135164
QIc:__Z23GUIStatePopDisplayIndexv
Moa:__Znaj
pTm:_emscripten_glEnableClientState__wrapper
ula:__ZN17MessageIdentifierC2EPKcNS_7OptionsEPKN5Unity4TypeES1_
Koi:_Mesh_SetTriangles_m1523451247
GYh:_Single_System_IConvertible_ToSByte_m1208276900
esk:_Array_InternalArray__set_Item_TisVector4_t3319028937_m757305038_gshared
Hfj:__Z105RuntimeInvoker_Void_t1185182177_RuntimeObject_RuntimeObject_RuntimeObject_RuntimeObject_Int32_t2950945753PFvvEPK10MethodInfoPvPS4_
hve:__ZN5physxL26solveFriction4_StaticBlockEPKNS_23PxcSolverConstraintDescERNS_16PxcSolverContextE
Iaj:__Z64RuntimeInvoker_RuntimeObject_Int16_t2552820387_Int16_t2552820387PFvvEPK10MethodInfoPvPS4_
Z$:__Z55Register_UnityEngine_AudioSource_get_spatializeInternalv
MWa:__ZN14SafeBinaryRead8TransferI14ConstantStringEEvRT_PKc17TransferMetaFlags
Nze:__ZN5physx30PxcGetMaterialShapeHeightFieldEPKNS_12PxsShapeCoreES2_RNS_18PxcNpThreadContextEPNS_15PxsMaterialInfoE
o$b:__ZNK6Camera16GetStereoEnabledEv
pkj:__Z72RuntimeInvoker_Int32_t2950945753_TimeSpan_t881159249_TimeSpan_t881159249PFvvEPK10MethodInfoPvPS4_
NNg:_SendRecordAsyncResult_SetComplete_m153213906
sA:__ZN13AnimationClip9PPtrCurveaSERKS0_
pza:__ZL24FindBelongingStructParamRPKcRNSt3__26vectorIN9ShaderLab20SerializedSubProgram14ConstantBufferENS2_9allocatorIS6_EEEE
Slc:__ZN12LightManager15InitializeClassEv
PJe:__ZN5physx6shdfnd8PoolBaseINS_2Sc19ParticlePacketShapeENS0_19ReflectionAllocatorIS3_EEE12allocateSlabEv
Mbb:__ZN9ShaderLab11shaderprops16GetComputeBufferEPK19ShaderPropertySheetS3_NS_16FastPropertyNameE
Dtm:__ZN6il2cpp6icalls8mscorlib6System10Reflection10MethodBase31GetMethodFromHandleInternalTypeEii
saa:__ZN18ScriptingArgumentsC2Ev
vgi:_Vector3_op_Equality_m4231250055
pOm:_emscripten_glBlendFuncSeparate__wrapper
Apg:_FileSystemInfo__ctor_m3769019897
mxk:_Array_InternalArray__get_Item_TisContentType_t1787303396_m421427711_gshared
zGa:__Z17HasSampledTexture14GraphicsFormat13formatSupport
D0b:__ZNK25CameraStackRenderingState27GetStereoImageEffectTextureEb
tCg:_HMACSHA384__ctor_m1677515580
tSh:_RIPEMD160Managed_J_m1336489154
T$l:__ZN6il2cpp6icalls6System6System3Net7Sockets6Socket7ReceiveEiP11Il2CppArrayiiNS4_11SocketFlagsEPi
Kuc:__ZN13BuildSettings13GetSceneIndexERKN4core12basic_stringIcNS0_20StringStorageDefaultIcEEEE
_p:FUNCTION_TABLE_ii
G1a:__ZN10TagManager8TransferI18StreamedBinaryReadILb0EEEEvRT_
qNc:__Z18Transfer_BlittableI9JSONWriteLb0E8BitFieldEvRK29SerializationCommandArgumentsR31RuntimeSerializationCommandInfo
yrg:_MemoryStream_set_Capacity_m1773624579
kem:__ZNK15dense_hashtableINSt3__24pairIK10KeyWrapperINS1_IP11Il2CppClassjEEES4_EES6_N6il2cpp8metadata14ArrayClassHashEN14dense_hash_mapIS6_S4_SB_NS6_14EqualsComparerINSA_17ArrayClassCompareEEENS0_9allocatorIS8_EEE9SelectKeyESF_SH_E10test_emptyEj
zua:__ZNSt3__26vectorIN9ShaderLab20SerializedSubProgram15StructParameterENS_9allocatorIS3_EEE8__appendEj
Ub:invoke_diiii
N1h:_DateTime_ToString_m2992030064
syd:__ZL17sweepVolumeVsMeshPKN5physx3Cct9SweepTestEPKNS0_11TouchedMeshERNS0_12SweptContactERKNS_6PxVec3ERKNS_10PxGeometryERKNS_11PxTransformEjPKNS_10PxTriangleEj
BMm:b46
umj:__Z95RuntimeInvoker_Void_t1185182177_RuntimeObject_RuntimeObject_SByte_t1669577662_SByte_t1669577662PFvvEPK10MethodInfoPvPS4_
gEe:__ZN5physx2Gu31checkOverlapOBB_heightFieldGeomERKNS_10PxGeometryERKNS_11PxTransformERKNS0_3BoxE
kYa:__Z24CreateDirectoryRecursiveRKN4core12basic_stringIcNS_20StringStorageDefaultIcEEEE
wMm:b41
Vwa:__ZN9ShaderLab20SerializedSubProgram8TransferI18StreamedBinaryReadILb0EEEEvRT_
vMm:b40
ird:__ZN5physx2Gu23findRotationMatrixFromZERKNS_6PxVec3E
CD:__ZN26AnimatorControllerPlayable13GenerateGraphEv
Wka:__ZN13RuntimeStaticI21ScalableBufferManagerLb0EE13StaticDestroyEPv
Ihf:__ZN2UI13CanvasManager9AddCanvasEPNS_6CanvasE
Glb:__ZN9Texture3D8TransferI19StreamedBinaryWriteILb0EEEEvRT_
g1b:__ZNK6Camera22CalculateRenderingPathEv
KOc:__ZN9JSONWrite8TransferI5RectTIfEEEvRT_PKc17TransferMetaFlags
Fke:__ZN5physx13NpVolumeCache10invalidateEv
EM:__ZN11UnityEngine9Animation37SetGenericRootTransformPropertyValuesERKNS0_30AnimatorGenericBindingConstantERKN7mecanim10ValueArrayER9Transformbb
JPa:__Z13ConvertMipmap14GraphicsFormatPKvS_Pviiii
wIb:__ZL12InvokeMethodI17RemapPPtrTransferEvRK29SerializationCommandArgumentsR31RuntimeSerializationCommandInfo
wJh:_RemoteCertificateValidationCallback_Invoke_m3086073466
C$h:_StringComparer_Compare_m991165676
y7e:_tt_sbit_decoder_load_image
Jwl:_U3CStartU3Ec__Iterator0_Dispose_m261027331_gshared
IQa:__ZN4core8hash_mapIPK17RenderSurfaceBaseP13RenderTexture19PointerHashFunctionIS3_ENSt3__28equal_toIS3_EEE6insertERKNS8_4pairIKS3_S5_EE
KIc:__ZNSt3__24listIN10GUIManager12SortedScriptE11memory_poolIS2_EE6__sortI13OldSortScriptEENS_15__list_iteratorIS2_PvEESA_SA_jRT_
uGd:__ZN5physx6shdfnd5ArrayIPvNS0_19ReflectionAllocatorINS_2Sc10NPhaseCore16ClothListElementEEEE15growAndPushBackERKS2_
wkj:__Z67RuntimeInvoker_Boolean_t97287965_DateTime_t3738529785_RuntimeObjectPFvvEPK10MethodInfoPvPS4_
H0k:_List_1_AddEnumerable_m3500350831_gshared
lHg:_PrivateKeyInfo_get_PrivateKey_m3647771102
frf:__ZN18UnityConnectClient12CloseServiceEv
VB:__ZN13AnimationClip8TransferI17RemapPPtrTransferEEvRT_
hhm:__ZN6il2cpp6icalls8mscorlib6System9ThreadingL11ThreadStartEPv
Eqa:__ZN15DirectorManager12OnSampleTimeEv
qGi:_Array_InternalArray__IndexOf_TisMark_t3471605523_m2905388260_gshared
dTf:_TypeBuilder_check_not_created_m3652863637
jBf:_StandaloneInputModule_UpdateModule_m450861257
UKl:_Font_add_textureRebuilt_m2164317336
KRk:_ReadOnlyCollection_1_System_Collections_IList_Insert_m2928873627_gshared
Q3i:_EqualityComparer_1__cctor_m314889309_gshared
Rha:__ZN12CachedReader10Align4ReadEv
afd:__ZN15b2WorldManifold10InitializeEPK10b2ManifoldRK11b2TransformfS5_f
Bkl:_X501__cctor_m2428304915
cMl:_Canvas_get_renderOrder_m1489855841
uA:__Z14resize_trimmedINSt3__26vectorIN13AnimationClip10FloatCurveE13stl_allocatorIS3_L18MemLabelIdentifier26ELi16EEEEEvRT_j
fbj:__Z50RuntimeInvoker_Void_t1185182177_Single_t1397266774PFvvEPK10MethodInfoPvPS4_
fyl:_Event_ToString_m1688862299
NVa:__ZNK9Behaviour22GetTypeVirtualInternalEv
jZd:__ZN5physx2Sc14ConstraintCore13setBreakForceEff
lbi:_CCGregorianCalendar_month_from_fixed_m4268992710
ZEi:_Array_compare_TisUICharInfo_t75501106_m1310495481_gshared
Gac:__Z21GetScriptingArraySize17ScriptingArrayPtr
Mcf:__ZN20TextRenderingPrivate8FontImpl8TransferI14SafeBinaryReadEEvRT_
w9c:__ZNSt3__27__sort4IRN10vector_mapIi22ParticleModulePropertyNS_4lessIiEENS_9allocatorINS_4pairIiS2_EEEEE13value_compareEPS7_EEjT0_SD_SD_SD_T_
Rhe:__ZN5physx7NpScene15removeAggregateERNS_11PxAggregateEb
ZPk:_ReadOnlyCollection_1_System_Collections_IList_Clear_m4022532825_gshared
RKi:_Encoding_get_ASCII_m3595602635
k_e:__ZZN14PhysicsManager15InitializeClassEvEN63EarlyUpdatePhysicsResetInterpolatedTransformPositionRegistrator7ForwardEv
B$c:__ZN11ShapeModule18MultiModeParameterIN25IParticleSystemProperties8PropertyIfNS1_11ClampRadiusEEEE8TransferI14SafeBinaryReadEEvRT_
oDa:__ZN9GfxDevice17ImmediateTexCoordEifff
Dxi:_Transform_Translate_m1990195114
ykd:__ZN10ClipperLib7Clipper13AppendPolygonEPNS_5TEdgeES2_
UPf:_DerivedType_GetCustomAttributes_m3536779709
hEd:__ZNK5physx3Ext5JointINS_15PxDistanceJointENS_30PxDistanceJointGeneratedValuesEE12getLocalPoseENS_17PxJointActorIndex4EnumE
tSj:__ZL93Interlocked_t2273387594_CustomAttributesCacheGenerator_Interlocked_CompareExchange_m388540288P21CustomAttributesCache
fUf:_MethodBase_get_IsAbstract_m428833029
ZIb:__Z35Transfer_Blittable_FixedBufferFieldI24GenerateTypeTreeTransferhEvRK29SerializationCommandArgumentsR31RuntimeSerializationCommandInfo
iMm:_emscripten_glUniform4f__wrapper
RWf:_MonoMethod_GetBaseDefinition_m2844667474
fXk:_Enumerator_MoveNext_m2595190390_AdjustorThunk
_wj:__Z117RuntimeInvoker_Int32_t2950945753_RuntimeObject_ParticleCollisionEvent_t4055032941_Int32_t2950945753_Int32_t2950945753PFvvEPK10MethodInfoPvPS4_
hHe:__ZN5physx6shdfnd5ArrayINS_25PxcThresholdStreamElementENS0_19ReflectionAllocatorIS2_EEE8recreateEj
xGi:_Array_InternalArray__IndexOf_TisColor32_t2600501292_m3783551884_gshared
Y7:__ZNK6Camera16GetProjectionFarEv
Bs:__Z24InverseTransformRotationRK23TransformAccessReadOnlyRKN4math7_float4E
Bll:_X509Chain_Build_m2469702749
uX:__ZN11AudioSource6UpdateEv
cvl:_UnityAction_2_BeginInvoke_m1733258791_gshared
Fxh:_Selectable_OnPointerEnter_m3378734298
Vtf:__Z31GetPerformanceReportingSettingsv
Qdb:__ZNK14PlayableOutput11DerivesFromE17ScriptingClassPtr
bfb:__ZN7Texture34CreateFileTextureUploadInstructionE18TextureUploadFlagsj
wRa:__ZN13ComputeShader14SetBufferParamEjRKN9ShaderLab16FastPropertyNameE15ComputeBufferID
B3d:__ZN5physx7NpCloth21setCollisionMassScaleEf
vEe:__ZN5physx6shdfnd5ArrayINS_7PxPlaneENS0_19ReflectionAllocatorIS2_EEE8recreateEj
V_e:__ZN13PhysicsModule17GetRigidBodyStateERK9RigidbodyPN8IPhysics14RigidBodyStateE
bTf:_TypeBuilder_DefineConstructor_m2989882735
R_a:__ZN25SingleBlockMemoryFileDataC2E10MemLabelIdPvjb
rbm:__ZN15dense_hashtableINSt3__24pairIK10KeyWrapperINS1_IPK11Il2CppImageP11Il2CppClassEEEjEES9_17ReflectionMapHashIS8_EN14dense_hash_mapIS9_jSD_NS9_14EqualsComparerINS0_8equal_toIS8_EEEENS0_9allocatorISB_EEE9SelectKeyESI_SK_E15set_deleted_keyERKSB_
pdf:__ZN18StreamedBinaryReadILb0EE21TransferSTLStyleArrayI10vector_mapINSt3__24pairIttEEfN20TextRenderingPrivate8FontImpl14KerningCompareENS3_9allocatorINS4_IS5_fEEEEEEEvRT_17TransferMetaFlags
z8d:__ZN5physx2Sc17ParticleSystemSim7releaseEb
Tfd:__ZNK14b2CapsuleShape5CloneEP16b2BlockAllocator
rE:__ZN17AnimationPlayable34CollectAnimatorControllerPlayablesER13dynamic_arrayIP26AnimatorControllerPlayableLj4EE
o_:__ZN16BaseVideoTexture19UpdateVideoTexturesEv
FWf:_MonoField_GetValue_m3124733531
W5a:__Z28BuildSingleStreamChannelInfo17ShaderChannelMaskRK20VertexChannelsLayoutS_S2_P11ChannelInfo
qha:__ZNK16LightmapSettings23HasLightProbeTetrahedraEv
KVc:__ZNK18ColorBySpeedModule12UpdateSingleERK22ParticleSystemParticleR11ColorRGBA32
kjb:__ZN6Sprite23VirtualRedirectTransferER19StreamedBinaryWriteILb0EE
gFc:__Z38Transform_CUSTOM_INTERNAL_set_positionP12Il2CppObjectRK8Vector3f
Wxf:_EventTrigger_Execute_m2453060771
SSk:_Comparison_1_Invoke_m517083441_gshared
ehl:_WaypointProgressTracker_get_targetPoint_m2274041596
Cza:__ZNK9ShaderLab7Program19HasMatchingVariantsERK13dynamic_arrayI16ShaderKeywordSetLj4EE
IL:__ZN15SerializeTraitsIN4math4trsXEE8TransferI8BlobSizeEEvRS1_RT_
iHa:__ZN14DataBufferGLES11CopySubDataEPKS_jjj
$e:_emscripten_glVertexPointer
Kjf:__ZN2UI13PrepareOutputERNS_7BatchesEjjNS_30AdditionalCanvasShaderChannelsE
U2l:__ZN6il2cpp2vm7Runtime47RaiseExecutionEngineExceptionIfMethodIsNotFoundEPK10MethodInfo
jnl:_PatternCompiler_GetMachineFactory_m3758869886
C6b:__Z17GetFrustumPortionPK8Vector3fffPS_
iJd:__ZNK5physx2Gu22SupportMapRelativeImplINS0_4BoxVEE18doWarmStartSupportEiRNS_6shdfnd3aos5Vec3VE
Vjm:__ZN15dense_hashtableINSt3__24pairIK10KeyWrapperIP14Il2CppIUnknownEjEES5_N6il2cpp5utils11PointerHashIS3_EEN14dense_hash_mapIS5_jSB_NS5_14EqualsComparerINS0_8equal_toIS4_EEEENS0_9allocatorIS7_EEE9SelectKeyESG_SI_E14squash_deletedEv
e7a:__ZN5Light13AwakeFromLoadE17AwakeFromLoadMode
rzl:_GUILayoutEntry_ApplyOptions_m1741659338
uNf:_Default_check_arguments_m3882727959
Zyg:_RuntimeTypeHandle_Equals_m2857439487_AdjustorThunk
fBa:__ZNK9GfxDevice27GetPlatformAdjustedViewportEv
CMk:_ReadOnlyCollection_1_System_Collections_Generic_IListU3CTU3E_set_Item_m88350439_gshared
y4c:__ZN37InheritVelocityModulePropertyBindings13SetFloatValueER14ParticleSystemif
eUk:_Func_3_Invoke_m1194147890_gshared
Upl:_Reference_Compile_m4195878675
sPk:_ReadOnlyCollection_1_System_Collections_ICollection_CopyTo_m2672196987_gshared
qqc:__ZN16StreamedResource8TransferI24GenerateTypeTreeTransferEEvRT_
ddd:__ZN11b2GearJoint4DumpEv
Bti:_RectTransform_get_anchorMin_m2928307238
FBd:__ZN5physx3Cct10Controller13onOriginShiftERKNS_6PxVec3E
r9f:_ArrayList__ctor_m3828927650
qFa:__ZThn9568_N13GfxDeviceGLES26EnableScissorRectsPlatformEv
rSa:__ZN10Matrix3x3f15InvertTransposeEv
Dzl:_GUILayoutGroup_SetHorizontal_m996475327
uzl:_GUILayoutEntry__cctor_m663865902
F1c:__ZN14EmissionModule8TransferI19StreamedBinaryWriteILb0EEEEvRT_
K_b:__Z11IsBatchmodev
Rte:__ZN5physx2Gu19_gjkRelativeRayCastINS0_9TriangleVENS0_11ConvexHullVEEEbRT_RT0_RKNS_6shdfnd3aos15PsMatTransformVERKNS9_6FloatVERKNS9_5Vec3VESI_RSD_RSG_SK_f
YGb:__Z29Transfer_Blittable_ArrayFieldI14SafeBinaryRead8Vector3fEvRT_R9ArrayInfoRK23StaticTransferFieldInfo
d7j:__ZL87Animation_t3648466861_CustomAttributesCacheGenerator_Animation_Play_m577412913____mode0P21CustomAttributesCache
po:FUNCTION_TABLE_vfii
Mob:__ZN26SkinnedMeshRendererManager31HandlePreparationBreakingChangeER19SkinnedMeshRenderer
Bdf:__ZN20TextRenderingPrivate8FontImpl18ResetCachedTextureEv
G3k:_List_1_CheckMatch_m3178190260_gshared
k1l:__ZN6il2cpp6icalls8mscorlib6SystemL16GetFieldFromTypeINS_5utils10functional6FilterINSt3__212basic_stringIcNS7_11char_traitsIcEENS7_9allocatorIcEEEENS4_13VmStringUtils21CaseSensitiveComparerEEEEEP21Il2CppReflectionFieldP11Il2CppClassSK_iRKT_
cze:__ZNK5physx19ActorAABBUpdateTask7getNameEv
NLh:_X509KeyUsageExtension_Decode_m3150759625
owm:_GC_print_finalization_stats
Tcd:__ZNK12b2WheelJoint10GetAnchorBEv
iAl:_GUITargetAttribute_GetGUITargetAttrValue_m2954410352
Ryc:__Z53Register_UnityEngine_Behaviour_get_isActiveAndEnabledv
J4f:_SimpleEnumerator_get_Current_m72361444
Wr:__ZNSt3__26vectorIN4core12basic_stringIcNS1_20StringStorageDefaultIcEEEENS_9allocatorIS5_EEE8__appendEj
D_:__ZN13ProduceHelperI10SampleClipLb0EE7ProduceE10MemLabelId18ObjectCreationMode
Htb:__ZN26PlayerSettingsSplashScreen8TransferI17RemapPPtrTransferEEvRT_
JDh:_ASN1_set_Value_m2803403806
r1l:__ZN6il2cpp6icalls8mscorlib6SystemL17CollectTypeFieldsINS_5utils10functional10TrueFilterEEEvP11Il2CppClassPKS7_iRNSt3__26vectorIP9FieldInfoNSB_9allocatorISE_EEEERKT_
KJd:__ZN5physx3Scb5Scene20addArticulationJointERNS0_17ArticulationJointE
Bie:__ZN5physx7NpScene14resetFilteringERNS_12PxRigidActorEPKPNS_7PxShapeEj
whc:__Z13GetTagManagerv
l2f:_Hashtable__ctor_m1815022027
MNi:_UTF8Encoding_GetChars_m1433288684
tQl:__ZL10roundUp128PyS_
Y0:__ZN11UnityEngine15CloudWebService17CloudJobSchedulerD0Ev
Nvb:__ZN18LoadSceneOperation7PerformEv
boe:__ZN5physx2Sc5Scene26setSimulationEventCallbackEPNS_25PxSimulationEventCallbackEh
uRi:_TimeZone_ToUniversalTime_m2789507578
bbj:__Z96RuntimeInvoker_Boolean_t97287965_RuntimeObject_RuntimeObject_Int32_t2950945753_Int32_t2950945753PFvvEPK10MethodInfoPvPS4_
BFi:_Array_IndexOf_TisUICharInfo_t75501106_m3198896198_gshared
eif:__ZNK2UI11CanvasGroup22GetTypeVirtualInternalEv
FLg:_Context_get_Current_m2853615040
Lqd:__ZL30GeomMTDCallback_CapsuleCapsuleRN5physx6PxVec3ERfRKNS_10PxGeometryERKNS_11PxTransformES5_S8_
fje:__ZN5physx7NpScene23forceDynamicTreeRebuildEbb
wkd:__ZN10ClipperLib7Clipper14IntersectEdgesEPNS_5TEdgeES2_RNS_8IntPointE
azd:__ZL18intersectAnyVsMeshILi0EEbPKN5physx2Gu6SphereEPKNS1_7CapsuleEPKNS1_3BoxERKNS1_13RTreeMidphaseERKNS0_11PxTransformERKNS0_11PxMeshScaleEP14LimitedResults
cJc:__Z21CleanupGlobalGUIStatev
ySi:_Type_IsContextfulImpl_m3693603908
AQd:__ZN5physx14NpArticulation6wakeUpEv
Prc:__ZNSt3__26vectorI14SubstanceInputNS_9allocatorIS1_EEE6assignIPS1_EENS_9enable_ifIXaasr21__is_forward_iteratorIT_EE5valuesr16is_constructibleIS1_NS_15iterator_traitsIS8_E9referenceEEE5valueEvE4typeES8_S8_
QTa:__ZN22VertexDeclarationCache5ClearEv
EAg:_CspParameters__ctor_m3852972821
Hdc:__ZN17PersistentManager12SetPathRemapERKN4core12basic_stringIcNS0_20StringStorageDefaultIcEEEES6_
WG:__Z27ProcessRootMotionEmptyMixerP35AnimationPlayableEvaluationConstantP32AnimationPlayableEvaluationInputP33AnimationPlayableEvaluationOutput
d8b:__ZN6Camera24PrepareCullingParametersERK23CameraCullingParameters13RenderingPathR11CullResults
Qtc:__Z12SetIUISystemP9IUISystem
_vb:__ZN19RuntimeSceneManager22EndIntegrateMainThreadEP10UnitySceneNS_11LoadingModeE
Xtk:_Array_Sort_TisUICharInfo_t75501106_m3474449559_gshared
yIb:__Z26Transfer_UnityEngineObjectI17RemapPPtrTransferLb0EEvRK29SerializationCommandArgumentsR31RuntimeSerializationCommandInfo
gol:_QuickSearch_GetShiftDistance_m2542665852
Jwk:_Array_InternalArray__get_Item_TisCustomAttributeTypedArgument_t2723150157_m2639399822_gshared
_Bh:_BigInteger_GenerateRandom_m3141592944
TKb:__Z29Transfer_Blittable_ArrayFieldI24GenerateTypeTreeTransfer4AABBEvRT_R9ArrayInfoRK23StaticTransferFieldInfo
oEd:__ZN5physx3Ext5JointINS_15PxDistanceJointENS_30PxDistanceJointGeneratedValuesEE17setConstraintFlagENS_16PxConstraintFlag4EnumEb
DRh:_Interval_Contains_m1454846757
CIf:_Graphic_CacheCanvas_m1120385152
cNe:__ZN5physx20InternalTriangleMesh16allocateVerticesEj
bne:__ZN5physx2Sc16InteractionScene18releaseConstraintsEb
WYc:__Z15GetPositionMeshIL20MeshDistributionMode1ELb0E11ColorRGBA32EvRN4math8floatNx3ES4_RNS2_4pix4ERK13dynamic_arrayIS1_Lj4EERK14StrideIteratorI8Vector3fESF_RKSB_IT1_ERKS7_I16MeshTriangleDataLj4EERKS7_I11MeshAreaLUTLj4EERKfRKiST_R5RandNP12SkinMeshInfo
qdd:__ZN13b2PulleyJoint24SolveVelocityConstraintsERK12b2SolverData
kxe:__ZN5physx6shdfnd5ArrayINS_17PxcBroadPhasePairENS0_19ReflectionAllocatorIS2_EEE8recreateEj
eDm:_emscripten_GetProcAddress
Oa:invoke_fiiifii
AEm:_modff
mxd:__ZThn4_N16RayRTreeCallbackILi1ELb0EED1Ev
b9a:__ZN20SphericalHarmonicsL219AddDirectionalLightERKN4math7_float3ERKNS0_7_float4E
MLe:__ZN5physx13BigConvexDataD2Ev
vqa:__Z26ScheduleJobForEachInternalR8JobFencePFvPvjES1_iPFvS1_E11JobPriority
v_b:__ZZ23InitPlayerLoopCallbacksvEN41PostLateUpdateProfilerEndFrameRegistrator7ForwardEv
Yuc:__ZN9Scripting18RaiseMonoExceptionEPKcz
Ghf:__ZN2UI13UIInstruction19ClearSharedMeshDataER8JobFence
Zoc:__ZN10GameObject17WillHandleMessageERK17MessageIdentifier
AWh:_StrongNamePublicKeyBlob_Equals_m3655422942
xXh:_SecurityContext__ctor_m1730177197
nNl:_RectTransformUtility_GetTransposed_m3952754222
pmc:__ZN9ShaderLab16FastPropertyName15InitBy28BitHashEj
G$k:_List_1_System_Collections_IList_set_Item_m4182383657_gshared
jej:__Z96RuntimeInvoker_Void_t1185182177_Int32_t2950945753_Single_t1397266774_RuntimeObject_RuntimeObjectPFvvEPK10MethodInfoPvPS4_
n3g:_Enumerator_System_Collections_IDictionaryEnumerator_get_Key_m195047678_AdjustorThunk
bMl:_Canvas_get_pixelPerfect_m333060872
Gmb:__ZN17PackedFloatVector12UnpackFloatsEPfiiii
T6l:__ZN30dense_hashtable_const_iteratorINSt3__24pairIK10KeyWrapperIPK10Il2CppTypeEjEES6_N6il2cpp8metadata14Il2CppTypeHashEN14dense_hash_mapIS6_jSB_NS6_14EqualsComparerINSA_26Il2CppTypeEqualityComparerEEENS0_9allocatorIS8_EEE9SelectKeyESF_SH_EppEv
qYc:__Z16EmitterStoreDataRKN4math8float3x3ERKNS_8float4x4ER23ParticleSystemParticlesRK19ParticleSystemStatejRNS_8floatNx3ESC_R5RandNfffbb
$J:__ZN17AnimationPlayable28UpdateInternalStateRecursiveILi3ELb0EEEvPK35AnimationPlayableEvaluationConstant
oEa:__ZN13GfxDeviceGLES21DestroyComputeProgramER12ObjectHandleI18ComputeProgram_TagPvE
Fnl:_PatternCompiler_EmitIfDefined_m2075050865
Q5h:_Decimal_System_IConvertible_ToInt64_m1446427516_AdjustorThunk
ioa:__ZN17UniqueIDGenerator16DestroyPureIndexEj
Bxg:_NotImplementedException__ctor_m3095902440
Gba:__ZL21AppendNestedClassName17ScriptingClassPtrRN4core17string_with_labelILi1EEE
gua:__ZN14SafeBinaryRead21TransferSTLStyleArrayINSt3__26vectorIN9ShaderLab20SerializedSubProgram12UAVParameterENS1_9allocatorIS5_EEEEEEvRT_17TransferMetaFlags
XKl:_FontTextureRebuildCallback_Invoke_m3604797831
v0e:__Z32Joint_CUSTOM_INTERNAL_set_anchorP12Il2CppObjectRK8Vector3f
f2:__ZN24TextDOMTransferWriteBaseI9JSONWriteE12PushMetaFlagEi
g3d:__ZN5physx7NpCloth22removeCollisionCapsuleEj
uNj:__ZL59_PropertyBuilder_t1366136710_CustomAttributesCacheGeneratorP21CustomAttributesCache
VMa:__ZN6prcoreL26RemapGenericIntegerToFloatI17TexFormatARGB888815TexFormatRFloatEEvPKNS_9InnerInfoE
j4l:__ZN6il2cpp2vm17TypeNameParseInfoD2Ev
E6i:_PrimeHelper_ToPrime_m3704362632_gshared
vU:__ZN4FMOD7Channel7setModeEj
oHe:__ZN5physx18PxsSolverStartTask16articulationTaskEv
Qyi:_Vector2_get_right_m1027081661
f7:__ZNK8Renderer8GetLayerEv
UKd:__ZN5physx6shdfnd4sortIPvNS0_4LessIS2_EENS0_19ReflectionAllocatorINS_2Cm5BlockIS2_Lj16EEEEEEEvPT_jRKT0_RKT1_j
vsg:_Stream_Close_m771352034
P2b:__ZNK6Camera20GetReplacementShaderEv
IYd:__ZN18MultiQueryCallbackIN5physx12PxRaycastHitEE6invokeERfPKNS0_2Sq13PrunerPayloadEj
CAm:__ZNSt3__26__treeINS_12__value_typeINS_12basic_stringIcNS_11char_traitsIcEENS_9allocatorIcEEEEPFvvEEENS_19__map_value_compareIS7_SA_NS_4lessIS7_EELb1EEENS5_ISA_EEE4findIS7_EENS_15__tree_iteratorISA_PNS_11__tree_nodeISA_PvEEiEERKT_
iKa:__ZL23stbir__calculate_memoryP11stbir__info
Q6g:_KeyCollection_System_Collections_Generic_ICollectionU3CTKeyU3E_Clear_m1261840136_gshared
NQh:_Interpreter_Close_m126356671
$lb:__ZNK6Camera18GetRenderRectangleEv
dNh:_X509Chain_Reset_m1198177101
vkb:__ZN13sorted_vectorIN4core12basic_stringIcNS0_20StringStorageDefaultIcEEEENSt3__24lessIS4_EE13stl_allocatorIS4_L18MemLabelIdentifier81ELi16EEE4findIS4_EENS5_11__wrap_iterIPS4_EERKT_
yol:_Parser_HandleExplicitNumericGroups_m1412234891
jQc:__ZL26Transfer_SimpleNativeClassI8JSONRead10RectOffsetLb1EEvRK29SerializationCommandArgumentsR31RuntimeSerializationCommandInfo
jni:_Material_SetInt_m475299667
plf:__Z44CanvasRenderer_CUSTOM_INTERNAL_CALL_SetColorP12Il2CppObjectRK10ColorRGBAf
j8i:_Enumerator_System_Collections_IEnumerator_Reset_m959124362_AdjustorThunk
Oeh:_CrossContextDelegate_Invoke_m3121381558
$9h:_Enum_ToObject_m121831801
RPe:__ZN5physx2Gu27computeBoundsAroundVerticesERNS_9PxBounds3EjPKNS_6PxVec3E
Rli:_Input_GetKeyDownInt_m3509480073
RKf:_Image_get_hasBorder_m3423344180
_Mc:__Z18Transfer_BlittableI9JSONWriteLb1EsEvRK29SerializationCommandArgumentsR31RuntimeSerializationCommandInfo
okd:__ZN10ClipperLib8JoinHorzEPNS_5OutPtES1_S1_S1_NS_8IntPointEb
Hhe:__ZNK5physx7NpScene9getLimitsEv
Mof:__Z48UnityAnalyticsHandler_CUSTOM_SendCustomEventNameP12Il2CppObjectP12Il2CppString
Qvc:__ZN9Transform16SetLocalRotationERK11Quaternionf
lue:__ZNK5physx2Gu29EPASupportMapPairRelativeImplINS0_9TriangleVENS0_8CapsuleVEE9doSupportERKNS_6shdfnd3aos5Vec3VERS7_SA_SA_
e$b:__ZN13RenderManager37RenderCamerasWithScriptableRenderLoopEi
dye:__ZN3MBP12updateObjectEjRK5IAABB
kQi:_TimeSpan__ctor_m3689759052
WNd:__ZN5physx6shdfnd5ArrayINS_6PxVec3ENS0_19ReflectionAllocatorIS2_EEE15growAndPushBackERKS2_
RL:__ZN7mecanim8skeleton25SkeletonPoseComputeLocalQEPKNS0_8SkeletonEPKNS0_13SkeletonPoseTIN4math4trsXEEEPS7_ii
JCj:__Z37RuntimeInvoker_Enumerator_t3123848928PFvvEPK10MethodInfoPvPS4_
_mm:__ZN6il2cpp2os19ReleaseSocketHandleEj
BZ:__ZN11AudioModule16GetDSPSampleRateEv
WXb:__ZN15InstancingProps11NewConstantERKN9ShaderLab16FastPropertyNameEj15ShaderParamTypehhjjP6Object
Ele:__ZN5physx2Sc5Scene20fireTriggerCallbacksEv
Wmh:_InputField_get_characterValidation_m4196664041
rVc:__ZN14ParticleSystem4EmitEPS_RK21SubEmitterEmitCommand
fif:__ZN2UI11CanvasGroup23VirtualRedirectTransferER19StreamedBinaryWriteILb0EE
Ate:__ZN5physx2Gu18GJKRelativeRayCastERNS0_8CapsuleVERNS0_4BoxVERKNS_6shdfnd3aos15PsMatTransformVERKNS6_6FloatVERKNS6_5Vec3VESF_RSA_RSD_SH_fb
Y$f:_Array_GetUpperBound_m4018715963
iml:_X509Store__ctor_m2736551756
$om:__ZN6il2cpp2os5posix15PosixWaitObjectC2ENS2_4TypeE
a1b:__ZN6Camera21PostMultiCustomRenderENS_10RenderFlagEb
UJi:_Array_InternalArray__Insert_TisMonoResource_t4103430009_m1997865927_gshared
wUh:_SHA512Managed_HashFinal_m2173184560
bRa:__ZN12_GLOBAL__N_112UploadImagesEP7ApiGLESjji14GraphicsFormatPKhjS2_iiii16TextureUsageModePh
KXb:__ZN23ShaderVariantCollection13WarmupShadersEv
ekc:__ZN13ProduceHelperI9TransformLb0EE7ProduceE10MemLabelId18ObjectCreationMode
oba:__Z25GetCommonScriptingClassesv
wwb:__Z27scripting_gc_collect_unsafei
NGg:_MD5SHA1_HashFinal_m4115488658
GZ:__ZN11AudioModule20SuspendVideoTexturesEv
hHi:_Array_InternalArray__ICollection_Add_TisKeyValuePair_2_t71524366_m3468275433_gshared
SFl:_AudioSettings_InvokeOnAudioManagerUpdate_m4044425648
N$:__Z59Register_UnityEngine_AudioExtensionManager_GetAudioListenerv
tde:__ZN5physx13NpRigidStaticC2ERKNS_11PxTransformE
kKb:__Z26Transfer_UnityEngineObjectI24GenerateTypeTreeTransferLb0EEvRK29SerializationCommandArgumentsR31RuntimeSerializationCommandInfo
_gg:_Convert_ToDouble_m278900635
n4e:_UNITY_FT_GlyphLoader_CheckPoints
Cqg:_Stream_BeginRead_m2233539237
Mte:__ZN5physxL20PxcSweepBoxTrianglesERKNS_11PxsCCDShapeES2_RKNS_11PxTransformES5_S5_S5_fRNS_6PxVec3ES7_RNS_10PxcNpCacheERNS_18PxcNpThreadContextERKNS_2Cm23FastVertex2ShapeScalingERNS_2Gu9TriangleVEf
VBd:__ZN5physx3Cct15ObstacleContextD0Ev
o4a:__ZN15SharedLightData7PrecalcEv
xda:__ZN10Matrix4x4fmLERKS_
nsi:_Vector2__ctor_m3970636864
INb:__Z35Transfer_Blittable_FixedBufferFieldI18StreamedBinaryReadILb1EEsEvRK29SerializationCommandArgumentsR31RuntimeSerializationCommandInfo
wai:_Environment_InternalGetFolderPath_m468390978
JZa:__ZN15ArchiveReadFileD0Ev
tqf:__ZN11UnityEngine15PlatformWrapper18GetOperatingSystemEv
fYh:_SecurityFrame_ToString_m339310712
vme:__ZN5physx3Scb9Aggregate9syncStateERNS0_5SceneE
_ai:_Calendar__ctor_m106290643
oHj:__ZL62ParamArrayAttribute_t3664765590_CustomAttributesCacheGeneratorP21CustomAttributesCache
gIf:_FontUpdateTracker_RebuildForFont_m3134452007
Gkg:_NumberFormatter_FormatDecimal_m1921932981
y1l:__ZN6il2cpp6icalls8mscorlib6System8MonoType19GetGenericArgumentsEP20Il2CppReflectionType
MBf:_TouchInputModule_ProcessTouchPress_m3504077560
Axh:_Selectable_IsInteractable_m2611421038
S3e:_FT_MSB
eP:__ZN29AnimationStateNetworkProvider24SetNetworkAnimationStateER9AnimationPK24AnimationStateForNetworki
Anc:__ZZL23RegisterLightPropertiesR22GenericPropertyBindingEN29Wrapper_LightShadowNormalBias13GetFloatValueEPv
XAi:_Array_InternalArray__ICollection_Contains_TisParameterModifier_t1461694466_m1000453323_gshared
cUd:__ZN5physx7NpActor17resolveReferencesERNS_24PxDeserializationContextE
E$e:__ZN9Rigidbody15InitializeClassEv
x_i:_Dictionary_2_System_Collections_ICollection_CopyTo_m4047192178_gshared
n3l:__ZN6il2cpp2os4File11GetFileStatERKNSt3__212basic_stringIcNS2_11char_traitsIcEENS2_9allocatorIcEEEEPNS0_8FileStatEPi
ZRh:_RIPEMD160Managed_Initialize_m2173168986
otm:__ZNSt3__212basic_stringIDsNS_11char_traitsIDsEENS_9allocatorIDsEEE9push_backEDs
D1c:__ZN13InitialModule8TransferI19StreamedBinaryWriteILb0EEEEvRT_
cmc:__ZN9TransformC2E10MemLabelId18ObjectCreationMode
AAa:__ZN13GfxDeviceGLES14SetRasterStateEPK17DeviceRasterState
GMf:_Assembly_ToString_m2053237013
Uni:_Vector4_Equals_m1779210055
sGd:__ZN5physx6shdfnd8internal8HashBaseINS0_4PairIKPKNS_2Sc8ShapeSimENS4_10NPhaseCore16ClothListElementEEES7_NS0_4HashIS7_EENS1_11HashMapBaseIS7_SA_SD_NS0_9AllocatorEE6GetKeyESF_Lb1EE5eraseERS8_
h6e:_otv_Coverage_get_count
ZFd:__ZN5physx5Elems17setStaticAABBDataEjRKNS_17PxcAABBDataStaticE
oea:__ZN14SafeBinaryRead11EndTransferEv
YEb:__ZN14SafeBinaryRead8TransferI8MonoPPtrEEvRT_PKc17TransferMetaFlags
R9h:_Enum_System_IConvertible_ToUInt16_m4216751959
K2c:__ZN11MinMaxCurve11ResetCurvesEv
GOb:__ZN8GUIStyle8TransferI18StreamedBinaryReadILb1EEEEvRT_
LJi:_Array_InternalArray__Insert_TisInt32_t2950945753_m4073217122_gshared
nah:_Enumerator_get_Current_m2897627569_AdjustorThunk
$eg:_SortedList_Remove_m2784369438
PBc:__Z40Register_UnityEngine_Input_GetKeyDownIntv
gJa:__ZN4crnd12crn_unpacker10unpack_dxnEPPhjjj
Yba:__ZN14SerializedFileD2Ev
LJc:__Z30Event_Get_Custom_PropModifiersP12Il2CppObject
fMd:__ZN5physx6shdfnd5ArrayIPvNS0_16AlignedAllocatorILj64ENS0_9AllocatorEEEE15growAndPushBackERKS2_
dRl:_Physics2D_Raycast_m2858866636
q4d:__ZN5physx6shdfnd5ArrayINS_35PxClothParticleSeparationConstraintENS0_19ReflectionAllocatorIS2_EEE6resizeEjRKS2_
GE:__ZN7mecanim9animation16CreateClipOutputEPKNS0_4ClipERNS_6memory9AllocatorE
wth:_RawImage_get_mainTexture_m2396337033
rSl:_CustomEventData_Add_m1638466298
l0c:__ZN27ParticleSystemEmissionBurst8TransferI24GenerateTypeTreeTransferEEvRT_
f5l:__ZN6il2cpp2vm10Reflection17GetAssemblyObjectEPK14Il2CppAssembly
iBd:__ZN5physx3Cct12SweptCapsuleC2Ev
Ksa:__ZN6Shader21AwakeFromLoadThreadedEv
XLa:__ZN6prcoreL17RemapGenericFloatI17TexFormatRGBFloat17TexFormatRGBAHalfEEvPKNS_9InnerInfoE
VBh:_BigInteger__ctor_m3991350270
Eyi:_Vector2_GetHashCode_m3916089713_AdjustorThunk
aZe:__ZN5physx24PxcContactBoxHeightFieldERKNS_2Gu13GeometryUnionES3_RKNS_11PxTransformES6_RKfRNS_10PxcNpCacheERNS0_13ContactBufferE
cCm:__ZN6il2cpp2os9SemaphoreC2Eii
_Eb:__ZNSt3__26vectorI8MonoPPtr13stl_allocatorIS1_L18MemLabelIdentifier1ELi16EEE8__appendEj
F1b:__ZN14qsort_internal30FindAndMovePivotToLastPositionIP17RODataReplacementi19ROSorterReplacementEEvT_S4_T0_T1_
jSa:__ZN15UniformTFMethod20IsBoneCountSupportedEi
Vye:__ZNK5physx23AggregateAABBUpdateTask7getNameEv
RVi:_UnauthorizedAccessException__ctor_m246605039
gJm:dynCall_viidi
A6g:_KeyCollection__ctor_m1356492051_gshared
Eaa:__ZN24ScriptingMethodFiltering17FilterOnSignatureENS_18MethodSearchFilterE
X1c:__ZN11TrailModule8TransferI19StreamedBinaryWriteILb0EEEEvRT_
QKe:__ZN5physx13NpClothFabric16scaleRestlengthsEf
fdc:__ZN18ScreenManagerWebGL13SetLockCursorE14CursorLockMode
o3e:_cf2_arrstack_finalize
Zkl:_X509Certificate_VerifySignature_m3538124832
c6c:__ZL37ParticleGeomBillboardFacingOrVelocityIL25ParticleSystemRenderSpace4ELb0EEvRKN4math8floatNx3ES4_S4_S4_S4_RKNS1_8float3x3ES4_S4_S4_RKNS1_8floatNx2ES4_RS2_SB_PS2_
zsg:_StreamAsyncResult_SetComplete_m1102187093
Dql:_CharacterClass_GetIntervalCost_m4036989868
Ejc:__ZN13MonoBehaviour19HandleNotificationsEPviR11MessageData
kti:_RectOffset_Init_m2028508611
afe:__ZN5physx6shdfnd5ArrayIPNS_2Sc17ParticleSystemSimENS0_19ReflectionAllocatorIS4_EEE8recreateEj
b7k:_List_1_System_Collections_IList_Remove_m4226673807_gshared
YHg:_Alert__ctor_m3135936936
Qmg:_Int64_System_IConvertible_ToInt32_m772105781
Qhl:_TlsClientSettings__ctor_m3220697265
g9l:__ZNK15dense_hashtableINSt3__24pairIK10KeyWrapperINS1_IPK9EventInfoP11Il2CppClassEEEjEES9_17ReflectionMapHashIS8_EN14dense_hash_mapIS9_jSD_NS9_14EqualsComparerINS0_8equal_toIS8_EEEENS0_9allocatorISB_EEE9SelectKeyESI_SK_E23find_position_with_hashERSA_j
oEm:_copysignl
QMm:b58
NZi:_Dictionary_2_make_pair_m2250450206_gshared
tLi:_ForwardingDecoder_GetChars_m4228908854
i$b:__ZN25CameraStackRenderingState18EndStereoRenderingEv
gRh:_InterpreterFactory_get_GroupCount_m2226373271
LMm:b53
GMm:b50
HMm:b51
QCe:__ZN5physx9PxTaskMgrD0Ev
PMm:b57
MMm:b54
NMm:b55
PAh:_SimpleCollator_IsSafe_m310268646
h0f:_X509Certificate_get_RawData_m2387471414
YOm:_glDetachShader__wrapper
Q4f:_ArrayTypeMismatchException__ctor_m3375008173
z8g:_Transform_1_BeginInvoke_m1757796657_gshared
Owj:__Z88RuntimeInvoker_Int32_t2950945753_UIVertex_t4057497605_UIVertex_t4057497605_RuntimeObjectPFvvEPK10MethodInfoPvPS4_
roc:__ZN10GameObject12CleanupClassEv
ROd:__ZN5physx3Scb5Scene13addRigidNoSimINS0_11RigidStaticELb0ELb1EEEvRT_RNS0_13ObjectTrackerE
oBa:__ZN9GfxDevice25SetShaderPropertiesSharedERK19ShaderPropertySheet
FCf:_BaseMeshEffect_get_graphic_m1852367505
kcg:_CaseInsensitiveHashCodeProvider_GetHashCode_m2168170016
GIa:__ZN18AsyncUploadManager19AsyncResourceUploadER9GfxDeviceii9TextureID
$mc:__ZL25InitializeDefaultMaterialv
Plf:__Z53Register_UnityEngine_CanvasRenderer_get_materialCountv
KTf:_PropertyBuilder_GetCustomAttributes_m3798356764
yYf:_PropertyInfo_get_MemberType_m2794839864
SCl:_EventTrigger_RemoveRule_m1596811726
e2g:_Comparer_1_System_Collections_IComparer_Compare_m4179495191_gshared
WXa:__ZN17PersistentManager12UnloadStreamERKN4core12basic_stringIcNS0_20StringStorageDefaultIcEEEEb
lDd:__ZN5physx6shdfnd8SyncImplD2Ev
Lv:__ZN15SerializeTraitsI9OffsetPtrIN7mecanim9animation17BlendTreeConstantEEE8TransferI19StreamedBinaryWriteILb0EEEEvRS4_RT_
Rqk:_Array_InternalArray__Insert_TisUICharInfo_t75501106_m2924156520_gshared
ZGi:_MonoProperty_GetterAdapterFrame_TisRuntimeObject_TisRuntimeObject_m458718082_gshared
DSc:__Z43ParticleSystemRenderer_RenderMultipleMeshesIL21SpriteMaskInteraction2EEvRK15RenderNodeQueueRK18RenderMultipleData17ShaderChannelMask
ndm:_il2cpp_unity_liveness_calculation_from_statics
nI:__ZNK26AnimatorControllerPlayable11DerivesFromE17ScriptingClassPtr
x2h:_DateTime_get_Minute_m87527789_AdjustorThunk
r$g:_InternalEnumerator_1_System_Collections_IEnumerator_get_Current_m2649471526_gshared
Kha:__ZN8Renderer8TransferI17RemapPPtrTransferEEvRT_
OAa:__ZN13GfxDeviceGLES26UpdateViewProjectionMatrixEv
j3g:_Enumerator_System_Collections_IDictionaryEnumerator_get_Entry_m522483686_gshared
QFh:_PrivateKeyInfo_RemoveLeadingZero_m3921889925
UOi:_Thread_get_CurrentContext_m1695017876
wHl:__ZL24UnresolvedVirtualCall_71P12Il2CppObjectS0_S0_iS0_S0_S0_PK10MethodInfo
Faj:__Z68RuntimeInvoker_Int32_t2950945753_Int16_t2552820387_Int32_t2950945753PFvvEPK10MethodInfoPvPS4_
o4d:__ZNK5physx2Sc9ClothCore16getCollisionDataEPNS_22PxClothCollisionSphereEPjPNS_21PxClothCollisionPlaneES4_PNS_24PxClothCollisionTriangleE
eed:__ZN16PhysicsManager2D19AddRigidbodyUpdatesEP11Rigidbody2D
dbc:__Z24LookRotationToQuaternionRK8Vector3fS1_P11Quaternionf
bbc:__ZN16ReflectionProbes9GetCameraEv
t8d:__ZNK5physx2Sc18ParticleSystemCore20getMaxMotionDistanceEv
KZc:__ZN22ParticleSystemRenderer8TransferI14SafeBinaryReadEEvRT_
qkf:__ZN2UI6Canvas17SetSortingLayerIDEi
Yom:__ZN6il2cpp2vm11MethodStack23CleanupForCurrentThreadEv
fKk:_Collection_1_ConvertItem_m618594517_gshared
Wig:_Convert_ToUInt64_m388601487
k5a:__ZN20TierGraphicsSettings8TransferI24GenerateTypeTreeTransferEEvRT_
lZl:__ZN15dense_hashtableINSt3__24pairIK10KeyWrapperIN6il2cpp5utils13dynamic_arrayIPK10Il2CppTypeLj4EEEEPFvvEEESA_NS3_8metadata19Il2CppSignatureHashEN14dense_hash_mapISA_SD_SG_NSA_14EqualsComparerINSF_22Il2CppSignatureCompareEEENS0_9allocatorISE_EEE9SelectKeyESK_SM_E16reset_thresholdsEv
poi:_Mesh_get_vertices_m3585684815
NGb:__ZN14SafeBinaryRead21TransferSTLStyleArrayI13dynamic_arrayI4AABBLj4EEEEvRT_17TransferMetaFlags
Jwi:_TouchScreenKeyboard_get_text_m1797464608
lcc:__ZN26CustomRenderTextureManager25UpdateCustomRenderTextureEP19CustomRenderTexturei
zra:__ZNSt3__26__treeINS_12__value_typeIiN11TypeManager18TypeCallbackStructEEENS_19__map_value_compareIiS4_NS_4lessIiEELb1EEENS_9allocatorIS4_EEE7destroyEPNS_11__tree_nodeIS4_PvEE
Ykd:__ZN16PhysicsManager2D42RegisterTransformChangeInterestForColliderEP10Collider2D
hqc:__ZNK14PlayableOutput23GetSourcePlayableUnsafeEv
spf:__ZN11UnityEngine7Connect17XRDeviceInfoEventD0Ev
zOj:__ZL60SoapTypeAttribute_t1750930817_CustomAttributesCacheGeneratorP21CustomAttributesCache
gUc:__ZN14ParticleSystem8Update1bER24ParticleSystemUpdateDatafNS_11UpdateFlagsEi
nNf:_Binder_ConvertArgs_m2124461494
z5:__ZN21UnityDefaultAllocatorI17LowLevelAllocatorE10DeallocateEPv
LOm:b86
J7a:__ZN15SharedLightData22UpdateCookieTextureRefEv
bB:__ZN15PackedIntVector8TransferI14SafeBinaryReadEEvRT_
Syi:_Vector3__ctor_m3353183577_AdjustorThunk
tTg:_InternalEnumerator_1_System_Collections_IEnumerator_get_Current_m1514266661_gshared
hSd:__ZNK5physx19NpArticulationJoint20getTangentialDampingEv
MGg:_MD5SHA1_Initialize_m675470944
WHi:_Array_InternalArray__ICollection_Add_TisKeyframe_t4206410242_m442111799_gshared
D4k:_List_1_CheckMatch_m3263549496_gshared
ZS:__ZN13AudioListener8DoUpdateEv
Xpd:__ZN5physx3Cct10Controller22setUpDirectionInternalERKNS_6PxVec3E
mLc:__ZN5Unity9rapidjson13GenericReaderINS0_4UTF8IcEES3_13JSONAllocatorE9ParseTrueILj1ENS0_25GenericInsituStringStreamIS3_EENS0_15GenericDocumentIS3_S4_S4_EEEEvRT0_RT1_
hgg:__Z13bankers_roundd
wtb:__ZN14SafeBinaryRead8TransferI5RectTIfEEEvRT_PKc17TransferMetaFlags
lj:_emscripten_glGenFramebuffers
tra:__ZN17BaseObjectManager16StaticInitializeEPv
Oum:__GLOBAL__sub_I_Assembly_cpp_42107
fgl:_PlatformSpecificContent_EnableContent_m2441560076
a$k:_List_1_CheckCollection_m2602703205_gshared
GNc:__Z18Transfer_BlittableI9JSONWriteLb0EyEvRK29SerializationCommandArgumentsR31RuntimeSerializationCommandInfo
Rab:__ZN13RenderTexture15ThreadedCleanupEv
zMh:_X509BasicConstraintsExtension__ctor_m3721156175
oeb:__ZN12CubemapArray23VirtualRedirectTransferER14SafeBinaryRead
a5d:__ZNK5physx2Sc9ClothCore23getNbCollisionTrianglesEv
fg:___cxa_free_exception
apg:_Path_GetFileName_m1354558116
bPl:_Physics_Raycast_m4145022031
k1d:__ZN5physx7NpShape16setFlagsInternalENS_7PxFlagsINS_11PxShapeFlag4EnumEhEE
VNm:_emscripten_glUniform3i__wrapper
Usi:_Rect_Contains_m1232228501_AdjustorThunk
oDc:__Z43RectTransform_CUSTOM_INTERNAL_set_sizeDeltaP12Il2CppObjectRK13Vector2fIcall
cyd:__ZN5physx2Gu30distanceSegmentTriangleSquaredERKNS_6shdfnd3aos5Vec3VES5_S5_S5_S5_RS3_S6_
Zmg:_Int64_System_IConvertible_ToType_m3223988955_AdjustorThunk
Qkm:__ZN15dense_hashtableINSt3__24pairIK10KeyWrapperINS1_IPKcS4_EEEiEES6_24NamespaceAndNamePairHashN14dense_hash_mapIS6_iS9_NS6_14EqualsComparerI26NamespaceAndNamePairEqualsEENS0_9allocatorIS8_EEE9SelectKeyESD_SF_E6insertERKS8_
Hha:__ZN24GenerateTypeTreeTransfer18BeginArrayTransferEPKcS1_Ri17TransferMetaFlags
Nzi:_Vector4__cctor_m2519631228
hxk:_Array_InternalArray__get_Item_TisPlayableBinding_t354260709_m3837494573_gshared
kn:___syscall51
l$h:_String_CreateString_m4016935005
Uml:_MatchCollection_get_FullList_m1829231879
on:___syscall54
E3f:_Array_GetValue_m2528415604
h4d:__ZN5physx2Sc9ClothCore14updateBulkDataERNS0_13ClothBulkDataE
$ti:_Transform_INTERNAL_CALL_TransformPoint_m4261269221
Dei:_Guid_AppendShort_m791023083
_4k:_List_1__ctor_m4212503576_gshared
Lza:__ZN9ShaderLab9SubShader19CreateFromSubShaderERKS0_
Xbg:_BitArrayEnumerator_MoveNext_m3806676766
o4e:_cff_builder_add_point1
Zlm:__ZN6il2cpp2vm5Image21GetCachedResourceDataEPK11Il2CppImageRKNSt3__212basic_stringIcNS5_11char_traitsIcEENS5_9allocatorIcEEEE
HDb:__Z18Transfer_BlittableI14SafeBinaryReadLb0E10ColorRGBAfEvRK29SerializationCommandArgumentsR31RuntimeSerializationCommandInfo
nuh:_Scrollbar__ctor_m1852189877
s3c:__ZN21InheritVelocityModuleD2Ev
Ka:invoke_iiiiiiiiii
m$:__ZN11AudioSource25GetNumExtensionPropertiesEv
mJi:_Array_InternalArray__ICollection_CopyTo_TisUILineInfo_t4195266810_m104406798_gshared
$8f:_Char_ToLowerInvariant_m1926695830
yFc:__Z31Transform_CUSTOM_DetachChildrenP12Il2CppObject
Tii:_Debug_LogErrorFormat_m3558239521
Ovb:__ZN18LoadSceneOperation19IntegrateTimeSlicedEi
ooh:_InputField_ActivateInputFieldInternal_m3360893886
ER:__ZN4FMOD7SystemI11createSoundEPKcjP22FMOD_CREATESOUNDEXINFOPPNS_5SoundE
nfc:__ZN10FileSystem19SetCurrentDirectoryERKN4core12basic_stringIcNS0_20StringStorageDefaultIcEEEE
Shi:_Component_get_gameObject_m442555142
Hba:__ZN16ScriptingManager24NotifyScriptCacheReleaseEi
T_c:__ZN13dynamic_arrayIN9SubModule14SubEmitterDataELj4EE9push_backERKS1_
Jyc:__Z47Register_UnityEngine_Coroutine_ReleaseCoroutinev
POd:__ZN10ScSceneFnsIN5physx3Scb11RigidStaticEE6insertERNS0_2Sc5SceneERS2_
KT:__ZN15AudioReverbZone13SetFMODValuesEv
q9:__ZN14SafeBinaryRead4InitERK16TypeTreeIteratorxx24TransferInstructionFlags10MemLabelId
Esa:__ZL19StaticDestroyShaderPv
We:_glRenderbufferStorageMultisample
Spc:__ZN8Playable4PlayEv
gJh:_DefaultCertificatePolicy_CheckValidationResult_m3811448269
yJ:__ZN23AnimationPlayableOutput17SetTargetAnimatorEP8Animator
bPc:__ZN9JSONWrite8TransferI13dynamic_arrayIN4math12int3_storageELj4EEEEvRT_PKc17TransferMetaFlags
bHb:__Z35Transfer_Blittable_SingleValueFieldI14SafeBinaryReadfEvRT_R17GeneralMonoObjectRK23StaticTransferFieldInfo
qzj:__Z67RuntimeInvoker_Void_t1185182177_Int32_t2950945753_Touch_t1921856868PFvvEPK10MethodInfoPvPS4_
vyd:__ZN5physx2Gu20sweepCCTBoxTrianglesEjPKNS_10PxTriangleEbRKNS_13PxBoxGeometryERKNS_11PxTransformERKNS_6PxVec3EfRSA_SD_RfRjPKjfNS_7PxFlagsINS_9PxHitFlag4EnumEtEE
Urd:__ZN5physx2Gu15OBBTriangleTestC2ERKNS0_3BoxE
KWc:__Z25EvaluateRandomGradientHDRIL12GradientMode0ELS0_0EEN4math8floatNx4ERK14MinMaxGradientRKNS1_7_float4ES8_
Ctd:__ZN5physx2Gu21computeMTD_SphereMeshERNS_6PxVec3ERfRKNS0_6SphereERKNS_22PxTriangleMeshGeometryERKNS_11PxTransformE
bHi:_Array_InternalArray__ICollection_Add_TisClientCertificateType_t1004704908_m2622721177_gshared
ws:__Z18TransformDirection23TransformAccessReadOnlyRKN4math7_float3E
BGd:__ZN5physx2Sc10NPhaseCore15fetchFilterPairEPv
Zgl:_WaypointCircuit_GetRoutePosition_m3210841817
yQe:__ZN5physx12SubSortQuick5sort4EPjjRNS_6shdfnd5ArrayINS_11RTreeNodeNQENS2_19ReflectionAllocatorIS4_EEEERjRNS_10PxBounds3VEj
zGc:__Z37Register_UnityEngine_Screen_get_widthv
fNd:__ZN5physx6shdfnd5ArrayIPNS_2Sc8BodyCoreENS0_19ReflectionAllocatorIS4_EEE15growAndPushBackERKS4_
isl:_Uri_get_Authority_m3816772302
grc:__ZN22BlockMemoryCacheWriter11GetPathNameEv
SEg:_BigInteger_op_Division_m3713793389
Awi:_Touch_get_position_m3109777936
ixe:__ZN5physx16PxsBroadPhaseMBPC2ERNS_19PxcScratchAllocatorERNS_2Cm13EventProfilerERKNS_11PxSceneDescEPNS_14PxsAABBManagerE
JXf:_ParameterInfo__ctor_m3269320476
HTe:__ZN14PhysicsManager23VirtualRedirectTransferER14SafeBinaryRead
APh:_X509SubjectKeyIdentifierExtension_FromHexChars_m3244835916
SYh:_Single_CompareTo_m2785801815
Ijl:_PKCS12_MAC_m3355614022
mWd:__ZN5physx7NpActor14onActorReleaseEPNS_7PxActorE
xBd:__ZN5physx3Cct26CharacterControllerManager19computeInteractionsEfPNS_26PxControllerFilterCallbackE
Nq:stackAlloc
xLd:__ZN5physx6shdfnd8PoolBaseINS_2Cm5BlockIhLj256EEENS0_19ReflectionAllocatorIS4_EEE12allocateSlabEv
dzc:__Z44Camera_CUSTOM_INTERNAL_CALL_ScreenPointToRayP12Il2CppObjectRK8Vector3fR3Ray
U_a:__ZN25SingleBlockMemoryFileData4LockEPPv
MRm:_glProgramParameteri__wrapper
l9:__ZN17PersistentManager23PostReadActivationQueueEiPK8TypeTreeb
_Ac:__Z32RectOffset_Get_Custom_PropBottomP12Il2CppObject
Pii:_Debug_LogError_m2850623458
jHk:_Collection_1_CheckWritable_m3225530705_gshared
kSm:_emscripten_glGetObjectParameterivARB__wrapper
IEm:_stat
aga:__ZN9ShaderLab10SubProgram7CompileEv
YXb:__ZN15InstancingProps14CombineBuiltinEN10Instancing11BuiltinPropES1_S1_
DTf:_PropertyBuilder_get_CanRead_m3783190070
s0i:_DefaultComparer_Equals_m3770904334_gshared
iHi:_Array_InternalArray__ICollection_Add_TisKeyValuePair_2_t3699644050_m4052349323_gshared
fJg:_CipherSuiteCollection_System_Collections_IList_get_Item_m2175128671
$dd:__ZN15b2DistanceJoint23InitVelocityConstraintsERK12b2SolverData
kYb:__ZNSt3__218__insertion_sort_3IRNS_4lessIN22BuiltinResourceManager8ResourceEEEPS3_EEvT0_S7_T_
qAe:__ZN5physx2Gu21findUniqueConvexEdgesEjPNS0_10ConvexEdgeEjPKNS0_15HullPolygonDataEPKh
ode:__ZN5physx20NpRigidActorTemplateINS_14PxRigidDynamicEED0Ev
sa:invoke_iiiiiiiiiiii
k2h:_DateTime_System_IConvertible_ToType_m1242864300_AdjustorThunk
bve:__ZN5physx43solveContactCoulombPreBlock_WriteBackStaticEPKNS_23PxcSolverConstraintDescEjRNS_16PxcSolverContextEPNS_25PxcThresholdStreamElementEjPi
r_g:_InternalEnumerator_1_get_Current_m2446410893_AdjustorThunk
V5a:__Z29CalculateDefaultChannelsToAdd17ShaderChannelMaskS_
x4f:_Array_Sort_m870838517
vLd:__ZN5physx2Sc5Scene23allocateConstraintBlockEj
NMl:_CanvasRenderer_SetMaterial_m633746949
lgj:__Z99RuntimeInvoker_RuntimeObject_RuntimeObject_RuntimeObject_StreamingContext_t3711869237_RuntimeObjectPFvvEPK10MethodInfoPvPS4_
GW:__ZN10AudioMixer12RebindOutputEv
agh:_MethodCall_InitMethodProperty_m1333573177
Iem:__ZNK15dense_hashtableINSt3__24pairIK10KeyWrapperIP11Il2CppClassES4_EES5_N6il2cpp8metadata16SZArrayClassHashEN14dense_hash_mapIS5_S4_SA_NS5_14EqualsComparerINS9_19SZArrayClassCompareEEENS0_9allocatorIS7_EEE9SelectKeyESE_SG_E5beginEv
srh:_LayoutRebuilder_PerformLayoutControl_m4241054021
MUl:__ZN6il2cpp2vm17SetupFieldsLockedEP11Il2CppClassRKNS_2os12FastAutoLockE
KWb:__ZNK9GfxDevice20IsViewportFullscreenEv
jX:__ZN11AudioSourceD0Ev
KOa:__ZN18GlslGpuProgramGLES13SwitchProgramEj
LMd:__ZN5physx2Sc5Actor15onElementDetachERNS0_7ElementE
H$a:__ZN20ArchiveStorageReaderC2E10MemLabelId
Baj:__Z132RuntimeInvoker_Int32_t2950945753_RuntimeObject_Int32_t2950945753_Int32_t2950945753_RuntimeObject_Int32_t2950945753_Int32_t2950945753PFvvEPK10MethodInfoPvPS4_
c5c:__ZN27TrailModulePropertyBindings13SetFloatValueER14ParticleSystemif
_Bb:__ZN16MemoryFileSystem4NameEv
N6c:__Z20UpdateWholeSheet2TplIL27ParticleSystemCurveEvalMode2ELS0_0EEvfRK11MinMaxCurveS3_RK23ParticleSystemParticlesPf
JTe:__ZN14PhysicsManager9onContactERKN5physx19PxContactPairHeaderEPKNS0_13PxContactPairEj
uGc:__Z13SetCopyBufferRKN4core12basic_stringIcNS_20StringStorageDefaultIcEEEE
Bpd:__ZN5physx3Cct13BoxController13setHalfHeightEf
wme:__ZN5physx3Scb13ObjectTracker5clearEv
v0f:_X509CertificateEnumerator_System_Collections_IEnumerator_get_Current_m418791713
Nef:_UNITY_FT_New_Size
Twc:__Z42ScriptingGetComponentsOfTypeFromGameObjectRK26ScriptingGetComponentsArgs
Q4:__ZN19CloudServiceHandler11FlushEventsEv
nVc:__Z10RecordEmitR27ParticleSystemEmissionStateRK28ParticleSystemSubEmitterDataR24ParticleSystemUpdateDataRK23ParticleSystemParticles21ParticleSystemSubTypeijffff
oXc:__Z9UpdateTplIL27ParticleSystemCurveEvalMode4EEvRK11MinMaxCurveS3_S3_R23ParticleSystemParticlesjjRKN4math8float3x3ERKNS6_7_float4E
Sqd:__ZL23GeomMTDCallback_BoxMeshRN5physx6PxVec3ERfRKNS_10PxGeometryERKNS_11PxTransformES5_S8_
S4j:__ZL73ArgumentCache_t2187958399_CustomAttributesCacheGenerator_m_ObjectArgumentP21CustomAttributesCache
Auk:_Array_swap_TisRaycastResult_t3360306849_TisRaycastResult_t3360306849_m3400922624_gshared
vFl:_AudioListener_ReadExtensionName_m929423100
DAg:_CspParameters__ctor_m2741097571
_3c:__ZN35ClampVelocityModulePropertyBindings13SetFloatValueER14ParticleSystemif
h3d:__ZNK5physx7NpCloth22getNbCollisionCapsulesEv
wdb:__ZNSt3__27__sort4IRPFbRKNS_4pairIN9ShaderLab16FastPropertyNameEN18UnityPropertySheet11UnityTexEnvEEES8_EPS6_EEjT0_SD_SD_SD_T_
m3e:_cf2_hintmap_build
hwi:_Texture_get_width_m888163864
vcf:_Line_Up
Aqd:__ZL28GeomMTDCallback_SphereSphereRN5physx6PxVec3ERfRKNS_10PxGeometryERKNS_11PxTransformES5_S8_
bf:_emscripten_glBufferSubData
yCc:__Z51AnimationCurve_CUSTOM_INTERNAL_CALL_GetKey_InternalP12Il2CppObjectiR11KeyframeTplIfE
O_h:_String_ReplaceUnchecked_m1381393810
aQd:__ZN5physx6shdfnd5ArrayIPvNS0_15InlineAllocatorILj256ENS0_19ReflectionAllocatorINS_7NpShapeEEEEEE15growAndPushBackERKS2_
ZKa:__ZN6prcoreL12RemapGenericI15TexFormatRGB88817TexFormatARGB8888EEvPKNS_9InnerInfoE
Er:__Z17CalculateGlobalRS23TransformAccessReadOnly
pzm:__ZNSt3__210__list_impIPN6il2cpp5utils10MemoryPool6RegionENS_9allocatorIS5_EEE5clearEv
AZg:_InternalEnumerator_1_get_Current_m1523142935_gshared
Zka:__ZN33InstancedMeshIntermediateRenderer13StaticDestroyEPv
NQd:__ZNK5physx14NpArticulation22computeImpulseResponseEPNS_18PxArticulationLinkERNS_6PxVec3ES4_RKNS_24PxArticulationDriveCacheERKS3_S9_
bId:__ZN5physx2Sc19ContactReportBuffer23reallocateNotThreadSafeEjRjjj
HKd:__ZN5physx2Sc5Actor19registerInteractionEPNS0_11InteractionE
JGb:__ZN14SafeBinaryRead21TransferSTLStyleArrayI13dynamic_arrayI9BoundsIntLj4EEEEvRT_17TransferMetaFlags
qyb:__ZN22MemoryCacherReadBlocks14LockCacheBlockEjPPhS1_
U3l:__ZN6il2cpp2vm14TypeNameParser17ParseAssemblyNameEv
Wlb:__ZNK9GfxDevice26GetSinglePassStereoEyeMaskEv
dji:_DebugLogHandler_Internal_Log_m4175774469
mek:__ZL54EventSystem_t1003666588_CustomAttributesCacheGeneratorP21CustomAttributesCache
xtm:__ZN4utf88internal15increase_safelyIPKcEENS0_9utf_errorERT_S5_
NUl:__ZN6il2cpp2vmL21SetupPropertiesLockedEP11Il2CppClassRKNS_2os12FastAutoLockE
aef:__ZN20TextRenderingPrivate8FontImpl16CacheFontForTextEPtiifjPK13dynamic_arrayINS_16TextFormatChangeELj4EE
k9f:_CharEnumerator_get_Current_m525608209
f$e:__ZN13PhysicsModule19CreateNxHeightFieldEPv
nxf:__Z21ArrayElementTypeCheckP11Il2CppArrayPv
OQm:_emscripten_glTexSubImage2D__wrapper
emd:__ZN17PhysicsMaterial2D16CheckConsistencyEv
c8h:_StackTrace_init_frames_m641783388
mMh:_PublicKey_DecodeRSA_m1824703659
FGm:__ZNSt3__212basic_stringIcNS_11char_traitsIcEENS_9allocatorIcEEE6appendEjc
dod:__ZN16PhysicsManager2D20WorldContactFilter2D13ShouldCollideEP9b2FixtureS2_
XCc:__Z27Random_Get_Custom_PropValuev
XEb:__Z14resize_trimmedINSt3__26vectorI8MonoPPtr13stl_allocatorIS2_L18MemLabelIdentifier1ELi16EEEEEvRT_j
Lf:_TTF_RenderText_Solid
egl:_PlatformSpecificContent_CheckEnableContent_m775807121
xZk:_List_1__ctor_m3947764094_gshared
$ql:_Parser_IsIgnorePatternWhitespace_m2107132682
yJh:_HttpRequestCreator_Create_m400548686
stf:__ZN11UnityEngine7Connect16PersistentValuesC2Ev
gRk:_ReadOnlyCollection_1_System_Collections_IList_Insert_m134149130_gshared
kNc:__Z18Transfer_BlittableI9JSONWriteLb0E5RectTIiEEvRK29SerializationCommandArgumentsR31RuntimeSerializationCommandInfo
ZBh:_BigInteger_get_Rng_m4216817480
RBi:_Array_InternalArray__ICollection_Remove_TisDateTime_t3738529785_m2250893026_gshared
aPa:__Z15IsIEEE754Format14GraphicsFormat
DIb:__Z19TransferField_ArrayI17RemapPPtrTransfer27Converter_UnityEngineObjectEvRK23StaticTransferFieldInfoR31RuntimeSerializationCommandInfoRT0_
ob:invoke_iifiii
Zcg:_KeyNotFoundException__ctor_m541499307
k5b:__ZN19ShaderPropertySheet24SetTextureFromTextureRefERK23FastTexturePropertyNamePK10TextureRef
pDi:_SetPropertyUtility_SetStruct_TisSpriteState_t1362986479_m665096788_gshared
Xaj:__Z61RuntimeInvoker_Single_t1397266774_RuntimeObject_RuntimeObjectPFvvEPK10MethodInfoPvPS4_
zpi:_Object_INTERNAL_CALL_Internal_InstantiateSingle_m243746258
XBi:_Array_InternalArray__ICollection_Remove_TisIntPtr_t_m3807208150_gshared
FTe:__ZN14PhysicsManager23VirtualRedirectTransferER17RemapPPtrTransfer
xWg:_InternalEnumerator_1_get_Current_m2316281569_AdjustorThunk
n1h:_DateTime__ctor_m1095105629
JCa:__ZN13GfxDeviceGLES15UploadTexture2DE9TextureID16TextureDimensionPKhiii14GraphicsFormati18TextureUploadFlags16TextureUsageMode
XH:__ZN7mecanim9animation25CreateControllerWorkspaceEPKNS0_18ControllerConstantERNS_6memory9AllocatorE
_gf:__Z37Register_UnityEngine_GUIText_set_textv
Oxl:_Event_Cleanup_m2477919477
CV:__ZN4FMOD6System9createDSPEP20FMOD_DSP_DESCRIPTIONPPNS_3DSPE
KSj:__ZL87Thread_t2300836069_CustomAttributesCacheGenerator_Thread_GetCompressedStack_m2923422412P21CustomAttributesCache
oOg:_SslClientStream_get_ClientCertificates_m998716871
XI:__ZN7mecanim9animation26DestroyControllerWorkspaceEPNS0_19ControllerWorkspaceERNS_6memory9AllocatorE
Gpi:_Object_DestroyObject_m3543774005
CR:__ZN4FMOD8ChannelI11EndCallbackEv
oJc:__ZN8GUIStyle14SetDefaultFontEPN13TextRendering4FontE
V$c:__ZN11ForceModule8TransferI24GenerateTypeTreeTransferEEvRT_
WNh:_X509Chain_GetAuthorityKeyIdentifier_m2237883181
Yhb:__ZN15QualitySettings23VirtualRedirectTransferER24GenerateTypeTreeTransfer
clh:_ObjectReader_ReadValue_m3145979203
cBe:__ZN5physx2Gu32PCMConvexVsMeshContactGeneration35generateTriangleFullContactManifoldERNS0_9TriangleVEjPKjhRKNS0_13PolygonalDataEPNS0_16SupportLocalImplIS2_EEPNS0_12SupportLocalEPNS0_21MeshPersistentContactERjRKNS_6shdfnd3aos6FloatVERNSI_5Vec3VE
Cpl:_AnchorInfo__ctor_m3523994803
jjk:__ZL68Scrollbar_t1494447233_CustomAttributesCacheGenerator_m_NumberOfStepsP21CustomAttributesCache
Ut:__ZN14SafeBinaryRead21TransferSTLStyleArrayI22OffsetPtrArrayTransferI9OffsetPtrIN7mecanim12statemachine17ConditionConstantEEEEEvRT_17TransferMetaFlags
AXl:__ZN30dense_hashtable_const_iteratorINSt3__24pairIK10KeyWrapperIPK19Il2CppGenericMethodEPK26Il2CppGenericMethodIndicesEES6_N6il2cpp8metadata23Il2CppGenericMethodHashEN14dense_hash_mapIS6_SA_SE_NS6_14EqualsComparerINSD_26Il2CppGenericMethodCompareEEENS0_9allocatorISB_EEE9SelectKeyESI_SK_EppEv
Uqe:__ZNK16OBBAABBTest_SIMDclERKN5physx2Sq9BucketBoxE
aKm:dynCall_viffffii
$1e:_UNITY_FT_Request_Metrics
Jjm:__ZN6il2cpp6icalls8mscorlib6System10Reflection10MonoMethod29get_IsGenericMethodDefinitionEP22Il2CppReflectionMethod
cgm:__ZN6il2cpp2vm6Thread21AllocThreadStaticDataEi
sNf:_Default_SelectMethod_m469311730
$li:_Input_get_mousePosition_m1616496925
tsm:__ZN30dense_hashtable_const_iteratorINSt3__24pairIK10KeyWrapperIPK19Il2CppGenericMethodEP10MethodInfoEES6_N6il2cpp8metadata23Il2CppGenericMethodHashEN14dense_hash_mapIS6_S9_SD_NS6_14EqualsComparerINSC_26Il2CppGenericMethodCompareEEENS0_9allocatorISA_EEE9SelectKeyESH_SJ_EppEv
OUi:_UInt32_ToString_m2066897296_AdjustorThunk
y_:__Z13RegisterClassI13AudioListenerEvv
Oyb:__ZN24GenerateTypeTreeTransfer19TransferSTLStyleMapINSt3__23mapI4PPtrI6ShaderEN4core12basic_stringIcNS6_20StringStorageDefaultIcEEEENS1_4lessIS5_EENS1_9allocatorINS1_4pairIKS5_SA_EEEEEEEEvRT_17TransferMetaFlags
odg:_Enumerator_Reset_m4274366540
JMc:__Z18Transfer_BlittableI9JSONWriteLb0E8Vector3fEvRK29SerializationCommandArgumentsR31RuntimeSerializationCommandInfo
Jg:_emscripten_glUniform4i
y9c:__ZNSt3__227__insertion_sort_incompleteIRN10vector_mapIi22ParticleModulePropertyNS_4lessIiEENS_9allocatorINS_4pairIiS2_EEEEE13value_compareEPS7_EEbT0_SD_T_
j6e:_otv_FeatureList_validate
LSc:__ZN22ParticleSystemRenderer5ResetEv
Wzd:__ZN16RayRTreeCallbackILi0ELb1EED2Ev
Wf:_emscripten_glUniform4f
rXa:__ZN6Object22CheckInstanceIDsLoadedEPii
sk:___unlock
LUe:__ZN14SphereCollider10SmartResetEv
r5e:_otv_validate
Jdc:__ZN13sorted_vectorINSt3__24pairIN4core12basic_stringIcNS2_20StringStorageDefaultIcEEEES6_EEN10vector_mapIS6_S6_27compare_tstring_insensitiveIS6_E13stl_allocatorIS7_L18MemLabelIdentifier38ELi16EEE13value_compareESD_E9erase_oneIS6_EEjRKT_
grh:_U3CDelayedSetDirtyU3Ec__Iterator0_Reset_m160466733
RVh:_X509Certificate_Equals_m3784196370
O8k:_List_1__ctor_m3376067838_gshared
WX:__ZN20SoundChannelInstance19setReverbPropertiesEP29FMOD_REVERB_CHANNELPROPERTIES
KWk:_Enumerator_MoveNext_m1446151600_gshared
FTh:_SHA1Internal_ProcessFinalBlock_m1403775421
ZFc:__Z40Register_UnityEngine_Transform_IsChildOfv
_Ad:__ZN5physx3Cct17CapsuleController15setClimbingModeENS_21PxCapsuleClimbingMode4EnumE
Vse:__ZN5physx6shdfnd9atomicAddEPVii
D0g:_InternalEnumerator_1_get_Current_m2356858238_AdjustorThunk
Zzc:__Z45Register_UnityEngine_Display_GetSystemExtImplv
UF:__ZN7mecanim14ValueArrayLoopILb1EEEvRKNS_10ValueArrayES3_RKNS_14ValueArrayMaskERS1_f
eGh:_RSAManaged_ImportParameters_m1844641996
Fne:__ZN5physx6shdfnd5ArrayINS_3Scb13MaterialEventENS0_19ReflectionAllocatorIS3_EEE6resizeEjRKS3_
q3g:_Enumerator_System_Collections_IDictionaryEnumerator_get_Value_m3325938730_AdjustorThunk
KF:__ZN7mecanim9animation23TransformValuesFromClipEiiiRKNS_10ValueArrayERKNS0_10ClipOutputERKNS0_12ClipBindingsERS1_RNS_14ValueArrayMaskEb
c7c:__Z19UpdateSingleRow2TplIL27ParticleSystemCurveEvalMode4ELS0_4EEvfRK11MinMaxCurveS3_RK23ParticleSystemParticlesPfbiii
Rye:__ZNK5physx14SingleAABBTask25updateNumFastMovingShapesEv
VWi:_ValueCollection_System_Collections_ICollection_get_SyncRoot_m1114275063_gshared
tei:_Guid_Equals_m1866984197
$if:__ZNSt3__218__insertion_sort_3IRNS_6__lessIN2UI14DepthSortEntryES3_EEPS3_EEvT0_S7_T_
SPe:__ZN5physx17ConvexMeshBuilder16computeGaussMapsEv
cMf:_PlatformNotSupportedException__ctor_m1787918017
rpa:__ZN13RuntimeStaticI15DirectorManagerLb0EE16StaticInitializeEPv
GOl:_Collider_Raycast_m2876906360
KNk:_ReadOnlyCollection_1_System_Collections_ICollection_CopyTo_m2643246984_gshared
isb:__ZN11TimeManager6UpdateEv
BXb:__ZN6Shader18LoadDefaultShadersEv
QQd:__ZNK5physx2Sc16ArticulationCore22computeImpulseResponseERNS0_8BodyCoreERNS_6PxVec3ES5_RKNS_9PxcFsDataERKS4_SA_
sCe:__ZN5physx21PxsBodyTransformVaultC2Ev
nDf:_CanvasScaler_get_fallbackScreenDPI_m2811935689
d2h:_DateTimeFormatInfo_ReadOnly_m890935083
nAe:__ZL6IsInYZffPPK10VertexInfo
MQe:__ZN5physx19TriangleMeshBuilderD0Ev
TEm:_fflush
qfa:__ZN17LightProbeContext4InitERK16LightmapSettingsRK14RenderSettings
a7b:__ZN18DeferredRenderLoop14RenderLightingER21ActiveLightingContextP13RenderTexture9TextureIDPS3_iRK8Vector4fRK14LightingLayersR10MinMaxAABBb12ObjectHandleI17RenderSurface_TagP17RenderSurfaceBaseE
bvi:_SceneManager_Internal_ActiveSceneChanged_m3676176255
C8h:_Double_System_IConvertible_ToInt16_m3591921965
flb:__ZN9Texture3DD2Ev
SHk:_Collection_1_set_Item_m4280581817_gshared
Sil:_TlsStream_Seek_m895611617
Kcl:_Joystick_CreateVirtualAxes_m1438292586
zgg:_Convert_ToChar_m2796006345
Qqk:_Array_InternalArray__Insert_TisContentType_t1787303396_m3566390691_gshared
f1d:__ZN5physx2CmlsERNS0_12RenderOutputERKNS0_10DebugArrowE
Qt:__ZN14SafeBinaryRead21TransferSTLStyleArrayI22OffsetPtrArrayTransferI9OffsetPtrIN7mecanim12statemachine21SelectorStateConstantEEEEEvRT_17TransferMetaFlags
XWc:__Z18MagnitudeUpdateTplIL27ParticleSystemCurveEvalMode2EEvRK11MinMaxCurveR23ParticleSystemParticlesjjRKN4math7_float4E
Bag:_ArrayListWrapper_GetEnumerator_m2336495952
s9b:__Z34ProcessIndexListIsNodeVisibleStep2RK22SceneCullingParametersPK9SceneNodePK4AABBR9IndexList
BUb:__ZN10MonoScriptD2Ev
YSa:__ZN19ConstantBuffersGLES8UpdateCBE5CbKeyPKvj
_B:__ZN18StreamedBinaryReadILb0EE8TransferINSt3__26vectorIN13AnimationClip12Vector3CurveE13stl_allocatorIS5_L18MemLabelIdentifier26ELi16EEEEEEvRT_PKc17TransferMetaFlags
$El:_AudioSource_get_spatializeInternal_m2117549793
zBc:__Z39Input_CUSTOM_INTERNAL_get_mousePositionP8Vector3f
A3f:_SimpleEnumerator__ctor_m353509656
Y7e:_tt_cmap13_char_next
rek:__ZL117EventSystem_t1003666588_CustomAttributesCacheGenerator_EventSystem_t1003666588____lastSelectedGameObject_PropertyInfoP21CustomAttributesCache
Iza:__ZN9ShaderLab4Pass16SetupPassOptionsEv
Zh:_JS_Sound_ReleaseInstance
GBa:__ZN13GfxDeviceGLES19DrawBuffersIndirectEP9GfxBufferPK18VertexStreamSourceiP17VertexDeclaration17ShaderChannelMask16GfxPrimitiveType15ComputeBufferIDj
fei:_Guid_CheckArray_m921056615
Kej:__Z33RuntimeInvoker_Single_t1397266774PFvvEPK10MethodInfoPvPS4_
Jch:_ConfigHandler_ReadLifetine_m208994800
i5g:_Enumerator_System_Collections_IDictionaryEnumerator_get_Entry_m3417028588_AdjustorThunk
qJe:__ZN5physx16PxsCCDBlockArrayINS_13PxsCCDOverlapELi128EE8pushBackEv
pTc:__ZL25CalculateCurveRangesValueRKN4math7_float2ERK17AnimationCurveTplIfE
Amd:__Z20GetRigidbodyChildrenRK9Transform13dynamic_arrayIP11Rigidbody2DLj4EE
ysi:_Rect_get_max_m350137314_AdjustorThunk
zn:FUNCTION_TABLE_diddi
pgm:__ZN6il2cpp6icalls8mscorlib6System5Array8FastCopyEP11Il2CppArrayiS5_ii
rNe:__ZN5physx2Gu12TriangleMesh7releaseEv
lBc:__Z42Register_UnityEngine_RectOffset_get_bottomv
uEm:_newlocale
Ype:__ZN5physx14PxsAABBManagerD2Ev
KGb:__ZN9BoundsInt8TransferI14SafeBinaryReadEEvRT_
Grc:__Z18QuaternionToMatrixRK11QuaternionfR10Matrix4x4f
JOm:_emscripten_glUniform1f__wrapper
JIm:dynCall_di
Qji:_BaseInvokableCall_AllowInvoke_m878393606
Ipe:__ZN5physx16PxsIslandManagerD2Ev
qMc:__Z28RegisterModule_JSONSerializev
jve:__ZN5physx21solveFriction_BStaticERKNS_23PxcSolverConstraintDescERNS_16PxcSolverContextE
gzb:__ZN2UI13RectTransform8TransferI14SafeBinaryReadEEvRT_
CNc:__Z35Transfer_Blittable_FixedBufferFieldI9JSONWriteaEvRK29SerializationCommandArgumentsR31RuntimeSerializationCommandInfo
f4c:__ZN34ColorBySpeedModulePropertyBindings13GetFloatValueERK14ParticleSystemi
Ufi:_Behaviour_get_enabled_m753527255
Btc:__Z20IsHumanControllingUsv
gxk:_Array_InternalArray__get_Item_TisParticleCollisionEvent_t4055032941_m3588807245_gshared
KUe:__ZN14SphereCollider5ResetEv
cA:__ZN7mecanim5human9HumanGoal8TransferI14SafeBinaryReadEEvRT_
AJj:__ZL51TextInfo_t3810425522_CustomAttributesCacheGeneratorP21CustomAttributesCache
jYa:__ZN10systeminfo21GetPersistentDataPathEv
tBa:__ZN13GfxDeviceGLES17DestroyGpuProgramEPK10GpuProgram
Rrk:_Array_InternalArray__set_Item_TisRaycastResult_t3360306849_m730888808_gshared
eDb:__Z44InitializeTransferFunctionScriptingTraitsForI18StreamedBinaryReadILb0EEEvR31TransferFunctionScriptingTraits
w5b:__ZNSt3__218__insertion_sort_3IR23CompareReflectionProbesP31RuntimeReflectionProbeBlendInfoEEvT0_S5_T_
NIb:__ZN12NativeBufferI27Converter_SimpleNativeClassI8GradientEE15SetupForWritingER9ArrayInfo
FCh:_Kernel_RightShift_m2207393597
$ra:__ZNSt3__213__stable_sortIRNS_4lessIN4core12basic_stringIcNS2_20StringStorageDefaultIcEEEEEENS_11__wrap_iterIPS6_EEEEvT0_SC_T_NS_15iterator_traitsISC_E15difference_typeEPNSF_10value_typeEi
omk:__ZL48Shadow_t773074319_CustomAttributesCacheGeneratorP21CustomAttributesCache
Vja:__ZN12_GLOBAL__N_113StaticDestroyEPv
uRm:_glTexParameteriv__wrapper
RTm:_glUnmapBuffer__wrapper
iRc:__ZN8JSONRead21TransferSTLStyleArrayINSt3__26vectorI8Gradient13stl_allocatorIS3_L18MemLabelIdentifier1ELi16EEEEEEvRT_17TransferMetaFlags
Fsb:__ZNSt3__218__insertion_sort_3IRNS_6__lessINS_4pairIPKN5Unity4TypeE7Hash128EES8_EEPS8_EEvT0_SC_T_
snh:_InputField_set_onValueChanged_m3658917578
W7c:__Z9UpdateTplIL22MinMaxGradientEvalMode0EL12GradientMode0ELS1_1EEvRK23ParticleSystemParticlesP11ColorRGBA32RK14MinMaxGradientRK23OptimizedMinMaxGradientRK8Vector2f
vKb:__ZN10RectOffset8TransferI24GenerateTypeTreeTransferEEvRT_
mog:_BinaryReader__ctor_m2266204403
TIg:__ZN21InterfaceFuncInvoker5IiP22ByteU5BU5D_t4116647657iiS1_iE6InvokeEjP11Il2CppClassP12Il2CppObjectS1_iiS1_i
dnd:__ZNK10Collider2D15GetAttachedBodyEv
B8i:_Enumerator_VerifyState_m3047769867_AdjustorThunk
HJb:__Z18Transfer_BlittableI24GenerateTypeTreeTransferLb1E5RectTIiEEvRK29SerializationCommandArgumentsR31RuntimeSerializationCommandInfo
h2a:__ZNSt3__24listI4PPtrI6CameraENS_9allocatorIS3_EEE6removeERKS3_
Lif:__ZN2UI13CanvasManager19RemoveDirtyRendererEPNS_6CanvasEPNS_14CanvasRendererE
w0d:__ZN5physx7NpShape18setQueryFilterDataERKNS_12PxFilterDataE
wDm:_isspace
Bjh:_BinaryFormatter__ctor_m2620705134
I2c:__ZN14MinMaxGradient5ResetE26ParticleSystemGradientMode
fqf:__ZN11UnityEngine15PlatformWrapper25GetGraphicsRendererStringEv
dEe:__ZN5physx20PxcNpCacheStreamPair5resetEv
X4:__ZN11UnityEngine15CloudWebService17WebFileDownloaderINS0_20WebRequestRestClientENS0_23WebRequestRestHeaderMapEED2Ev
xc:invoke_vi
Pkd:__ZNSt3__26vectorINS0_IN10ClipperLib8IntPointENS_9allocatorIS2_EEEENS3_IS5_EEE7reserveEj
aTc:__ZN14ParticleSystem17RemoveFromManagerEv
ROc:__ZN9JSONWrite8TransferI13dynamic_arrayI9BoundsIntLj4EEEEvRT_PKc17TransferMetaFlags
vc:invoke_vd
Ob:invoke_vf
Qml:_Regex_get_RightToLeft_m2317867572
$ea:__ZNK10GameObject8IsActiveEv
Czc:__Z34Component_Get_Custom_PropTransformP12Il2CppObject
u2c:__ZN21InheritVelocityModule5ResetEv
Ohi:_Color32_ToString_m403383053
zOa:__ZN18GfxFramebufferGLES23SetupDefaultFramebufferEPP17RenderSurfaceBaseS2_N2gl6HandleILNS3_10ObjectTypeE9EEE
Ael:_WaterHoseParticles__ctor_m1246561313
xTl:_MainModule_get_startSizeMultiplier_m1188945012
sMd:__ZN5physx2Sq16computeWorldAABBERKNS_3Scb5ShapeERKNS1_5ActorE
eGf:_DefaultControls_CreateDropdown_m3286664171
ajb:__ZN13ScreenManager18RequestOrientationE17ScreenOrientation
jVl:__ZN6il2cpp2vm5Class12SetupMethodsEP11Il2CppClass
zye:__ZN5physx14PxsAABBManager31updateAggregateBPOverlapRecordsEv
fwc:__Z39DeleteLastPathNameComponentWithAnySlashRKN4core12basic_stringIcNS_20StringStorageDefaultIcEEEE
oIc:__ZN10GUIManager14InitGUIManagerEv
DTi:_UInt16_Equals_m642257745
e3f:_Array_System_Collections_IList_IndexOf_m3301661616
QMf:_AssemblyFileVersionAttribute__ctor_m3720707642
PZf:_RuntimeResourceSet_CloneDisposableObjectIfPossible_m2725520898
bic:__Z18GetApplicationInfov
xKc:__Z37Register_UnityEngine_GUIStyle_Cleanupv
ab:invoke_iiifii
Qxh:_SliderEvent__ctor_m3149452941
cFc:__Z39Register_UnityEngine_Time_set_timeScalev
iSi:_Type_IsAssignableFrom_m3195021585
OIf:_Graphic_OnDisable_m1097930217
b2l:__ZN6il2cpp6icalls8mscorlib6System8MonoType13IsPointerImplEP20Il2CppReflectionType
TYc:__Z15GetPositionMeshIL20MeshDistributionMode0ELb0E11ColorRGBA32EvRN4math8floatNx3ES4_RNS2_4pix4ERK13dynamic_arrayIS1_Lj4EERK14StrideIteratorI8Vector3fESF_RKSB_IT1_ERKS7_I16MeshTriangleDataLj4EERKS7_I11MeshAreaLUTLj4EERKfRKiST_R5RandNP12SkinMeshInfo
Kj:_emscripten_glFramebufferRenderbuffer
f8b:__ZN19CullingGroupManager17CullAndSendEventsERK22SceneCullingParametersiRK13CullingOutputRK8JobFence
U0a:__ZN9Transform30EnsureTransformHierarchyExistsEv
zRi:_Type_FilterName_impl_m2651733559
mne:__ZN5physx2Sc14ConstraintCore15getPxConstraintEv
yRe:__ZNK8Collider12GetRigidbodyEv
xp:FUNCTION_TABLE_viiiiiiii
tyc:__Z46Register_UnityEngine_Application_get_isPlayingv
wh:___cxa_find_matching_catch_4
xdc:__ZNSt3__26vectorINS_4pairIN4core12basic_stringIcNS2_20StringStorageDefaultIcEEEEPK17MessageIdentifierEENS_9allocatorISA_EEE12__move_rangeEPSA_SE_SE_
WSc:__ZThn32_N22ParticleSystemRendererD1Ev
G1b:__ZN14qsort_internal17MedianOfThreeSwapIP17RODataReplacement19ROSorterReplacementEEvT_S4_S4_T0_
RZh:_String_Split_m3646115398
C2c:__ZN15CollisionModule5ResetEv
yti:_RectOffset_ToString_m2007443979
$Tl:__ZNK15dense_hashtableINSt3__24pairIK10KeyWrapperIPK22Il2CppGenericParameterEP11Il2CppClassEES6_N6il2cpp5utils11PointerHashIS4_EEN14dense_hash_mapIS6_S9_SE_NS6_14EqualsComparerINS0_8equal_toIS5_EEEENS0_9allocatorISA_EEE9SelectKeyESJ_SL_E3endEv
$vc:__ZN17TransformInternal36OnScaleChangedCalculateTransformTypeE15TransformAccess
XYa:__ZN17ArchiveFileSystem10ToAbsoluteEPKc
Ezl:_GUILayoutGroup_CalcHeight_m1669391299
Tqf:__ZN19UnityConnectService15GetPlayerUserIdEv
nGi:_Array_InternalArray__IndexOf_TisSByte_t1669577662_m4156538463_gshared
aw:__ZN7mecanim6CRCKeyENS_7eStringE
Urc:__ZL12SetPrefValueRKN4core12basic_stringIcNS_20StringStorageDefaultIcEEEERK9PrefValue
Jlb:__ZN19ShaderPropertySheet20ReservePropertyCountEj
dtm:__ZN6il2cpp5utils11StringUtils6PrintfEPKcz
Yem:__ZNSt3__26vectorIN6il2cpp8metadata18GenericArrayMethodENS_9allocatorIS3_EEE7reserveEj
mya:__ZN15NameToObjectMapI6ShaderNSt3__23mapI4PPtrIS0_EN4core12basic_stringIcNS5_20StringStorageDefaultIcEEEENS1_4lessIS4_EENS1_9allocatorINS1_4pairIKS4_S9_EEEEEENS1_8multimapIS9_S4_NSA_IS9_EENSC_INSD_IKS9_S4_EEEEEEE4FindERSK_
Oeb:__ZN24GenerateTypeTreeTransfer21TransferResourceImageE19ActiveResourceImagePKcR13StreamingInfoPvjiPKN5Unity4TypeE
iuk:_Array_Sort_TisVector3_t3722313464_m1030213405_gshared
xUc:__ZN13InitialModule18GenerateProceduralERK27ParticleSystemReadOnlyStateR23ParticleSystemParticlesRK10Matrix4x4fRK8Vector3fRK24ParticleSystemEmitReplayRj
yom:__ZN6il2cpp2vm6Object5CloneEP12Il2CppObject
I1c:__ZN11ColorModule8TransferI19StreamedBinaryWriteILb0EEEEvRT_
bYe:__ZN5physx6shdfnd8PoolBaseINS_24NpPtrTableStorageManager8PtrBlockILi16EEENS0_19ReflectionAllocatorIS4_EEED2Ev
QAm:__ZN6il2cpp6icalls8mscorlib6System9Threading5Mutex20CreateMutex_internalEbP12Il2CppStringPb
lTm:_emscripten_glLinkProgram__wrapper
eVl:__ZN6il2cpp2vm5Class12GetFinalizerEP11Il2CppClass
kii:_Coroutine_Finalize_m1957108547
EAl:_KeyBuilder_Key_m2503211157
h8a:__ZNSt3__212__deque_baseI18ReflectionProbeJobNS_9allocatorIS1_EEED2Ev
bK:__ZN11UnityEngine9Animation27DestroyAnimationSetBindingsEPNS0_20AnimationSetBindingsERN7mecanim6memory9AllocatorE
Xta:__ZN15dense_hashtableINSt3__24pairIKiN4core17string_with_labelILi1EEEEEi18SInt32HashFunctionN14dense_hash_mapIiS5_S7_NS0_8equal_toIiEE13stl_allocatorIS6_L18MemLabelIdentifier1ELi16EEE9SelectKeyESA_SD_E13set_empty_keyERKS6_
PWd:__ZN5physx2Sc9ShapeCore23setSimulationFilterDataERKNS_12PxFilterDataE
Vhi:_Component_GetComponentInChildren_m388868270
e6i:_GenericEqualityComparer_1_Equals_m1705889345_gshared
tP:__ZN8Animator12CleanupClassEv
gRc:__Z13TransferFieldI8JSONReadLb0E27Converter_SimpleNativeClassI10RectOffsetEEvRK23StaticTransferFieldInfoR31RuntimeSerializationCommandInfoRT1_
uJh:_FtpWebRequest__cctor_m699542155
_lm:__GLOBAL__sub_I_GenericMetadata_cpp
mXe:__ZN5physx7profile12MemoryBufferINS0_21WrapperNamedAllocatorEE5writeIyEEvRKT_
tIh:_NameObjectCollectionBase_GetEnumerator_m3677320185
obb:__ZN10GUIElement12AddToManagerEv
V8b:__Z24CalculateSpotLightBoundsffRK10Matrix4x4fR15SpotLightBounds
eZi:_Dictionary_2_TryGetValue_m3495031886_gshared
e1:__ZN23CloudWebServicesManager23VirtualRedirectTransferER14SafeBinaryRead
vHh:_PKCS12_AddCertificate_m3857004455
DXc:__ZNK11NoiseModule14CalculateNoiseILi3ELb1ELb0EEEvR23ParticleSystemParticlesRK27ParticleSystemReadOnlyStatejjRKN4math7_float4E
Xjh:_WellKnownClientTypeEntry_ToString_m1119458503
hUb:__Z19ShouldTransferFieldR32SerializationCommandQueueBuilder17ScriptingClassPtriR18TransferField_InfoRK20CoreScriptingClasses
hXh:_SecurityElement_IsValidText_m1346599242
wTa:__ZN26SinglePassStereoSupportExt21SetStereoMatrixCommonE21MonoOrStereoscopicEye24BuiltinShaderMatrixParamRK10Matrix4x4f
kW:__ZN5audio5mixer22UpdateAudioMixerMemoryERKNS0_18AudioMixerConstantERNS0_16AudioMixerMemoryEfPN4FMOD6SystemEf
m1e:__ZL21InitializeCachedStripPv
xZi:_Dictionary_2_System_Collections_Generic_ICollectionU3CSystem_Collections_Generic_KeyValuePairU3CTKeyU2CTValueU3EU3E_Add_m3652125112_gshared
khm:__ZN6il2cpp6icalls8mscorlib6System9Threading6Thread23GetCachedCurrentCultureEP12Il2CppThread
f2c:__ZN25IParticleSystemProperties8PropertyI8Vector3fNS_3MinILi0EEEE8TransferI19StreamedBinaryWriteILb0EEEEvRT_PKc
S7:__ZNK6Camera22GetWorldToCameraMatrixEv
MHm:runPostSets
Oom:__ZN6il2cpp2vm12GenericClass11IsValueTypeEP18Il2CppGenericClass
cTb:__ZN13MonoBehaviour7SetNameEPKc
dhh:_MethodDictionary_IsOverridenKey_m946843558
gqe:__ZN5physx6shdfnd8PoolBaseINS_2Sc26ActorPairContactReportDataENS0_19ReflectionAllocatorIS3_EEE15disposeElementsEv
Mwl:_U3CStartU3Ec__Iterator0_MoveNext_m4270440387_gshared
WYl:__ZN10KeyWrapperIN6il2cpp5utils13dynamic_arrayIPK10Il2CppTypeLj4EEEEC2ERKS7_
ZXb:__ZN17InstancingBatcher22FindCBUpperBoundKonstsEv
Hja:__GLOBAL__sub_I_runtime_shaders_shaderimpl_0_cpp
bwb:__ZN18AwakeFromLoadQueue5ClearEv
Yqg:_FileStream_SetLength_m99749826
eLe:__ZN5physx6shdfnd5ArrayIfNS0_19ReflectionAllocatorIfEEE8recreateEj
w7b:__ZNSt3__27__sort5IR15ReflProbeSorterPP15ReflectionProbeEEjT0_S6_S6_S6_S6_T_
eqa:__ZN8Playable10DisconnectEPS_i
pl:_glGenTransformFeedbacks
MXa:__ZN13LoadOperationD2Ev
Nue:__ZN5physx20PxsSolverCoreGeneral6createEv
d5c:__ZN29TriggerModulePropertyBindings13AddPropertiesER10vector_mapIi22ParticleModulePropertyNSt3__24lessIiEENS2_9allocatorINS2_4pairIiS1_EEEEE
sSi:_Type_GetProperty_m4206634422
sId:__ZL29GeomOverlapCallback_SphereBoxRKN5physx10PxGeometryERKNS_11PxTransformES2_S5_PNS_2Gu12TriggerCacheE
t9k:_List_1_CheckIndex_m3933537097_gshared
L$h:_ASCIIEncoding_GetBytes_m2264249800
xdb:__ZNSt3__27__sort5IRPFbRKNS_4pairIN9ShaderLab16FastPropertyNameEN18UnityPropertySheet11UnityTexEnvEEES8_EPS6_EEjT0_SD_SD_SD_SD_T_
WSe:__ZN9Rigidbody6WakeUpEv
MGa:__ZNK7ApiGLES18GetExtensionStringEv
V8k:_List_1_System_Collections_IList_IndexOf_m2444653486_gshared
KOm:_emscripten_glVertexAttrib1f__wrapper
hAb:__ZNK12HandlerChain4SizeERK13FileEntryData
Lq:FUNCTION_TABLE_iiiiiiiii
D2d:__ZN5physx7NpCloth15setInertiaScaleEf
hOk:_ReadOnlyCollection_1_System_Collections_Generic_ICollectionU3CTU3E_Remove_m4177779688_gshared
Rbd:__Z22GetPhysicsGroundBody2Dv
R8f:_Char_IsLetter_m3996985877
Fyk:_Queue_1_Peek_m2302800625_gshared
$ze:__ZN5physx20PxcContactCapsuleBoxERKNS_2Gu13GeometryUnionES3_RKNS_11PxTransformES6_RKfRNS_10PxcNpCacheERNS0_13ContactBufferE
rOe:__ZN5physx6shdfnd4sortIPvNS0_4LessIS2_EENS0_19ReflectionAllocatorIN17PxcPoolMallocData10PoolData16EEEEEvPT_jRKT0_RKT1_j
qud:__Z19sweepBox_SphereGeomRKN5physx10PxGeometryERKNS_11PxTransformERKNS_2Gu3BoxERKNS_6PxVec3EfRNS_10PxSweepHitENS_7PxFlagsINS_9PxHitFlag4EnumEtEEf
Pvm:_GC_allochblk
lwb:__Z15UnloadGameScenev
dJi:_Array_InternalArray__ICollection_CopyTo_TisKeyframe_t4206410242_m2132255743_gshared
MTm:_glCheckFramebufferStatus__wrapper
kMe:__ZNK5physx13GuMeshFactory15getHeightFieldsEPPNS_13PxHeightFieldEjj
hvb:__ZNSt3__26vectorIN30RuntimeInitializeOnLoadManager15ClassMethodInfoE13stl_allocatorIS2_L18MemLabelIdentifier13ELi16EEE7reserveEj
QXi:_Dictionary_2_System_Collections_ICollection_CopyTo_m3143696177_gshared
x6l:__ZN15dense_hashtableINSt3__24pairIK10KeyWrapperIPK10Il2CppTypeEjEES6_N6il2cpp8metadata14Il2CppTypeHashEN14dense_hash_mapIS6_jSB_NS6_14EqualsComparerINSA_26Il2CppTypeEqualityComparerEEENS0_9allocatorIS8_EEE9SelectKeyESF_SH_E3endEv
Wcj:__Z103RuntimeInvoker_Void_t1185182177_Int32_t2950945753_Int32_t2950945753_Int32_t2950945753_SByte_t1669577662PFvvEPK10MethodInfoPvPS4_
xfe:__ZN5physx2Cm20visualizeJointFramesERNS0_12RenderOutputEfRKNS_11PxTransformES5_
Xze:__ZN5physx22PxcContactPlaneCapsuleERKNS_2Gu13GeometryUnionES3_RKNS_11PxTransformES6_RKfRNS_10PxcNpCacheERNS0_13ContactBufferE
LGc:__Z36Renderer_Get_Custom_PropSortingOrderP12Il2CppObject
sui:_Renderer_get_enabled_m3482452518
C6l:__ZNK15dense_hashtableINSt3__24pairIK10KeyWrapperIPK10Il2CppTypeEjEES6_N6il2cpp8metadata14Il2CppTypeHashEN14dense_hash_mapIS6_jSB_NS6_14EqualsComparerINSA_26Il2CppTypeEqualityComparerEEENS0_9allocatorIS8_EEE9SelectKeyESF_SH_E13find_positionERS7_
Llb:__ZN8Material10SetTextureEN9ShaderLab16FastPropertyNameEP7Texture
$Ag:_DESTransform_BSwap_m2723001589
Qfd:__ZNK14b2CapsuleShape7RayCastEP15b2RayCastOutputRK14b2RayCastInputRK11b2Transformi
$dh:_Context_get_HasDynamicSinks_m3952434387
vLi:_Latin1Encoding_GetByteCount_m1145650505
YIb:__Z18Transfer_BlittableI24GenerateTypeTreeTransferLb1EhEvRK29SerializationCommandArgumentsR31RuntimeSerializationCommandInfo
SPb:__Z13TransferFieldI18StreamedBinaryReadILb1EELb0E16Converter_StringEvRK23StaticTransferFieldInfoR31RuntimeSerializationCommandInfoRT1_
WAd:__ZN5physx3Cct17CapsuleController9setRadiusEf
byc:__ZNK16TypeTreeIterator10ByteOffsetEv
kJm:dynCall_iiifii
apa:__ZnwjRKSt9nothrow_t
lN:__ZN8Animator11ClearObjectEv
AUk:_Nullable_1_GetHashCode_m4232053575_gshared
nUe:__ZN9Rigidbody17MainThreadCleanupEv
z2f:_ApplicationException__ctor_m2557611022
qcb:__ZN14SafeBinaryRead19TransferSTLStyleMapINSt3__23mapI39DeprecatedFastPropertyNameSerializationN18UnityPropertySheet11UnityTexEnvENS1_4lessIS3_EENS1_9allocatorINS1_4pairIKS3_S5_EEEEEEEEvRT_17TransferMetaFlags
x6k:_List_1_CheckMatch_m579516778_gshared
P6f:_Buffer_ByteLengthInternal_m1388208719
p$d:__ZN5physx9NpPhysics26unregisterDeletionListenerERNS_18PxDeletionListenerE
Xxc:__Z35UnregisterSerializationCacheBuilderPFv17ScriptingClassPtrR23CachedSerializationDataRbE
$wm:_GC_reclaim_uninit
bng:_Int64_System_IConvertible_ToUInt32_m109903525_AdjustorThunk
Jfa:__Z30GetBuiltinVectorParamArraySize24BuiltinShaderVectorParam
lJi:_Array_InternalArray__ICollection_CopyTo_TisUICharInfo_t75501106_m4268526610_gshared
J9a:__ZN13RenderTextureC2E10MemLabelId18ObjectCreationMode
$jg:_Int32_GetFormatException_m519586683
RRj:__ZL46StringBuilder_t_CustomAttributesCacheGeneratorP21CustomAttributesCache
c8i:_Enumerator_MoveNext_m1131351993_gshared
fMf:_RankException__ctor_m2226473861
rxk:_Array_InternalArray__get_Item_TisVector2_t2156229523_m2502961026_gshared
hia:__ZN21RendererUpdateManager11AddRendererER8Renderer
Ric:__Z13RegisterClassI15ResourceManagerEvv
TTd:__ZNK5physx18NpArticulationLink15getArticulationEv
RFl:_AudioConfigurationChangeHandler_Invoke_m1233557945
PDb:__Z35Transfer_Blittable_FixedBufferFieldI14SafeBinaryReadsEvRK29SerializationCommandArgumentsR31RuntimeSerializationCommandInfo
Mmb:__ZN14SafeBinaryRead21TransferSTLStyleArrayI13dynamic_arrayIfLj4EEEEvRT_17TransferMetaFlags
Dgg:_Convert_ToDateTime_m3802186295
etm:__ZN6il2cpp5utils11StringUtils11Utf16ToUtf8EPKDs
Mub:__ZN18StreamedBinaryReadILb0EE21TransferSTLStyleArrayINSt3__26vectorIN15ResourceManager10DependencyE13stl_allocatorIS5_L18MemLabelIdentifier52ELi16EEEEEEvRT_17TransferMetaFlags
wVi:_UInt64_CompareTo_m1614517204_AdjustorThunk
wqf:__ZN11UnityEngine15PlatformWrapper20IsRootedOrJailbrokenEv
D_b:__ZZ23InitPlayerLoopCallbacksvEN52PreLateUpdateScriptRunBehaviourLateUpdateRegistrator7ForwardEv
Q8b:__Z33IntersectAABBPlaneBoundsOptimizedRK4AABBPKN4math7_float4Ei
l3h:_DateTimeFormatInfo_FillAllDateTimePatterns_m2683124783
KBa:__ZN9GfxDevice19EndGeometryJobFrameEv
Ayl:_GUILayoutUtility_Layout_m1159951704
Bmh:_InputField_get_shouldActivateOnSelect_m3055465770
SIb:__ZN27Converter_SimpleNativeClassI17AnimationCurveTplIfEE17ScriptingToNativeER18ScriptingObjectPtrPS1_
ZEd:__ZThn12_N5physx3Ext5JointINS_15PxDistanceJointENS_30PxDistanceJointGeneratedValuesEE11prepareDataEv
yRi:_Type__cctor_m2371893800
uUd:__ZN5physx2Sc15CoreInteraction17isCoreInteractionEPNS0_11InteractionE
BBm:__ZN6il2cpp8metadata24Il2CppGenericInstCompare7CompareERK10KeyWrapperIPK17Il2CppGenericInstES8_
fXe:__ZThn132_N5physx7profile8ZoneImplINS_28PxProfileNameProviderForwardEED0Ev
Cpd:__ZN5physx3Cct13BoxController17setHalfSideExtentEf
xXl:__ZNK15dense_hashtableINSt3__24pairIK10KeyWrapperIPK19Il2CppGenericMethodEPK26Il2CppGenericMethodIndicesEES6_N6il2cpp8metadata23Il2CppGenericMethodHashEN14dense_hash_mapIS6_SA_SE_NS6_14EqualsComparerINSD_26Il2CppGenericMethodCompareEEENS0_9allocatorISB_EEE9SelectKeyESI_SK_E5beginEv
qyf:_ExecuteEvents_Execute_m3049310229
WD:__ZN27AnimationLayerMixerPlayable21UpdateLayerParametersEv
Tyc:__Z33Camera_Set_Custom_PropFieldOfViewP12Il2CppObjectf
m_c:__ZN21InheritVelocityModule8TransferI14SafeBinaryReadEEvRT_
rgc:__ZNK17AnimationCurveTplIfE8EvaluateEfPNS0_5CacheE
HZb:__Z31ManagerContextInitializeClassesv
qOk:_ReadOnlyCollection_1_System_Collections_IList_Contains_m2650112051_gshared
qAi:_Array_get_swapper_TisVector3_t3722313464_m1221246401_gshared
A9e:_UNITY_FT_List_Finalize
J2b:__Z20LightAttenuateApproxRKfS0_
_ia:__ZN9Scripting30SetCachedPtrOnScriptingWrapperE18ScriptingObjectPtrP6Object
k9h:_Double_ToString_m1229922074_AdjustorThunk
VQh:_RepeatContext_get_IsMinimum_m3640286252
Gdd:__ZN16b2PrismaticJoint4DumpEv
Olh:_ObjectRecord_ChainFixup_m1889316362
Mv:__ZN7mecanim9animation21BlendTreeNodeConstant8TransferI19StreamedBinaryWriteILb0EEEEvRT_
C4a:__ZN18BlockRangeInternal16PopLastNodeIndexEP10BlockRangeji
zum:__ZN6il2cpp2vm13CachedCCWBaseINS0_13ManagedObjectEE6AddRefEv
d3d:__ZN5physx7NpCloth19setCollisionSpheresEPKNS_22PxClothCollisionSphereEj
FBf:_TouchInputModule_UpdateModule_m2582897964
gmb:__ZN4MeshD0Ev
Ivf:__ZL42RequestRecreateEyeTexturesBeforeNextUpdatev
qQa:__ZNK6Camera20IsCurrentlyRenderingEv
JF:__ZN21AnimationClipPlayable23ProcessRootMotionNoClipEPK35AnimationPlayableEvaluationConstantPK32AnimationPlayableEvaluationInputP33AnimationPlayableEvaluationOutput
ylf:__Z36CanvasRenderer_CUSTOM_SetPopMaterialP12Il2CppObjectS0_i
JNc:__Z18Transfer_BlittableI9JSONWriteLb0EdEvRK29SerializationCommandArgumentsR31RuntimeSerializationCommandInfo
a6e:_otv_u_O_O_u_O_O
bdd:__ZNK11b2GearJoint16GetReactionForceEf
U4h:_DBNull_System_IConvertible_ToSByte_m3533624679
Iu:__ZN15SerializeTraitsI9OffsetPtrIN7mecanim9animation17BlendTreeConstantEEE8TransferI24GenerateTypeTreeTransferEEvRS4_RT_
RDm:_wctomb
H8f:_Char_CompareTo_m42489266
Syj:__Z67RuntimeInvoker_Void_t1185182177_Int32_t2950945753_Double_t594665363PFvvEPK10MethodInfoPvPS4_
gzc:__Z27Camera_CUSTOM_GetAllCamerasP11Il2CppArray
a1c:__ZN11ForceModule8TransferI18StreamedBinaryReadILb0EEEEvRT_
Od:___cxa_rethrow
fNe:__ZN5physx20InternalTriangleMesh17allocateFaceRemapEv
nYf:_ParameterInfo_GetCustomAttributes_m2376494592
mPc:__Z18Transfer_BlittableI8JSONReadLb1EhEvRK29SerializationCommandArgumentsR31RuntimeSerializationCommandInfo
GIf:_Graphic_get_canvasRenderer_m315509948
JDk:_Collection_1_System_Collections_IList_Contains_m3397768605_gshared
Qoj:__Z90RuntimeInvoker_Void_t1185182177_Int64_t3736567304_Int32_t2950945753_RuntimeObject_IntPtr_tPFvvEPK10MethodInfoPvPS4_
Qhd:__ZN18Overlap2DQueryBase13ReportFixtureEP9b2Fixture
Lci:_CultureInfo_construct_internal_locale_from_name_m3254739477
TNg:_RSASslSignatureDeformatter_VerifySignature_m1061897602
Kbc:__ZN13MonoBehaviour8SetClassE17ScriptingClassPtr18ScriptingObjectPtr
Mie:__ZNK5physx7NpScene26getBounceThresholdVelocityEv
kpe:__ZN5physx6shdfnd8PoolBaseINS_2Sc12SimStateDataENS0_19ReflectionAllocatorIS3_EEE15disposeElementsEv
SJi:_Array_InternalArray__Insert_TisLabelFixup_t858502054_m171542753_gshared
X$g:_InternalEnumerator_1_System_Collections_IEnumerator_get_Current_m3539708496_AdjustorThunk
XAb:__ZN20LocalFileSystemPosix4ReadER13FileEntryDatayyPvPy
f6b:__ZNSt3__211__sift_downIRN23ForwardShaderRenderLoop18RenderObjectSorterILb0EEEP21ForwardRenderPassDataEEvT0_S7_T_NS_15iterator_traitsIS7_E15difference_typeES7_
UVh:_SecurityPermission__ctor_m1462427327
hLm:dynCall_iiiiiiffiiiiiiiiiffffiiii
sTb:__ZN13MonoBehaviour5DoGUIENS_13GUILayoutTypeEii
Fbh:_ChannelData_get_ClientProviders_m594662942
fol:_QuickSearch_GetChar_m1297698557
CWa:__ZNK12TLSAllocatorI14StackAllocatorE8ContainsEPKv
ksb:__ZN11TimeManager8TransferI18StreamedBinaryReadILb0EEEEvRT_
YMe:__ZNK5physx13GuMeshFactory19getNbTriangleMeshesEv
m9i:__Z68RuntimeInvoker_Boolean_t97287965_Int16_t2552820387_SByte_t1669577662PFvvEPK10MethodInfoPvPS4_
r3h:_DateTime__ParseEnum_m253019513
aTl:_EmissionModule_set_enabled_m353945573_AdjustorThunk
Jig:_Convert_ToUInt32_m2194577773
tmb:__ZN14BlendShapeData8TransferI14SafeBinaryReadEEvRT_
Rud:__ZN5physx2Gu15getPolygonIndexERKNS0_13PolygonalDataEPNS0_12SupportLocalERKNS_6shdfnd3aos5Vec3VE
wia:__ZN15dense_hashtableINSt3__24pairIKyP17VertexDeclarationEEy14GfxGenericHashIyEN14GfxDoubleCacheIyS4_S7_NS0_8equal_toIyEEN31GfxDoubleCacheConcurrencyPolicy11LocklessGetE42GfxDoubleCacheDefaultEmptyDeletedGeneratorIyEE9SelectKeyESA_13stl_allocatorIS5_L18MemLabelIdentifier24ELi16EEE12resize_deltaEjj
Idg:_Hashtable_Remove_m4032631466
xEh:_DSAManaged_GenerateKeyPair_m2236915969
dGe:__ZN5physx36normalizePartitionsWithArticulationsERNS_6shdfnd5ArrayIjNS0_19ReflectionAllocatorIjEEEEPNS_23PxcSolverConstraintDescEPKNS_13PxcSolverBodyEjjS5_Pjj
Aeb:__ZN7Texture25ReloadFromStorageIfNeededEPvb
JFi:_Array_InternalArray__IndexOf_TisBoolean_t97287965_m1161209222_gshared
CTd:__ZN5physx18NpArticulationLink17setLinearVelocityERKNS_6PxVec3Eb
sAm:__ZN6il2cpp2os12Cryptography24OpenCryptographyProviderEv
fme:__ZN5physx2Sq17SceneQueryManager17processSimUpdatesEv
nbg:_SynchronizedArrayListWrapper_Clear_m2191301493
Caf:_Update_Max
VOk:_ReadOnlyCollection_1_System_Collections_IList_IndexOf_m365681831_gshared
ygm:__ZN6il2cpp6icalls8mscorlib6SystemL15ThrowNoWideningEv
OPd:__ZN5physx6shdfnd5ArrayIPvNS0_19ReflectionAllocatorINS_13NpRigidStaticEEEE15growAndPushBackERKS2_
Cgc:__ZNK23TransformChangeDispatch24GetChangeMaskForInterestENS_12InterestTypeE
FDc:__Z34Scene_CUSTOM_GetBuildIndexInternali
fYc:__Z14UpdateSpeedTplIL27ParticleSystemCurveEvalMode4EEvRK11MinMaxCurveR23ParticleSystemParticlesjj
vFc:__Z45Transform_CUSTOM_INTERNAL_CALL_TransformPointP12Il2CppObjectRK8Vector3fRS1_
mle:__ZN5physx10PxsContext25setVisualizationParameterENS_24PxVisualizationParameter4EnumEf
GRf:_GenericTypeParameterBuilder_InvokeMember_m1647304778
Rfc:__ZL10KeyHandleriPK23EmscriptenKeyboardEventPv
Hcb:__ZNSt3__26__treeINS_12__value_typeI39DeprecatedFastPropertyNameSerializationfEENS_19__map_value_compareIS2_S3_NS_4lessIS2_EELb1EEENS_9allocatorIS3_EEE7destroyEPNS_11__tree_nodeIS3_PvEE
Iud:__ZN24ConvexVsHeightfieldSweepC2ERN5physx2Gu15HeightFieldUtilERKNS1_14ConvexHullDataERKNS0_11PxMeshScaleERKNS0_11PxTransformESC_RKNS0_6PxVec3EfNS0_7PxFlagsINS0_9PxHitFlag4EnumEtEEfbb
w8e:_tt_cmap4_char_index
mCf:_AspectRatioFitter_GetParentSize_m3159144324
Ycl:_MobileInput_GetAxis_m3108625178
cYh:_SecurityFrame_get_Assembly_m2874566710
eyk:_Enumerator_System_Collections_IEnumerator_Reset_m1487823313_gshared
rAb:__ZNK12HandlerChain8IsHiddenERK13FileEntryData
gIb:__ZL26Transfer_SimpleNativeClassI17RemapPPtrTransfer10RectOffsetLb0EEvRK29SerializationCommandArgumentsR31RuntimeSerializationCommandInfo
wff:__Z14ValidateFormatR13dynamic_arrayIN20TextRenderingPrivate16TextFormatChangeELj4EE
pB:__ZNSt3__26vectorIN13AnimationClip15QuaternionCurveE13stl_allocatorIS2_L18MemLabelIdentifier26ELi16EEE6assignINS_11__wrap_iterIPS2_EEEENS_9enable_ifIXaasr21__is_forward_iteratorIT_EE5valuesr16is_constructibleIS2_NS_15iterator_traitsISC_E9referenceEEE5valueEvE4typeESC_SC_
Amg:_Int32_ToString_m2507389746_AdjustorThunk
b7h:_Decimal_op_Explicit_m438967917
Anj:__Z154RuntimeInvoker_Vector3_t3722313464_Vector3_t3722313464_Vector3_t3722313464_Vector3U26_t3464235976_Single_t1397266774_Single_t1397266774_Single_t1397266774PFvvEPK10MethodInfoPvPS4_
fhb:__ZN21EnlightenSceneMapping16BuildRemapTablesEv
pva:__ZNSt3__26vectorIN9ShaderLab20SerializedSubProgram13BufferBindingENS_9allocatorIS3_EEEC2ERKS6_
mnh:_InputField_set_selectionColor_m2084640295
kad:__Z70Register_UnityEngine_ParticleSystem_MainModule_GetStartSizeXMultiplierv
Ffa:__ZNK9ShaderLab20ShaderBlendStateDesc15ToGfxBlendStateEPK19ShaderPropertySheetS3_R13GfxBlendState
X5g:_Enumerator_System_Collections_IEnumerator_get_Current_m1747693366_AdjustorThunk
HJ:__ZN11UnityEngine9AnimationL22GenericBindingCallbackEPvS1_i
haf:_Compute_Point_Displacement
Qza:__ZN9ShaderLab9IntShaderC2Ev
i2l:__ZN6il2cpp6icalls8mscorlib6SystemL9IsPrivateEPK9EventInfo
jAm:__ZN6il2cpp6icalls8mscorlib6System10Reflection4Emit11TypeBuilder20setup_internal_classEP27Il2CppReflectionTypeBuilderS7_
hPe:__ZN5physx11AdjacenciesD2Ev
Ofe:__ZN5physx6shdfnd8PoolBaseINS_2Sc24ElementInteractionMarkerENS0_19ReflectionAllocatorIS3_EEE12allocateSlabEv
Mqe:__ZN5physx2Sq16BucketPrunerCore11shiftOriginERKNS_6PxVec3E
gGi:_Array_InternalArray__IndexOf_TisILTokenInfo_t2325775114_m2602704009_gshared
kMi:_StringBuilder_AppendFormat_m3255666490
K$c:__ZN27ParticleSystemReadOnlyState8TransferI24GenerateTypeTreeTransferEEvRT_
LLc:__ZN5Unity9rapidjson6WriterI16TempBufferWriterNS0_4UTF8IcEES4_13JSONAllocatorE11WriteUint64Ey
vNf:_Default_GetBetterMethod_m3232777160
vUf:_TypeBuilder_GetGenericArguments_m2872156836
g2j:__ZL85Object_t631007953_CustomAttributesCacheGenerator_Object_FindObjectsOfType_m2295101757P21CustomAttributesCache
Jdd:__ZN16b2PrismaticJoint24SolveVelocityConstraintsERK12b2SolverData
Ale:__ZN5physx6shdfnd5ArrayIPNS_3Scb5ShapeENS0_19ReflectionAllocatorIS4_EEE6resizeEjRKS4_
UBd:__ZN5physx3Cct15ObstacleContextD2Ev
LTl:__ZN13Il2CppHashMapIPK22Il2CppGenericParameterP11Il2CppClassN6il2cpp5utils11PointerHashIS1_EENSt3__28equal_toIS2_EENS9_9allocatorINS9_4pairIK10KeyWrapperIS2_ES4_EEEEEC2EjRKS8_RKSB_
EQc:__ZN8JSONRead21TransferSTLStyleArrayI31ArrayOfManagedObjectsTransfererEEvRT_17TransferMetaFlags
lYa:__Z15CreateDirectoryRKN4core12basic_stringIcNS_20StringStorageDefaultIcEEEE
Y8a:__Z21CalculateGlobalMatrix23TransformAccessReadOnly
wUf:_TypeBuilder_GetGenericTypeDefinition_m1632720438
_Gi:_MonoProperty_StaticGetterAdapterFrame_TisRuntimeObject_m4131530968_gshared
FAi:_Array_InternalArray__ICollection_Contains_TisLink_t544317964_m163190451_gshared
i4h:_DateTimeOffset_System_IComparable_CompareTo_m176229495_AdjustorThunk
Vmi:_ManagedStreamHelpers_ValidateLoadFromStream_m580138133
psb:__ZNK13BuildSettings22GetTypeVirtualInternalEv
A:tempBigIntD
bTj:__ZL56AppDomainSetup_t123196401_CustomAttributesCacheGeneratorP21CustomAttributesCache
Xre:__ZN5physx2Cm10FanoutTaskC2EPKc
z7k:_List_1_CheckIndex_m2250397830_gshared
uoe:__ZNK5physx2Sc5Scene17prefetchForRemoveERKNS0_8BodyCoreE
Pic:__Z13RegisterClassI14RenderSettingsEvv
lNd:__ZN5physx2Sc8RigidSimD2Ev
PTf:_PropertyBuilder_GetSetMethod_m128670376
sRh:_Interval_get_Empty_m3617514670
CMf:_Assembly_GetName_m981771927
YH:__ZN7mecanim12statemachine24CreateStateMachineOutputEPKNS0_20StateMachineConstantEjRNS_6memory9AllocatorE
H3c:__ZN15CollisionModuleD0Ev
Oke:__ZNK5physx13NpVolumeCache7raycastERKNS_6PxVec3ES3_fRNS_13PxHitCallbackINS_12PxRaycastHitEEENS_7PxFlagsINS_9PxHitFlag4EnumEtEERKNS_17PxQueryFilterDataEPNS_21PxQueryFilterCallbackE
jCa:__ZNK9GfxDevice27GetActiveRenderSurfaceWidthEv
fgk:__ZL114StandaloneInputModule_t2760469101_CustomAttributesCacheGenerator_StandaloneInputModule_ForceAutoSelect_m2837047882P21CustomAttributesCache
rCe:__ZN5physx16PxsIslandManagerC2EjRNS_19PxcScratchAllocatorEPNS_2Cm13EventProfilerE
hqf:__ZN11UnityEngine15PlatformWrapper28GetCleanGraphicsFixedVersionEv
Nsh:_MaskableGraphic_RecalculateClipping_m1772937317
Mug:_UnmanagedMemoryStream_SetLength_m3752964620
K4l:__ZN6il2cpp2vm4Type7GetTypeEPK10Il2CppType
ETl:_MinMaxCurve_t1067599125_marshal_pinvoke_back
ize:__ZN5physx13ActorAABBTask11runInternalEv
imd:__ZN17PhysicsMaterial2D23VirtualRedirectTransferER18StreamedBinaryReadILb0EE
ihc:__ZN16SpriteRenderData28PrepareRenderingDataIfNeededEv
Jrg:_MemoryStream_SetLength_m974389318
pqb:__ZN18ProceduralMaterial17MainThreadCleanupEv
dWg:_InternalEnumerator_1_get_Current_m165106323_AdjustorThunk
D4c:__ZN14ParticleSystem18SetSimulationSpeedEf
WMi:_UTF32Encoding_GetByteCount_m3610769032
cMa:__ZN6prcoreL17RemapGenericFloatI18TexFormatRGBAFloat17TexFormatRGBAHalfEEvPKNS_9InnerInfoE
i7f:_Byte_System_IConvertible_ToInt32_m3495522413
f$b:__Z16FindCameraStacksRKNSt3__24listI4PPtrI6CameraENS_9allocatorIS3_EEEERNS_6vectorI11CameraStackNS4_ISA_EEEE
Zml:_MatchCollection_CopyTo_m3807326147
FSc:__Z43ParticleSystemRenderer_RenderMultipleMeshesIL21SpriteMaskInteraction0EEvRK15RenderNodeQueueRK18RenderMultipleData17ShaderChannelMask
Zgb:__ZN10GISettings8TransferI14SafeBinaryReadEEvRT_
Go:FUNCTION_TABLE_vifff
okk:__ZL54Text_t1901882714_CustomAttributesCacheGenerator_m_TextP21CustomAttributesCache
OCg:_MD5CryptoServiceProvider__ctor_m3271163125
Ccc:__ZN19CustomRenderTexture12ClearGPUDataEv
Z9a:__ZN13RenderTexture13ApplySettingsEv
Okh:_ObjectReader_RegisterObject_m1853376334
hTf:_ModuleBuilderTokenGenerator_GetToken_m2588853565
_5f:_Boolean_System_IConvertible_ToDecimal_m3176932461_AdjustorThunk
Pf:_JS_Sound_SetListenerPosition
yo:FUNCTION_TABLE_fiffi
ywh:_ScrollRect_OnInitializePotentialDrag_m3139711961
x2d:__ZN5physx7NpCloth21setLinearInertiaScaleENS_6PxVec3E
CQm:_glGetActiveUniform__wrapper
hyb:__ZNK8Material16MarkDependenciesER27GarbageCollectorThreadState
Xxh:_Slider_set_handleRect_m1101657556
w4h:_DateTimeOffset_ToString_m3985341516_AdjustorThunk
kUe:__ZN5Unity10FastCookerD2Ev
MNc:__ZL17Transfer_GUIStyleI9JSONWriteLb0EEvRK29SerializationCommandArgumentsR31RuntimeSerializationCommandInfo
THi:_Array_InternalArray__ICollection_Add_TisContactPoint_t3758755253_m4220022016_gshared
B3b:__Z28GetHaloVertexPositionsStereoP8Vector3fRKS_S2_f
F_e:__ZN17TriggerStayStates20executeDeferredEraseEv
TMa:__ZN6prcoreL27StretchGenericFloatBilinearI15TexFormatRGHalfEEvPKNS_9InnerInfoE
Dja:__GLOBAL__sub_I_runtime_misc_0_cpp
Tdi:_SortKey_GetHashCode_m3547067087
$Uf:_MemberInfoSerializationHolder_Serialize_m2002453739
Bye:__ZN5physx14PxsAABBManager22processAggregateSingleERKNS_19AggregateSortedDataERKNS_9AggregateEjPNS_2Cm10BitMapBaseINS_6shdfnd9AllocatorEEE
xQb:__Z18Transfer_BlittableI18StreamedBinaryReadILb0EELb1E9BoundsIntEvRK29SerializationCommandArgumentsR31RuntimeSerializationCommandInfo
kkk:__ZL71SpriteState_t1362986479_CustomAttributesCacheGenerator_m_DisabledSpriteP21CustomAttributesCache
nMh:_PublicKey_DecodeDSA_m3490622362
DDc:__Z49Register_UnityEngine_Resources_GetBuiltinResourcev
mDe:__ZN5physx2Sc17ParticleSystemSim20scheduleCollisionCpuERNS0_16InteractionSceneERKNS_6shdfnd5ArrayIPS1_NS4_19ReflectionAllocatorIS6_EEEERNS_10PxBaseTaskE
oSi:_Type_GetMethod_m1479779718
j8e:_tt_cmap10_char_index
_Pi:_WaitHandle__cctor_m4242752477
hil:_TlsException__ctor_m3242533711
GFg:_BitConverterLE_GetUIntBytes_m795219058
Geg:_SortedList__ctor_m3676552745
nUl:__ZN15dense_hashtableINSt3__24pairIK10KeyWrapperIPK22Il2CppGenericParameterEP11Il2CppClassEES6_N6il2cpp5utils11PointerHashIS4_EEN14dense_hash_mapIS6_S9_SE_NS6_14EqualsComparerINS0_8equal_toIS5_EEEENS0_9allocatorISA_EEE9SelectKeyESJ_SL_E3endEv
q$:__ZN11AudioSource24ClearExtensionPropertiesE12PropertyName
vxa:__ZN9ShaderLab22SerializedBindChannels8TransferI19StreamedBinaryWriteILb0EEEEvRT_
sGb:__ZN15SerializeTraitsI5RectTIiEE8TransferI14SafeBinaryReadEEvRS1_RT_
rJc:__ZN5IMGUI20MoveWindowFromLayoutER8GUIStateiRK5RectTIfE
yyi:_Vector2_Normalize_m1906922873_AdjustorThunk
Ecl:_VirtualButton_get_GetButtonUp_m4215024843
P4e:_UNITY_FT_Stream_ReadUShort
pBc:__Z51Register_UnityEngine_GUILayer_INTERNAL_CALL_HitTestv
Ata:__ZNSt3__26__treeINS_12__value_typeIN4core12basic_stringIcNS2_20StringStorageDefaultIcEEEES6_EENS_19__map_value_compareIS6_S7_NS_4lessIS6_EELb1EEE13stl_allocatorIS7_L18MemLabelIdentifier1ELi16EEE7destroyEPNS_11__tree_nodeIS7_PvEE
pOf:_AssemblyBuilder_get_Location_m384539722
aQl:_Rigidbody_AddExplosionForce_m1698937293
pPi:_Thread_get_ManagedThreadId_m1068113671
THa:__Z13IsDepthFormat14GraphicsFormat
Ctb:__ZN12AspectRatios8TransferI24GenerateTypeTreeTransferEEvRT_
Gwg:_MonoType_GetFields_m4176012508
Bnj:__Z73RuntimeInvoker_Single_t1397266774_Vector3_t3722313464_Vector3_t3722313464PFvvEPK10MethodInfoPvPS4_
EDd:__Z12FormatBufferPciPKcz
Vrd:__ZN37ConvexVsMeshContactGenerationCallback10processHitERKN5physx12PxRaycastHitERKNS0_6PxVec3ES6_S6_RfPKj
sFe:__ZL28removeBrokenEdgesFromIslandsPKjjS0_jS0_RKN5physx11NodeManagerERNS1_11EdgeManagerERNS1_13IslandManagerERNS1_2Cm10BitMapBaseINS1_6shdfnd9AllocatorEEEPSD_
AUl:__ZN6il2cpp2vm5Class13GetArrayClassEP11Il2CppClassj
ZAf:_StandaloneInputModule_set_inputActionsPerSecond_m4057208843
eXb:__ZN19RuntimeSceneManager18LoadSceneAsyncIntoER10UnitySceneRKN4core12basic_stringIcNS2_20StringStorageDefaultIcEEEENS_11LoadingModeEb
MBg:_HashAlgorithm_ComputeHash_m2044824070
Mo:FUNCTION_TABLE_iifff
yJc:__ZN11IMGUIModule12AddGUIScriptER8ListNodeI13MonoBehaviourE
Kb:invoke_difi
xyl:_GUILayoutUtility_BeginWindow_m2240221150
pPm:_glDeleteSamplers__wrapper
Eoa:__ZL50StaticRegisterSceneLoadedCallback_LightmapSettingsPv
IHh:_HybridDictionary_set_Item_m2997363718
IXa:__ZNSt3__26__treeIiNS_4lessIiEE13stl_allocatorIiL18MemLabelIdentifier1ELi16EEE7destroyEPNS_11__tree_nodeIiPvEE
t0g:_InternalEnumerator_1_get_Current_m1477715453_AdjustorThunk
W2d:__ZNK5physx7NpCloth24getSeparationConstraintsEPNS_35PxClothParticleSeparationConstraintE
oVi:_UInt64_System_IConvertible_ToUInt32_m2784653358
yHa:__ZN21GLESGpuProgramApplier11ApplyVectorERKN20GpuProgramParameters14ValueParameterEPK8Vector4ft
fpf:__ZN22BaseUnityConnectClient17SaveSessionValuesEv
Pgl:_TimedObjectDestructor_Awake_m1152968465
hzg:_SByte_System_IConvertible_ToDecimal_m2548745278
P1e:_cff_size_done
L8b:__ZN29ExtractProjectionPlanesHelperILb1EE5ApplyERK10Matrix4x4fP5Plane
WFe:__ZN5physx6shdfnd5ArrayINS_17PxcSolverBodyDataENS0_16AlignedAllocatorILj128ENS0_19ReflectionAllocatorIS2_EEEEE6resizeEjRKS2_
uoc:__ZN13ProduceHelperI7CubemapLb0EE7ProduceE10MemLabelId18ObjectCreationMode
Ucc:__ZN6Camera34UpdatePreviousViewProjectionMatrixEv
pya:__ZN9ShaderLab11ShaderState25RemoveUnsupportedProgramsEPK6Shader
Ngf:__Z28Font_Get_Custom_PropMaterialP12Il2CppObject
qni:_Mathf_Abs_m3281243566
Nx:__ZNSt3__26__sortIR12GreaterLayerPP14AnimationStateEEvT0_S6_T_
Ptg:_SynchronizedWriter_WriteLine_m1552352268
Lzc:__Z47Register_UnityEngine_Component_BroadcastMessagev
MIm:dynCall_viiiiifi
ivc:__Z26scripting_class_has_parent17ScriptingClassPtrS_
D$e:__ZN13ProduceHelperI9RigidbodyLb0EE7ProduceE10MemLabelId18ObjectCreationMode
Cna:__ZN13RuntimeStaticI21AssetReferenceStorageLb0EE16StaticInitializeEPv
Glg:_Int32_System_IConvertible_ToByte_m3832391412_AdjustorThunk
c0:__Z71Register_UnityEngine_AudioSource_INTERNAL_CALL_ClearExtensionPropertiesv
XM:__ZNK8Animator20IsInMatchTargetStateEv
RXg:_InternalEnumerator_1_System_Collections_IEnumerator_get_Current_m4088805473_gshared
yn:FUNCTION_TABLE_viiifiii
dKc:__Z36Register_UnityEngine_GUI_set_changedv
ieh:_Context_GetServerContextSinkChain_m3154465897
pzl:_GUIStyle_get_fixedHeight_m2868324709
DWc:__Z11EvaluateHDRIL12GradientMode1ELS0_1EEN4math8floatNx4ERK14MinMaxGradientRKNS1_7_float4ES8_
Mhg:_Convert_ToInt64_m2075293963
z7a:__ZN17LightBakingOutput8TransferI24GenerateTypeTreeTransferEEvRT_
p2d:__ZN5physx7NpCloth13setTargetPoseERKNS_11PxTransformE
LAm:__GLOBAL__sub_I_Il2CppCodeRegistration_cpp
tH:__ZN27AnimationLayerMixerPlayable18SetInputConnectionEP8Playablei
cH:__ZN7mecanim28TransformValueArrayBlendNodeEiiiRKNS_10ValueArrayERKNS_14ValueArrayMaskERS0_RS3_RNS_16ValueArrayWeightEf
fYk:_List_1_GetIndex_m3112872964_gshared
IGf:_Dropdown_set_value_m1048320169
oSl:_CustomEventData_Finalize_m1724721833
r5a:__ZN20TierGraphicsSettings8TransferI18StreamedBinaryReadILb0EEEEvRT_
dmg:_Int32_System_IConvertible_ToUInt64_m2502338186_AdjustorThunk
jra:__Z33CleanupCubemapGPUUtilityMaterialsPv
xcb:__ZN14SafeBinaryRead8TransferINSt3__24pairIN9ShaderLab16FastPropertyNameE10ColorRGBAfEEEEvRT_PKc17TransferMetaFlags
pQl:__ZL9rshift128PyS_
Blg:_Int16_ToString_m2072232391_AdjustorThunk
cWk:_Enumerator_VerifyState_m169680537_AdjustorThunk
Fbm:__ZN14dense_hash_mapI10KeyWrapperINSt3__24pairIPK12PropertyInfoP11Il2CppClassEEEj17ReflectionMapHashIS8_ENS9_14EqualsComparerINS1_8equal_toIS8_EEEENS1_9allocatorINS2_IKS9_jEEEEE13set_empty_keyERSH_
al:_glRenderbufferStorage
cCc:__Z45Register_UnityEngine_Input_get_touchSupportedv
lqf:__ZN11UnityEngine15PlatformWrapper28GetTextureFormatSupportFlagsEv
pX:__ZN11AudioSource23VirtualRedirectTransferER19StreamedBinaryWriteILb0EE
xdh:_RemotingConfiguration_RegisterWellKnownClientType_m1237674062
Arl:_Uri_EscapeString_m3864445955
C2e:_cf2_setError
xmb:__ZN14SafeBinaryRead21TransferSTLStyleArrayI13dynamic_arrayI12BoneWeights4Lj16EEEEvRT_17TransferMetaFlags
U3g:_Enumerator_MoveNext_m465222849_AdjustorThunk
c_b:__ZZ23InitPlayerLoopCallbacksvEN35PreUpdateSendMouseEventsRegistrator7ForwardEv
sQa:__ZNK6Camera25GetNormalizedViewportRectEP13RenderTextureb
JGf:_Dropdown_Awake_m3140021404
Uh:_glDisable
uab:__ZN13RenderTexture8TransferI24GenerateTypeTreeTransferEEvRT_
jsg:_NullStream_Seek_m1914924606
Jyi:_Vector2_get_sqrMagnitude_m837837635
ztm:__ZN6il2cpp5utils11StringUtils15StringDuplicateEPKDsj
xP:__ZZN8Animator15InitializeClassEvEN37FunctorImpl_417kDidModifyOverrideClip4CallEPviR11MessageData
opl:_Regex_Match_m4145799399
aG:__ZN17AnimationPlayable17ProcessRootMotionEP35AnimationPlayableEvaluationConstantP32AnimationPlayableEvaluationInputP33AnimationPlayableEvaluationOutput
YEd:__ZN5physx3Ext13DistanceJoint15exportExtraDataERNS_22PxSerializationContextE
J_h:_String_IsNullOrEmpty_m2969720369
PLl:_TextGenerator_GetPreferredHeight_m3514897836
iCh:_BigInteger_LowestSetBit_m3082714978
DJi:_Array_InternalArray__Insert_TisKeyValuePair_2_t2530217319_m1769848997_gshared
Ivd:__ZN5physx10getInverseERNS_7PxMat33ERNS_6PxVec3ERKS0_RKS2_
crg:_MonoIO_Read_m1129074620
bRm:b118
cRm:b119
ISc:__ZN22ParticleSystemRenderer17MainThreadCleanupEv
a$b:__ZNK8Material12GetPassCountEv
YSh:_RSAParameters_t1728406613_marshal_pinvoke
BRh:_Interval_IsDisjoint_m1532171337_AdjustorThunk
IQm:b112
QHm:_bitshift64Ashr
QQm:b114
RQm:b115
$Qm:b116
aRm:b117
DJm:dynCall_diii
Nrh:_LayoutUtility_GetFlexibleWidth_m22831835
ykh:_BinaryFormatter__ctor_m971003555
VQg:_ArrayReadOnlyList_1_ReadOnlyError_m865416608_gshared
wcg:_CollectionBase_System_Collections_IList_get_Item_m3743372945
tSl:_CustomEventData_Add_m3993893123
rJa:__ZN4crnd12crn_unpacker22decode_alpha_endpointsEv
_Ol:_Physics_Raycast_m1896872038
q9b:__Z23CullDynamicObjectsUmbraPK4AABBPKN5Umbra15OcclusionBufferER9IndexList
x8e:_tt_cmap4_char_next
K9:__ZN4core8hash_mapIi17ThreadedAwakeDataNS_4hashIiEENSt3__28equal_toIiEEE4growEi
qWc:__ZN11ForceModule6UpdateERK27ParticleSystemReadOnlyStateRK19ParticleSystemStateR23ParticleSystemParticlesjjRKN4math7_float4E
Z9i:__Z50RuntimeInvoker_Boolean_t97287965_Int16_t2552820387PFvvEPK10MethodInfoPvPS4_
Ugg:_Convert_ToDecimal_m1233667008
Sqj:__Z44RuntimeInvoker_RuntimeObject_Ray_t3785851493PFvvEPK10MethodInfoPvPS4_
J9:__ZN4core8hash_mapIi17ThreadedAwakeDataNS_4hashIiEENSt3__28equal_toIiEEE4growEv
hja:__GLOBAL__sub_I_runtime_assetbundles_1_cpp
hU:__ZN4FMOD7Channel11setPositionEjj
Mi:_glBindSampler
Uwm:_GC_reclaim_block
XIg:_ClientContext_get_ClientHelloProtocol_m1654639078
EUd:__ZN5physx2Sc8BodyCore20clearSpatialVelocityEbb
Qi:_glGetVertexAttribiv
qah:_Enumerator_System_Collections_IEnumerator_get_Current_m1975949486_gshared
Gnl:_PatternCompiler_EmitSub_m193323684
iAh:_MSCompatUnicodeTable_Category_m1834196420
gif:__ZN2UI11CanvasGroup23VirtualRedirectTransferER18StreamedBinaryReadILb0EE
Emg:_Int64_System_IConvertible_ToByte_m375085029
eDe:__ZN5physx2Sc27ConstraintProjectionManagerC2Ev
RQc:__ZN8JSONRead8TransferIbEEvRT_PKc17TransferMetaFlagsb
dId:__ZN5physx6shdfnd5ArrayIPvNS0_19ReflectionAllocatorINS_2Sc24ElementInteractionMarkerEEEE4copyINS0_15InlineAllocatorILj256ES6_EEEEvRKNS1_IS2_T_EE
eRi:_TimeSpan_ToString_m1128692466
g0d:__ZNK5physx7NpShape15getGeometryTypeEv
nBl:_AesManaged_CreateEncryptor_m2294080233
dyl:_Event_GetHashCode_m3559153592
xvm:_GC_promote_black_lists
Cgg:_Convert_ToChar_m3757390865
FRc:__Z29Transfer_Blittable_ArrayFieldI8JSONRead8Vector4fEvRT_R9ArrayInfoRK23StaticTransferFieldInfo
pNf:_Binder_GetDerivedLevel_m3216810447
Up:FUNCTION_TABLE_vd
o3g:_Enumerator_System_Collections_IDictionaryEnumerator_get_Value_m3325938730_gshared
Wp:FUNCTION_TABLE_vi
Bka:__ZN13RuntimeStaticI37UnityShaderCompilerExtPluginConfigureLb0EE16StaticInitializeEPv
Grf:__ZN11UnityEngine7Connect17DeviceStatusEvent20SetDeviceAspectRatioEf
lvc:__ZN10systeminfo24GetRuntimePlatformStringEv
lMi:_StringBuilder_AppendFormat_m2403596038
ABg:_DSASignatureDeformatter_SetHashAlgorithm_m3186995552
VLk:_ReadOnlyCollection_1_System_Collections_Generic_ICollectionU3CTU3E_Clear_m2772202961_gshared
Qve:__ZN5physxL25solveContact4_StaticBlockEPKNS_23PxcSolverConstraintDescERNS_16PxcSolverContextE
bQ:__ZNK8Animator17HasBoundPlayablesEv
$ld:__ZN17Physics2DSettings8TransferI24GenerateTypeTreeTransferEEvRT_
aLc:__ZN5Unity9rapidjson13GenericReaderINS0_4UTF8IcEES3_13JSONAllocatorE10ParseFalseILj0ENS0_19GenericStringStreamIS3_EENS0_15GenericDocumentIS3_S4_S4_EEEEvRT0_RT1_
OOi:_SynchronizationContext_SetSynchronizationContext_m1249070039
AAd:__ZNK5physx3Cct17CapsuleController15getFootPositionEv
m7k:_List_1_AddEnumerable_m1267044261_gshared
pej:__Z99RuntimeInvoker_Void_t1185182177_RuntimeObject_Int32_t2950945753_SByte_t1669577662_SByte_t1669577662PFvvEPK10MethodInfoPvPS4_
IAg:_KeySizes__ctor_m3113946058
GLc:__ZN5Unity9rapidjson12PrettyWriterI16TempBufferWriterNS0_4UTF8IcEES4_13JSONAllocatorE10StartArrayEv
D5c:__ZN14qsort_internal30FindAndMovePivotToLastPositionIP22ParticleRibbonSortDataiNSt3__27greaterIS1_EEEEvT_S6_T0_T1_
Ba:invoke_iiifiii
Sti:_RectTransform_INTERNAL_get_pivot_m2970933031
Jul:_UnityAction_1_Invoke_m927447181_gshared
wim:__ZN6il2cpp2vm9Exception11FromNameMsgEPK11Il2CppImagePKcS6_S6_
lo:FUNCTION_TABLE_fiiifii
Xve:__ZN5physx25solveContact_BStaticBlockEPKNS_23PxcSolverConstraintDescEjRNS_16PxcSolverContextE
Dqa:__Z14GetTimeManagerv
Nhi:_Color32_op_Implicit_m213813866
sti:_RectOffset_set_top_m713260669
Uhc:__ZneRK20SpriteTilingPropertyS1_
$tf:__ZN19TransportJavaScript7CleanupEv
t$a:__Z12GUIDToStringRK9UnityGUIDPc
Ana:__ZN15FileSystemEntry4LockE12FileLockModeP12FileAccessor
mSm:_emscripten_glDrawArrays__wrapper
k2l:__ZN6il2cpp6icalls8mscorlib6SystemL16CheckMemberMatchI9EventInfoNS_5utils10functional6FilterINSt3__212basic_stringIcNS8_11char_traitsIcEENS8_9allocatorIcEEEENS5_13VmStringUtils23CaseInsensitiveComparerEEEEEbPKT_PK11Il2CppClassSN_iRKT0_
mmg:_Int32_Equals_m2976157357
Ymj:__Z110RuntimeInvoker_Int32_t2950945753_Int32_t2950945753_Int32_t2950945753_Int32U26_t1369213839_Int32U26_t1369213839PFvvEPK10MethodInfoPvPS4_
ntd:__ZL4facejjjRN5physx6PxVec3ERKS0_S3_S3_PfRf
Mle:__ZN5physx6shdfnd5ArrayIPNS_2Sc14ConstraintCoreENS0_19ReflectionAllocatorIS4_EEE6resizeEjRKS4_
djl:_BasicConstraintsExtension_Encode_m2009213240
GX:__ZN11AudioSource22UnmuteActiveVideoSinksEv
fil:_TlsException__ctor_m3717683709
wtm:__ZN4utf88internal20is_overlong_sequenceIiEEbjT_
vYl:__ZN6il2cpp2vm13MetadataCache8RegisterEPK22Il2CppCodeRegistrationPK26Il2CppMetadataRegistrationPK20Il2CppCodeGenOptions
fe:_glReadBuffer
_0a:__Z9SetLocalR15TransformAccessRKN4math7_float4Ey
AYc:__Z11StartCircleILN11ShapeModule14MultiModeValueE1EEvRS0_R23ParticleSystemParticlesRK19ParticleSystemStateRK27ParticleSystemEmissionStateRKN4math8float3x3ERKNSB_8float4x4Ejbj
Ey:__ZN11UnityEngine9Animation20IsDiscreteIntBindingE4PPtrI10MonoScriptERKN4core12basic_stringIcNS4_20StringStorageDefaultIcEEEEPKN5Unity4TypeE
NGe:__ZL18getFrictionPatchesRN5physx26PxcFrictionPatchStreamPairERNS_20PxcCorrelationBufferEPKhjRKNS_11PxTransformES8_f
Rzc:__Z41Register_UnityEngine_Cursor_get_lockStatev
L4b:__Z14SetupLightmapsRK8Vector4fS1_R17ShaderPassContext
dam:__ZN14dense_hash_mapI10KeyWrapperIPK14Il2CppAssemblyEPK22Il2CppMonoAssemblyNameN6il2cpp5utils11PointerHashIS2_EENS4_14EqualsComparerINSt3__28equal_toIS3_EEEENSD_9allocatorINSD_4pairIKS4_S7_EEEEE13set_empty_keyERSJ_
ubb:__ZL20InitializeGUIShadersv
qei:_Guid_CompareTo_m243656946
Mgc:__Z20DestroyObjectDelayedP6Objectf
i6:__ZN20DynamicHeapAllocatorI17LowLevelAllocatorED0Ev
WPl:_Rigidbody_get_isKinematic_m403342600
Ujd:__ZN10ClipperLib11ClipperBase5ResetEv
xrj:__Z159RuntimeInvoker_Boolean_t97287965_Vector3U26_t3464235976_Vector3U26_t3464235976_RaycastHitU26_t2429360258_Single_t1397266774_Int32_t2950945753_Int32_t2950945753PFvvEPK10MethodInfoPvPS4_
skc:__ZN11TimeManagerC2E10MemLabelId18ObjectCreationMode
$Re:__ZN8Collider16RecreateColliderEPK9Rigidbody
h2b:__ZN9DepthPassD2Ev
K7c:__Z17UpdateSprites2TplIL27ParticleSystemCurveEvalMode2ELS0_1EEvfRK11MinMaxCurveS3_RK23ParticleSystemParticlesPf
$S:__ZN11AudioFilter6GetDSPEv
Fyi:_Vector2_Equals_m832062989
XSh:_RSACryptoServiceProvider_OnKeyGenerated_m863837376
qZd:__ZN5physx2Sc14ConstraintCore9setBodiesEPNS0_9RigidCoreES3_
Suh:_Scrollbar_OnDrag_m4289602768
nma:__ZN19RuntimeSceneManager14CanUnloadSceneEP10UnityScene
j2b:__Z22ExtractRenderNodeQueueRK11CullResults15ExtractionFlagsR15RenderNodeQueue
oYe:__ZN5physx6shdfnd8PoolBaseINS_24NpPtrTableStorageManager8PtrBlockILi64EEENS0_19ReflectionAllocatorIS4_EEE12allocateSlabEv
eS:__ZN24AudioScriptBufferManagerC2Ev
Jad:__ZN11UnityEngine9Analytics18SceneLoadTimeEvent12ToJsonStringER9JSONWrite
gef:__ZNSt3__26vectorIh13stl_allocatorIhL18MemLabelIdentifier1ELi16EEE8__appendEj
n_g:_InternalEnumerator_1_System_Collections_IEnumerator_get_Current_m3854084659_AdjustorThunk
UKc:__ZN8JSONRead32GetValueForKeyWithNameConversionEPKN5Unity9rapidjson12GenericValueINS1_4UTF8IcEE13JSONAllocatorEEPKc
YPg:_U3CGetEnumeratorU3Ec__Iterator0_System_Collections_IEnumerator_get_Current_m283764921_gshared
ief:__ZN20TextRenderingPrivate8FontImpl16ResetPackingDataEv
tbi:_CultureInfo_get_IcuName_m2258611679
EMc:__Z18Transfer_BlittableI9JSONWriteLb0EfEvRK29SerializationCommandArgumentsR31RuntimeSerializationCommandInfo
EIa:__Z21GetAsyncUploadManagerv
Dk:_emscripten_glDetachShader
TRl:_CustomEventData_Add_m2564314129
zRd:__ZNK5physx2Sc15ArticulationSim16createDriveCacheEfj
sIa:__ZN17GenericDynamicVBO20ReleaseChunkInternalERK21DynamicVBOChunkHandlejj
Lgf:__ZL27CleanupModule_TextRenderingv
qEm:_fmodl
tGh:_SymmetricTransform_OFB_m3842617151
DNb:__Z18Transfer_BlittableI18StreamedBinaryReadILb1EELb1E4AABBEvRK29SerializationCommandArgumentsR31RuntimeSerializationCommandInfo
FFd:__ZN5physx6shdfnd5ArrayIPNS_3Scb5ActorENS0_19ReflectionAllocatorIS4_EEE6resizeEjRKS4_
jXb:__ZN19RuntimeSceneManager11CreateSceneEv
nhi:_Color__ctor_m286683560
nnl:_PatternCompiler_Emit_m1540115729
H6e:_ps_get_standard_strings
m5b:__Z27SetupBakedOcclusionForLightbRK15SharedLightDataR17ShaderPassContext
LB:__ZN24GenerateTypeTreeTransfer8TransferIN13AnimationClip9PPtrCurveEEEvRT_PKc17TransferMetaFlags
hKi:_EncoderFallbackException__ctor_m1051987327
u_d:__ZN5physx7NpScene14removeMaterialERNS_10NpMaterialE
PLd:__ZN5physx16PxsIslandManager24setEdgeArticulationJointERKNS_20PxsIslandManagerHookIjLj4294967295EEE
A5h:_Decimal_System_IConvertible_ToBoolean_m1123794670
wUd:__ZN5physx2Sc10NPhaseCore25addToDirtyInteractionListEPNS0_15CoreInteractionE
Kwj:__Z98RuntimeInvoker_Int32_t2950945753_RaycastResult_t3360306849_RaycastResult_t3360306849_RuntimeObjectPFvvEPK10MethodInfoPvPS4_
l2c:__ZN27ParticleSystemReadOnlyState5ResetEv
Yrh:_Mask__ctor_m1269055150
SSj:__ZL99WaitHandle_t1743403487_CustomAttributesCacheGenerator_WaitHandle_t1743403487____Handle_PropertyInfoP21CustomAttributesCache
mLh:_WebRequest_AddPrefix_m3187775913
F$b:__Z18RenderImageFiltersR10RenderLoopb
ulf:__Z43CanvasRenderer_Get_Custom_PropMaterialCountP12Il2CppObject
x5b:__ZNSt3__227__insertion_sort_incompleteIR23CompareReflectionProbesP31RuntimeReflectionProbeBlendInfoEEbT0_S5_T_
R2k:_List_1_Remove_m1457733883_gshared
_Rc:__ZN8JSONRead21TransferSTLStyleArrayI13dynamic_arrayI11QuaternionfLj4EEEEvRT_17TransferMetaFlags
Hod:__ZN20OverlapCircleQuery2D14InitializeAABBER6b2AABB
SHe:__ZN5physx2Cm12DelegateTaskINS_2Sc5SceneEXadL_ZNS3_19islandGenSecondPassEPNS_10PxBaseTaskEEEE11runInternalEv
DA:__ZNSt3__26vectorIN13AnimationClip10FloatCurveE13stl_allocatorIS2_L18MemLabelIdentifier26ELi16EEE6assignINS_11__wrap_iterIPS2_EEEENS_9enable_ifIXaasr21__is_forward_iteratorIT_EE5valuesr16is_constructibleIS2_NS_15iterator_traitsISC_E9referenceEEE5valueEvE4typeESC_SC_
QTc:__ZN15CollisionModule9ResetSeedERK27ParticleSystemReadOnlyState
cv:__ZN18StreamedBinaryReadILb0EE21TransferSTLStyleArrayI22OffsetPtrArrayTransferI9OffsetPtrIN7mecanim12statemachine18TransitionConstantEEEEEvRT_17TransferMetaFlags
yvc:__ZN19RuntimeSceneManager32LoadSceneAsyncByNameOrBuildIndexERKN4core12basic_stringIcNS0_20StringStorageDefaultIcEEEEiNS_11LoadingModeEb
OZd:__ZN5physx6shdfnd4sortIPvNS0_4LessIS2_EENS0_19ReflectionAllocatorINS_10NpMaterialEEEEEvPT_jRKT0_RKT1_j
CGg:_MD4Managed_Encode_m386285215
Tna:__ZN10InputEventD2Ev
s3g:_Enumerator_MoveNext_m3398155861_AdjustorThunk
rsc:__ZN24CompressedAnimationCurve18DecompressTimeKeysI11QuaternionfEEvR17AnimationCurveTplIT_E
eA:__ZN7mecanim4hand8HandPoseC2Ev
gvf:__ZN22UnityWebRequestManagerD2Ev
Txl:_Event_get_character_m1666742088
GBd:__ZN5physx3Cct15ObstacleContext13onOriginShiftERKNS_6PxVec3E
XDm:_isalpha
ygg:_Convert_ToChar_m1442101407
MOg:_SslClientStream_OnLocalPrivateKeySelection_m1934775249
Gge:__ZN5physx6shdfnd8PoolBaseINS_2Gu31SpherePersistentContactManifoldENS0_19ReflectionAllocatorIS3_EEE12allocateSlabEv
lMd:__ZN5physx6shdfnd5ArrayIPNS_2Sc7BodySimENS0_19ReflectionAllocatorIS4_EEE8recreateEj
_bd:__ZNK12b2MotorJoint17GetReactionTorqueEf
y4h:_DateTimeOffset_get_Offset_m2040541042_AdjustorThunk
QOk:_ReadOnlyCollection_1_System_Collections_ICollection_CopyTo_m1425507475_gshared
w0l:__ZN6il2cpp2vmL17IsSocketAsyncCallEP14Il2CppDelegate
ind:__Z13RegisterClassI11Rigidbody2DEvv
jeg:_Slot_t3975888750_marshal_pinvoke_back
yVc:__ZNK13TriggerModule6UpdateERK24ParticleSystemUpdateDataR23ParticleSystemParticlesjRKf
Wsm:__ZN6il2cpp2vm6String6NewLenEPKcj
yph:_Selectable_get_image_m1928917691
dVb:__ZN17PersistentManager9AddStreamEv
Vl:_time
QEf:_ContentSizeFitter_set_verticalFit_m1831566876
tVh:_TripleDESCryptoServiceProvider_CreateDecryptor_m740960117
Gsj:__Z122RuntimeInvoker_Void_t1185182177_Color_t2555686324_Single_t1397266774_SByte_t1669577662_SByte_t1669577662_SByte_t1669577662PFvvEPK10MethodInfoPvPS4_
_Gd:__ZNK5physx2Sc8ShapeSim15getPxsRigidCoreEv
nsa:__ZN18SpriteAtlasManagerD2Ev
gni:_Material_EnableKeyword_m329692301
cId:__ZN5physx2Sc20ContactStreamManager28fillInContactReportExtraDataEPNS_17PxContactPairPoseEjRKNS0_8RigidSimEb
p3e:_cf2_stack_free
q3d:__ZN5physx7NpCloth23removeCollisionTriangleEj
pUh:_SHA512Managed_HashCore_m2377807474
PWc:__Z9UpdateTplIL27ParticleSystemCurveEvalMode4EEvRK11MinMaxCurveR23ParticleSystemParticlesPfRKN4math7_float4EjjRK8Vector2f
_bi:_CompareInfo_IndexOf_m667936183
QF:__ZN7mecanim9animation19EvaluateFloatValuesEPKNS0_18ClipMuscleConstantEPKNS_18ValueArrayConstantEPKNS0_12ClipBindingsEPKNS0_10ClipOutputEPNS0_18AnimationNodeStateEfbb
BN:__ZN8Animator31ClearInternalControllerPlayableEv
DTa:__ZN26SinglePassStereoSupportExt18AfterSetViewMatrixEv
yXh:_SecurityContext_Capture_m1047743382
Zfi:_Bounds__ctor_m1937678907_AdjustorThunk
Avi:_SetupCoroutine_InvokeMember_m2661944898
G6i:_HashSet_1__ctor_m620629637_gshared
PLh:_X509EnhancedKeyUsageExtension_ToString_m350388564
Vte:__ZNK5physx2Gu29EPASupportMapPairRelativeImplINS0_9TriangleVENS0_11ConvexHullVEE9doSupportERKNS_6shdfnd3aos5Vec3VERS7_SA_SA_
R5l:__ZN15dense_hashtableINSt3__24pairIK10KeyWrapperINS1_IPK9FieldInfoP11Il2CppClassEEEjEES9_17ReflectionMapHashIS8_EN14dense_hash_mapIS9_jSD_NS9_14EqualsComparerINS0_8equal_toIS8_EEEENS0_9allocatorISB_EEE9SelectKeyESI_SK_E4findERSA_
abg:_SimpleEnumerator_MoveNext_m3113120129
Ghi:_Color_get_yellow_m1287957903
iXb:__ZN13LoadOperationC2E10MemLabelId
X8a:__ZNK9Transform21GetLocalToWorldMatrixEv
Gmh:_InputField_SendOnValueChanged_m2560301445
Tac:__ZN13RenderTexture19SetAutoGenerateMipsEb
_Ja:__Z20GetTextureFormatInfo13TextureFormat
ZRl:_CustomEventData_AddByte_m3440715081
fnc:__Z40InitializeLightAnimationBindingInterfacev
GHg:_RSAManaged_ToXmlString_m2369501989
BI:__ZN26AnimatorControllerPlayable8GetFloatEiRf
vgh:_LogicalCallContext__ctor_m1263247987
L1h:_DateTime_System_IConvertible_ToSingle_m2193708681_AdjustorThunk
ARh:_Interval_get_Size_m4163671410_AdjustorThunk
MKf:_Image_get_alphaHitTestMinimumThreshold_m2015654453
qEj:__ZL64String_t_CustomAttributesCacheGenerator_String_Split_m3580120853P21CustomAttributesCache
szm:__ZN6il2cpp5utils10MemoryPool6MallocEj
yR:__ZN11SoundHandle8InstanceD2Ev
uZf:_ResourceEnumerator_Reset_m3754276504
fra:__ZN31CanvasBatchIntermediateRenderer13StaticDestroyEPv
Vaa:__ZNSt3__23mapIiP15MonoScriptCacheNS_4lessIiEE13stl_allocatorINS_4pairIKiS2_EEL18MemLabelIdentifier78ELi16EEEixERS7_
lke:__ZNK5physx2Sc5Scene20getBroadPhaseRegionsEPNS_22PxBroadPhaseRegionInfoEjj
uSc:__Z35ParticleSystemRenderer_RenderMeshesIL21SpriteMaskInteraction0EEvRK15RenderNodeQueuej17ShaderChannelMaski
OPm:_emscripten_glBindProgramARB__wrapper
Tti:_RectTransform_set_pivot_m909387058
Ozc:__Z41Register_UnityEngine_CullingGroup_Disposev
N0i:_DefaultComparer_Equals_m1169207057_gshared
yWd:__ZN5physx14NpShapeManagerD2Ev
Knl:_PatternCompiler_EmitRepeat_m697083858
nfb:__ZN7Cubemap23VirtualRedirectTransferER19StreamedBinaryWriteILb0EE
sxm:_GC_split_block
d_a:__ZN25MultiBlocksMemoryFileData5WriteEyyPKv
kdd:__ZNK13b2PulleyJoint16GetReactionForceEf
XYf:_ResourceReader_Read7BitEncodedInt_m3568166465
gEh:_BlockProcessor_Core_m2138791525
xMl:_CanvasGroup_set_alpha_m4032573
o3f:_Array_get_LongLength_m978104875
INa:__ZL17ProgramUniform2fvPK7ApiGLESjiihPKv
sOm:b83
NVd:__ZN5physx2Sc5Scene16removeConstraintERNS0_14ConstraintCoreE
cef:__ZN20TextRenderingPrivate8FontImpl21HasCharacterInTextureEjijfPj
Rxi:_Transform_SetAsFirstSibling_m253439912
m2h:_DateTime_System_IConvertible_ToUInt16_m4182197229_AdjustorThunk
tRh:_Interval_get_IsDiscontiguous_m3016063288
aPg:_SslStreamBase_get_CheckCertRevocationStatus_m2739906607
sFm:_htonl
IFa:__Z20GetBufferManagerGLESv
mOl:_Animator_SetBool_m234840832
zUh:_SHA512Managed_Sigma1_m922902398
tRb:__ZN18StreamedBinaryReadILb0EE21TransferSTLStyleArrayI31ArrayOfManagedObjectsTransfererEEvRT_17TransferMetaFlags
Dne:__ZN5physx2Sc18ParticleSystemCore18addDeltaVelocitiesERKNS_2Cm10BitMapBaseINS_6shdfnd9AllocatorEEEPKNS_6PxVec3Ef
kGa:__ZNSt3__26__treeI22DeviceStencilStateGLES14MemoryCompLessI18DeviceStencilStateENS_9allocatorIS1_EEE12__find_equalIS1_EERPNS_16__tree_node_baseIPvEESD_RKT_
PPc:__Z18Transfer_BlittableI8JSONReadLb0EtEvRK29SerializationCommandArgumentsR31RuntimeSerializationCommandInfo
wEe:__ZN5physx6shdfnd8PoolBaseINS_2Sc16ActorElementPairENS0_19ReflectionAllocatorIS3_EEE12allocateSlabEv
F3c:__ZN18ColorBySpeedModuleD0Ev
Qci:_CultureInfo_CreateCulture_m1493441763
lVh:_TripleDES_IsWeakKey_m2147489852
Y_d:__ZNK5physx9NpPhysics17getNbClothFabricsEv
nJ:__ZN34AnimationStateMachineMixerPlayable13EndTransitionEv
JT:__ZN12AudioManager21FixMasterGroupRoutingEv
Xlb:__ZNK19ShaderPropertySheet11HasPropertyERKN9ShaderLab16FastPropertyNameE
Mmd:__ZN6b2Body9SetActiveEb
zM:__ZN15AllocatorTraitsIN8Animator11AnimatorJobELb0EE13CopyConstructEPS1_RKS1_10MemLabelId
Cvj:__Z81RuntimeInvoker_Boolean_t97287965_NavigationU26_t1807167253_Navigation_t3049316579PFvvEPK10MethodInfoPvPS4_
dSm:_emscripten_glUniform1fv__wrapper
_Jf:_GridLayoutGroup_SetLayoutHorizontal_m2838109254
kPe:__ZL10UpdateLinkjjjjPN5physx11AdjTriangleERKNS_17ADJACENCIESCREATEE
wH:__ZN27AnimationLayerMixerPlayable22PrepareAnimationEventsEfR13dynamic_arrayI22AnimationClipEventInfoLj4EE
GKd:__ZN5physx2Sc16InteractionScene19registerInteractionEPNS0_11InteractionEb
KDb:__Z18Transfer_BlittableI14SafeBinaryReadLb1E4AABBEvRK29SerializationCommandArgumentsR31RuntimeSerializationCommandInfo
tve:__ZN5physx19solveContactCoulombERKNS_23PxcSolverConstraintDescERNS_16PxcSolverContextE
vym:_GC_set_no_dls
jEf:_ColorBlock_set_normalColor_m254595671_AdjustorThunk
SVi:_UnauthorizedAccessException__ctor_m40101894
OYg:_InternalEnumerator_1_get_Current_m1007906068_gshared
SHd:__ZNK5physx2Sc9ActorPair23createContactReportDataEv
qWl:__ZN15dense_hashtableINSt3__24pairIK10KeyWrapperIPK11Il2CppClassEPKcEES6_N6il2cpp5utils11PointerHashIS3_EEN14dense_hash_mapIS6_S9_SE_NS6_14EqualsComparerINS0_8equal_toIS5_EEEENS0_9allocatorISA_EEE9SelectKeyESJ_SL_E15set_deleted_keyERKSA_
cbg:_SimpleEnumerator_Reset_m1520014659
mS:__ZN9AudioClip7WWWOpenEPKciPjPPvS4_
ETd:__ZN5physx18NpArticulationLink18setAngularVelocityERKNS_6PxVec3Eb
BDb:__Z18Transfer_BlittableI14SafeBinaryReadLb0E8Vector2fEvRK29SerializationCommandArgumentsR31RuntimeSerializationCommandInfo
YKg:_Context_set_ProtocolNegotiated_m2904861662
Rkm:__ZN15dense_hashtableINSt3__24pairIK10KeyWrapperINS1_IPKcS4_EEEiEES6_24NamespaceAndNamePairHashN14dense_hash_mapIS6_iS9_NS6_14EqualsComparerI26NamespaceAndNamePairEqualsEENS0_9allocatorIS8_EEE9SelectKeyESD_SF_E12resize_deltaEjj
Vih:_RemotingServices_GetRemoteObject_m2117098022
OMl:_CanvasRenderer_SetTexture_m1600559835
tHk:_Collection_1_System_Collections_IList_IndexOf_m4256072926_gshared
jdj:__Z132RuntimeInvoker_Boolean_t97287965_RuntimeObject_Int32_t2950945753_Int32_t2950945753_RuntimeObject_Int32_t2950945753_Int32_t2950945753PFvvEPK10MethodInfoPvPS4_
YBc:__Z53Register_UnityEngine_Input_INTERNAL_get_mousePositionv
BFa:__ZN7ApiGLES12DrawElementsE16GfxPrimitiveTypePKvjjjj
KFh:_EncryptedPrivateKeyInfo_get_Salt_m3453455261
Amh:_InputField_get_shouldHideMobileInput_m2205078558
t3h:_DateTime__ParseNumber_m1240316250
iqe:__ZN5physx6shdfnd8PoolBaseINS_2Sc19ShapeInstancePairLLENS0_19ReflectionAllocatorIS3_EEE15disposeElementsEv
ofh:_LeaseManager__ctor_m4015084757
cVg:_InternalEnumerator_1_get_Current_m3839250771_gshared
sci:_CultureInfo_get_TextInfo_m2342840448
Dwd:__ZN5physx2Gu14sweepTriSphereERKNS_10PxTriangleERKNS_6PxVec3ES6_fS6_Rf
nrf:__ZThn1044_N18UnityConnectClientD0Ev
_d:_SDL_GetTicks
iTc:__Z8EvaluateRK11MinMaxCurveRKN4math7_float4ES5_
N7l:__ZN15dense_hashtableINSt3__24pairIK10KeyWrapperINS1_IPK11Il2CppImageP11Il2CppClassEEEjEES9_17ReflectionMapHashIS8_EN14dense_hash_mapIS9_jSD_NS9_14EqualsComparerINS0_8equal_toIS8_EEEENS0_9allocatorISB_EEE9SelectKeyESI_SK_E6insertERKSB_
X8b:__Z21CreateShadowCullerJobP30CreateUmbraShadowCullerJobData
v3d:__ZNK5physx7NpCloth21getNbVirtualParticlesEv
gHe:__ZN5physx17PxcNpMemBlockPool23releaseConstraintBlocksERNS_6shdfnd5ArrayIPNS_13PxcNpMemBlockENS1_19ReflectionAllocatorIS4_EEEE
RPk:_ReadOnlyCollection_1_System_Collections_Generic_ICollectionU3CTU3E_Remove_m4072504734_gshared
ANa:__ZL18ProgramUniform2uivPK7ApiGLESjiihPKv
UCf:_U3COnFinishSubmitU3Ec__Iterator0_MoveNext_m2729496168
FRm:_glUniform4iv__wrapper
X5b:__Z33GenerateShadowCasterPartsSortDataRK16ShadowCasterDatajRK15RenderNodeQueueRKNSt3__26vectorI20ShadowCasterPartData13stl_allocatorIS7_L18MemLabelIdentifier2ELi16EEEERK10Matrix4x4fRjP20ShadowCasterSortData
r_b:__ZZ23InitPlayerLoopCallbacksvEN51PostLateUpdateTriggerEndOfFrameCallbacksRegistrator7ForwardEv
JQi:_TimeSpan_Compare_m753151303
IGb:__Z29Transfer_Blittable_ArrayFieldI14SafeBinaryRead9BoundsIntEvRT_R9ArrayInfoRK23StaticTransferFieldInfo
zUd:__ZN5physx2Sq17SceneQueryManager13markForUpdateEPNS0_10ActorShapeE
w2e:_cf2_computeDarkening
KNl:_AnimationLayerMixerPlayable__ctor_m860721801_AdjustorThunk
yXf:_MonoPropertyInfo_get_property_info_m1599555644
ZAg:_DESTransform_CipherFunct_m3527261721
Tvm:_GC_expand_hp_inner
Wc:invoke_viiiififfi
yGc:__Z25Screen_Get_Custom_PropDpiv
Hki:_UnityEventBase_RebuildPersistentCallsIfNeeded_m216788690
ltm:__ZN4utf812find_invalidIPKcEET_S3_S3_
lz:__ZNK13AnimationClip8IsLegacyEv
Aoh:_InputField_OnEndDrag_m4127187089
oSk:_ReadOnlyCollection_1_System_Collections_IList_RemoveAt_m2555465054_gshared
DHj:__ZL72RuntimeCompatibilityAttribute_t1169614002_CustomAttributesCacheGeneratorP21CustomAttributesCache
S7h:_StackFrame__ctor_m343464319
c3:__ZN11UnityEngine15CloudWebService20WebRequestRestClient7PrepareEv
HWf:_MonoField_CheckGeneric_m453069507
Rdf:__ZN20TextRenderingPrivate19NativeTextGenerator23FixLineHorizontalOffsetEiii
eOf:_CustomAttributeNamedArgument_ToString_m1488801416_AdjustorThunk
ibg:_SynchronizedArrayListWrapper_get_IsFixedSize_m3396437476
alh:_ObjectReader_ReadArrayOfString_m3550800559
Gvg:_MonoCustomAttrs_GetCustomAttributesInternal_m648304078
zK:__ZN7mecanim9animation19DestroyAnimationSetEPNS0_12AnimationSetERNS_6memory9AllocatorE
uMm:_emscripten_glDepthRange__wrapper
Uba:__ZN14SerializedFile7ReleaseEv
LBb:__ZN16MemoryFileSystem4OpenER13FileEntryData14FilePermission16FileAutoBehavior
$s:__ZNK18AnimatorController28HasMultiThreadedStateMachineEv
Vbi:_CompareInfo_GetSortKey_m1915852346
gbf:_ft_var_load_avar
Wqa:__ZN13RuntimeStaticI13RendererSceneLb0EE13StaticDestroyEPv
R0g:_DefaultComparer_Compare_m1297750557_gshared
vJg:_CipherSuiteCollection_get_Item_m3790183696
PJb:__Z18Transfer_BlittableI24GenerateTypeTreeTransferLb1E12PropertyNameEvRK29SerializationCommandArgumentsR31RuntimeSerializationCommandInfo
RDl:_Toggle_OnEnable_m1421694809
cnc:__ZN5Light15InitializeClassEv
xsb:__ZN14SafeBinaryRead21TransferSTLStyleArrayI10vector_mapIPKN5Unity4TypeE7Hash128NSt3__24lessIS5_EENS7_9allocatorINS7_4pairIS5_S6_EEEEEEEvRT_17TransferMetaFlags
lS:__ZN9AudioClip18GetQueuedAudioDataEPPvj
ygf:__ZN20TextRenderingPrivate21TextMeshGeneratorImpl14GarbageCollectEv
dsc:__ZNK9Texture2D17CheckHasPixelDataEv
Eid:__ZN15b2ContactSolver13StoreImpulsesEv
CLb:__Z18Transfer_BlittableI19StreamedBinaryWriteILb0EELb0E9BoundsIntEvRK29SerializationCommandArgumentsR31RuntimeSerializationCommandInfo
t3d:__ZNK5physx7NpCloth16getCollisionDataEPNS_22PxClothCollisionSphereEPjPNS_21PxClothCollisionPlaneES3_PNS_24PxClothCollisionTriangleE
S1b:__Z18SetShadowsKeywordsR17ShaderPassContext9LightType10ShadowType16ShadowProjectionbb
cJf:_Graphic_GetPixelAdjustedRect_m3729397999
Ebm:__ZN14dense_hash_mapI10KeyWrapperINSt3__24pairIPK12PropertyInfoP11Il2CppClassEEEj17ReflectionMapHashIS8_ENS9_14EqualsComparerINS1_8equal_toIS8_EEEENS1_9allocatorINS2_IKS9_jEEEEEC2EjRKSB_RKSF_
Xmc:__ZN17CollisionMeshDataC2Ev
Ach:_ConfigHandler_CheckPath_m3079311646
Nqe:__ZN5physx2Sq11PruningPool11preallocateEj
L_f:_Marshal_Copy_m1222846562
Qgb:__ZN16LightmapSettings23VirtualRedirectTransferER19StreamedBinaryWriteILb0EE
u_b:__ZZ23InitPlayerLoopCallbacksvEN47PostLateUpdateMemoryFrameMaintenanceRegistrator7ForwardEv
DFa:__ZN7ApiGLES20SetVertexArrayAttribEjj12VertexFormathjPKv
Zp:FUNCTION_TABLE_viiififii
Ewm:_GC_push_next_marked
$hg:_Convert_ToSByte_m2653811524
fxb:__ZN18IDCollectorFunctor18GenerateInstanceIDEi17TransferMetaFlags
Bxk:_GameObject_GetComponent_TisRuntimeObject_m2049753423_gshared
Did:__ZN15b2ContactSolver9WarmStartEv
lLl:_TextGenerationSettings_Equals_m3618607189_AdjustorThunk
xIh:_NameObjectCollectionBase_BaseAdd_m3437748750
_Ud:__ZN5physx2Sc17ParticleSystemSim15onRbShapeChangeERKNS0_19ParticlePacketShapeERKNS0_8ShapeSimE
aSi:_Type_internal_from_handle_m3156085815
SDf:_CanvasUpdateRegistry_SortLayoutList_m471948466
YHe:__ZN5physx27updateIslandsSecondPassMainEjRNS_2Cm10BitMapBaseINS_6shdfnd9AllocatorEEEPKjjRNS_11NodeManagerERNS_11EdgeManagerERNS_13IslandManagerERNS_23ArticulationRootManagerERNS_33ProcessSleepingIslandsComputeDataERNS_30IslandManagerUpdateWorkBuffersEPNS0_13EventProfilerE
CNk:_ReadOnlyCollection_1_System_Collections_Generic_ICollectionU3CTU3E_Add_m69722965_gshared
VN:__ZN8Animator8TransferI19StreamedBinaryWriteILb0EEEEvRT_
pda:__ZNSt3__27__sort4IRNS_6__lessI14ObjectLoadDataS2_EEPS2_EEjT0_S6_S6_S6_T_
Nvh:_ScrollRect_get_rectTransform_m2442061719
Npc:__Z22PlayableValidityChecksRK9HPlayableb
bub:__ZN15ResourceManagerD2Ev
zzc:__Z41Register_UnityEngine_Camera_GetAllCamerasv
Xji:_InvokableCall__ctor_m2158562079
Eod:__ZN14PhysicsQuery2D7RaycastERK8Vector2fS2_fRKN10Collider2D13ContactFilterEPKS3_bP12RaycastHit2Di
_ol:_Assertion__ctor_m2128950829
qsf:__ZN28PerformanceReportingSettings8TransferI14SafeBinaryReadEEvRT_
yyb:__ZN15CacheWriterBase18GetAddressOfMemoryEv
z$f:_Buffer_BlockCopy_m2884209081
XPc:__Z18Transfer_BlittableI8JSONReadLb1E5RectTIiEEvRK29SerializationCommandArgumentsR31RuntimeSerializationCommandInfo
j_d:__ZN5physx10NpMaterial17resolveReferencesERNS_24PxDeserializationContextE
_gm:__ZN6il2cpp2vm22EmbeddedResourceRecordC2ERKS1_
PXb:__ZL20DrawVBOChunkWithPassP6ShaderPN9ShaderLab4PassER17ShaderPassContextR10DynamicVBORK21DynamicVBOChunkHandle
SCk:_Collection_1__ctor_m825528237_gshared
ifb:__ZN9Texture2D13AwakeFromLoadE17AwakeFromLoadMode
Eq:FUNCTION_TABLE_iiififfi
dDi:_SetPropertyUtility_SetStruct_TisColorBlock_t2139031574_m1748367426_gshared
gpi:_PlayerConnection_get_instance_m1750121257
Dom:__ZN6il2cpp2vm3RCW14QueryInterfaceILb0EEEP14Il2CppIUnknownP15Il2CppComObjectRK10Il2CppGuid
mvk:_Dictionary_2_Do_CopyTo_TisRuntimeObject_TisRuntimeObject_m2341992100_gshared
opb:__ZThn328_N14SpriteRendererD0Ev
vll:_X509Store_get_Certificates_m56224934
GLa:__ZN6prcoreL17RemapGenericFloatI15TexFormatRFloat18TexFormatARGBFloatEEvPKNS_9InnerInfoE
Ngj:__Z85RuntimeInvoker_Void_t1185182177_Int64_t3736567304_Int32_t2950945753_Int64_t3736567304PFvvEPK10MethodInfoPvPS4_
qIg:_CipherSuite__ctor_m2440635082
aTh:_RSAPKCS1KeyExchangeFormatter_SetRSAKey_m1477802943
JZc:__ZN12LightsModule20ResetUsedLightsCacheEv
nZd:__ZN5physx7NpActor15removeConnectorERNS_7PxActorENS_15NpConnectorType4EnumEPNS_6PxBaseEPKc
dze:__ZN5physx19ActorAABBUpdateTask11runInternalEv
qtf:__ZN11UnityEngine15PlatformWrapper20GetPlayerPrefsUInt64ERKN4core12basic_stringIcNS1_20StringStorageDefaultIcEEEEy
K_f:_Marshal_copy_from_unmanaged_m2834266824
B6c:__Z19UpdateWholeSheetTplIL27ParticleSystemCurveEvalMode1EEvfRK11MinMaxCurveS3_RK23ParticleSystemParticlesPf
B5b:__ZN20ReflectionProbeCacheC2ER13BatchRendererR15RenderLoopStats
Osi:_Rect_set_xMax_m1720695099_AdjustorThunk
zjj:__Z59RuntimeInvoker_Int32_t2950945753_DateTimeOffset_t3229287507PFvvEPK10MethodInfoPvPS4_
JAb:__ZNK12HandlerChain6ExistsERK13FileEntryData
iIe:__ZN5physx10PxsContext28runModifiableContactManagersEv
l6b:__Z30FindDirectAttenuationFromProbeP18ForwardLightsBlockbiRK10RenderNodeRK23FindForwardLightsParamsf
Rsc:__ZNSt3__26vectorIj13stl_allocatorIjL18MemLabelIdentifier1ELi16EEE6assignIPKjEENS_9enable_ifIXaasr21__is_forward_iteratorIT_EE5valuesr16is_constructibleIjNS_15iterator_traitsIS9_E9referenceEEE5valueEvE4typeES9_S9_
Krb:__ZN12InputManager23VirtualRedirectTransferER24GenerateTypeTreeTransfer
Ozb:__ZN9Transform23VirtualRedirectTransferER24GenerateTypeTreeTransfer
BEe:__ZN5physx21PxsBodyTransformVault7addBodyERKNS_11PxsBodyCoreE
lIc:__ZN12GUIClipState10BeginOnGUIER10InputEvent
lza:__ZNSt3__26vectorIN9ShaderLab20SerializedSubProgram12UAVParameterENS_9allocatorIS3_EEE21__push_back_slow_pathIKS3_EEvRT_
G0c:__ZN18ColorBySpeedModule8TransferI17RemapPPtrTransferEEvRT_
clj:__Z87RuntimeInvoker_RuntimeObject_Byte_t1134296376_RuntimeObject_RuntimeObject_RuntimeObjectPFvvEPK10MethodInfoPvPS4_
$Jg:_HandshakeMessage_Process_m810828609
B9e:_UNITY_tt_size_ready_bytecode
Bcf:__ZN13TextRendering4FontD2Ev
jri:_Quaternion_Inverse_m1311579081
iff:_UNITY_FT_Stream_Open
P$c:__ZN10SizeModule8TransferI24GenerateTypeTreeTransferEEvRT_
RKb:__Z29Transfer_Blittable_ArrayFieldI24GenerateTypeTreeTransfer9BoundsIntEvRT_R9ArrayInfoRK23StaticTransferFieldInfo
I_a:__ZN10MemoryFile4ReadEyyPvPy
cgi:_Bounds_Equals_m3920299735
U6a:__ZN8keywords18KeywordSetToStringERK16ShaderKeywordSetRN4core12basic_stringIcNS3_20StringStorageDefaultIcEEEE
WRf:_GenericTypeParameterBuilder_GetGenericArguments_m2988765390
z5e:_otv_MATH_validate
Xfj:__Z77RuntimeInvoker_Void_t1185182177_Int64_t3736567304_ResourceInfoU26_t1611441338PFvvEPK10MethodInfoPvPS4_
kdm:_il2cpp_unity_liveness_calculation_begin
lYk:_List_1_CheckCollection_m1717250693_gshared
tnc:__ZZL23RegisterLightPropertiesR22GenericPropertyBindingEN22Wrapper_LightIntensity13SetFloatValueEPvf
NQ:__ZN4FMOD3DSP12setParameterEif
AVb:__ZN13MemoryManager16StaticInitializeEv
uci:_CultureInfo_Equals_m1360976324
XQc:__ZN8JSONRead21TransferSTLStyleArrayI13dynamic_arrayIyLj8EEEEvRT_17TransferMetaFlags
KE:__ZN21AnimationClipPlayable16ProcessHumanPassEPK35AnimationPlayableEvaluationConstantPK32AnimationPlayableEvaluationInputP33AnimationPlayableEvaluationOutput
f5j:__ZL69PersistentCall_t3407714124_CustomAttributesCacheGenerator_m_CallStateP21CustomAttributesCache
RU:__ZN4FMOD22FakeModChannelCallbackEPv
uwf:_BaseInput_get_compositionString_m1887614380
lg:_emscripten_glValidateProgram
G5a:__ZN4Mesh10CreateMeshEv
Pve:__ZN5physx36solveContactPreBlock_WriteBackStaticEPKNS_23PxcSolverConstraintDescEjRNS_16PxcSolverContextEPNS_25PxcThresholdStreamElementEjPi
kOi:_NativeEventCalls_ResetEvent_internal_m885886540
S2h:_DateTime_CompareTo_m3889078633
Z2e:_cf2_stack_clear
eJm:dynCall_viiiiiiiiiiiiiiiiiiiiiiiiiiiiiiiiii
Ckg:_NumberFormatter_set_CurrentCulture_m1358228087
Tjd:__ZN10ClipperLib11ClipperBase5ClearEv
Uac:__ZN7Texture13SetAnisoLevelEi
q1:__ZNSt3__26__treeINS_12__value_typeIN4core12basic_stringIcNS2_20StringStorageDefaultIcEEEEjEENS_19__map_value_compareIS6_S7_NS_4lessIS6_EELb1EEE13stl_allocatorIS7_L18MemLabelIdentifier88ELi16EEE7destroyEPNS_11__tree_nodeIS7_PvEE
uia:__ZN19EndOfFrameCallbacks7EnqueueEP18EndOfFrameCallbackb
qmi:_Input_set_compositionCursorPos_m1909373301
wad:__ZN27PerformanceReportingManager23VirtualRedirectTransferER24GenerateTypeTreeTransfer
Zef:_raccess_guess_vfat
Mhj:__Z78RuntimeInvoker_IntPtr_t_SByte_t1669577662_RuntimeObject_BooleanU26_t4125257963PFvvEPK10MethodInfoPvPS4_
Bmf:__Z44Canvas_CUSTOM_GetETC1SupportedCanvasMaterialv
Jq:FUNCTION_TABLE_viiiiifffi
L6h:_Decimal_decimalSetExponent_m3707787243
T0c:__ZN13InitialModule8TransferI18StreamedBinaryReadILb0EEEEvRT_
oie:__ZN5physx7NpScene26setSimulationEventCallbackEPNS_25PxSimulationEventCallbackEh
Rjm:__ZN14dense_hash_mapI10KeyWrapperIP14Il2CppIUnknownEjN6il2cpp5utils11PointerHashIS1_EENS3_14EqualsComparerINSt3__28equal_toIS2_EEEENS9_9allocatorINS9_4pairIKS3_jEEEEE13set_empty_keyERSF_
sHa:__ZN15dense_hashtableINSt3__24pairIK9TextureIDiEES2_14GfxGenericHashIS2_EN14GfxDoubleCacheIS2_iS6_NS0_8equal_toIS2_EEN31GfxDoubleCacheConcurrencyPolicy11LocklessGetE42GfxDoubleCacheDefaultEmptyDeletedGeneratorIS2_EE9SelectKeyES9_13stl_allocatorIS4_L18MemLabelIdentifier24ELi16EEE12resize_deltaEjj
C3a:__Z21DestroyShadowMapCacheP14ShadowMapCache
fsc:__Z21CountTrianglesInStripItEjPKT_j
Lwk:_Array_InternalArray__get_Item_TisLabelFixup_t858502054_m3276643490_gshared
cbm:__ZN15dense_hashtableINSt3__24pairIK10KeyWrapperIPK10Il2CppTypeEjEES6_N6il2cpp8metadata14Il2CppTypeHashEN14dense_hash_mapIS6_jSB_NS6_14EqualsComparerINSA_26Il2CppTypeEqualityComparerEEENS0_9allocatorIS8_EEE9SelectKeyESF_SH_E14squash_deletedEv
Yhm:__ZN6il2cpp2vm13LivenessState5ResetEv
PGd:__ZN5physx6shdfnd4sortIPvNS0_4LessIS2_EENS0_19ReflectionAllocatorINS_2Sc16ActorElementPairEEEEEvPT_jRKT0_RKT1_j
fMc:__ZN9JSONWrite8TransferI11KeyframeTplIfEEEvRT_PKc17TransferMetaFlags
wdl:_TiltInput_OnDisable_m2090632970
Reg:_SortedList_GetImpl_m3689246167
pPe:__ZN5physx2Gu15EdgeListBuilder18ComputeActiveEdgesEjPKjPKtPKNS_6PxVec3Ef
DIa:__ZN24BuiltinShaderParamValuesC2Ev
uMc:__ZL41CreateJSONTransferFunctionScriptingTraitsv
VO:__ZN9Animation15InitializeClassEv
Ssa:__ZN6Shader23VirtualRedirectTransferER14SafeBinaryRead
Ige:__ZN5physx17PxsContactManagerC2EPNS_10PxsContextEj
Vzi:_WaitForSecondsRealtime_get_keepWaiting_m846832224
Exl:_ObjectPool_1_get_countActive_m807006650_gshared
CTb:__Z23GetLateBehaviourManagerv
c1e:__Z46Register_UnityEngine_SphereCollider_get_radiusv
RCd:__ZN5physx6shdfnd5ArrayIPNS_7PxShapeENS0_15InlineAllocatorILj64ENS0_19ReflectionAllocatorIS3_EEEEE6resizeEjRKS3_
D7:__ZN10MemoryPool10DeallocateEPv
zIc:__ZN8GUIState8SetEventERK10InputEvent
Qpj:__Z80RuntimeInvoker_Void_t1185182177_ScriptableRenderContext_t274343796_RuntimeObjectPFvvEPK10MethodInfoPvPS4_
NNc:__ZL17Transfer_GUIStyleI9JSONWriteLb1EEvRK29SerializationCommandArgumentsR31RuntimeSerializationCommandInfo
$te:__ZN5physx2Gu22gjkRelativePenetrationINS0_9TriangleVENS0_10ShrunkBoxVEEEjRKT_RKT0_RKNS_6shdfnd3aos15PsMatTransformVERKNSB_6FloatVERNSB_5Vec3VESJ_SJ_RSF_PhSL_Rh
WUm:b172
PJm:dynCall_vif
QJm:dynCall_vid
Btb:__ZN26PlayerSettingsSplashScreen8TransferI24GenerateTypeTreeTransferEEvRT_
big:_Convert_ToSByte_m4075629912
SJm:dynCall_vii
gFh:_KeyPairPersistence_FromXml_m746585742
X$h:_Decoder__ctor_m4046021500
iRb:__Z18Transfer_BlittableI18StreamedBinaryReadILb0EELb0EdEvRK29SerializationCommandArgumentsR31RuntimeSerializationCommandInfo
Gvl:_UnityEvent_1_Invoke_m2734859485_gshared
VCf:_ColorBlock_get_fadeDuration_m121071467
p1l:__ZN6il2cpp6icalls8mscorlib6System8MonoType18GetFields_internalEP20Il2CppReflectionTypeiS5_
aea:__ZN5Unity9Component16CheckConsistencyEv
pXf:_MonoMethod_get_ContainsGenericParameters_m3860345224
Zfl:_U3CStartU3Ec__Iterator0_MoveNext_m1318001611
s8f:_Char_System_IConvertible_ToInt64_m1630543716_AdjustorThunk
Ali:_Gizmos_DrawLine_m3273476787
Bga:__ZN19ShaderPropertySheet37CreateTextureAuxPropertyUninitializedEN9ShaderLab16FastPropertyNameES1_PKc
eMb:__ZL26Transfer_SimpleNativeClassI19StreamedBinaryWriteILb0EE10RectOffsetLb1EEvRK29SerializationCommandArgumentsR31RuntimeSerializationCommandInfo
Brf:__ZN11UnityEngine7Connect17DeviceStatusEventD2Ev
GSm:b128
Rx:__ZN9Animation13BlendAdditiveEv
SDa:__ZN13GfxDeviceGLES17SetGpuProgramNameEP10GpuProgramPKc
p3:__ZNK11UnityEngine15CloudWebService25WebRequestDownloadHandler11GetProgressEv
VPh:_CategoryUtils_CategoryFromName_m1352081402
CHi:_Array_InternalArray__ICollection_Add_TisMonoResource_t4103430009_m2699164149_gshared
D$l:__ZN6il2cpp2vm13MetadataCache28GetMethodDefinitionFromIndexEi
Prm:__ZN6il2cpp2os20FileErrnoToErrorCodeEi
scb:__ZN14SafeBinaryRead19TransferSTLStyleMapINSt3__23mapI39DeprecatedFastPropertyNameSerialization10ColorRGBAfNS1_4lessIS3_EENS1_9allocatorINS1_4pairIKS3_S4_EEEEEEEEvRT_17TransferMetaFlags
n5h:_Decimal_ThrowAtPos_m1170269346
Wh:_atexit
xxh:_Selectable_set_image_m3625164794
gZg:_InternalEnumerator_1_get_Current_m1232221964_gshared
ovb:__ZNSt3__26vectorIN30RuntimeInitializeOnLoadManager9ClassInfoE13stl_allocatorIS2_L18MemLabelIdentifier13ELi16EEE6assignINS_11__wrap_iterIPS2_EEEENS_9enable_ifIXaasr21__is_forward_iteratorIT_EE5valuesr16is_constructibleIS2_NS_15iterator_traitsISC_E9referenceEEE5valueEvE4typeESC_SC_
yRk:_ReadOnlyCollection_1_System_Collections_Generic_IListU3CTU3E_Insert_m1818924748_gshared
F9l:__ZN6il2cpp2vmL31GetObjectForMissingDefaultValueEj
SAd:__ZN5physx3Cct17CapsuleController6resizeEf
hCf:_AspectRatioFitter__ctor_m2468506840
yLd:__ZN5physx6shdfnd8PoolBaseINS_2Cm5BlockIhLj384EEENS0_19ReflectionAllocatorIS4_EEE12allocateSlabEv
R6l:__ZNK15dense_hashtableINSt3__24pairIK10KeyWrapperIPK10Il2CppTypeEjEES6_N6il2cpp8metadata14Il2CppTypeHashEN14dense_hash_mapIS6_jSB_NS6_14EqualsComparerINSA_26Il2CppTypeEqualityComparerEEENS0_9allocatorIS8_EEE9SelectKeyESF_SH_E5beginEv
Zse:__Z13sweepAABBAABBRKN5physx6PxVec3ES2_S2_S2_S2_S2_
ypf:__ZN11UnityEngine15PlatformWrapper30GetVRPlayAreaBoundaryDimensionEv
mtk:_Array_Sort_TisBoolean_t97287965_TisBoolean_t97287965_m2753381653_gshared
dy:__ZN14AnimationState13CleanupCurvesEv
Iva:__ZN9ShaderLab14SerializedPassC2ERKS0_
DMc:__Z35Transfer_Blittable_FixedBufferFieldI9JSONWritehEvRK29SerializationCommandArgumentsR31RuntimeSerializationCommandInfo
d$d:__ZN5physx9NpPhysics20createParticleSystemEjb
l:STACKTOP
d5e:_cff_get_name_index
PPe:__ZN5physx17ConvexHullBuilder14CreateEdgeListEv
Oqc:__ZN17TransformInternal27UpdateDeepChildCountUpwardsER18TransformHierarchyii
pYh:_Single_System_IConvertible_ToBoolean_m1716619219_AdjustorThunk
tyf:_ExecuteEvents_Execute_m3613826831
Lte:__ZN5physxL24PxcSweepCapsuleTrianglesERKNS_11PxsCCDShapeES2_RKNS_11PxTransformES5_S5_S5_fRNS_6PxVec3ES7_RNS_10PxcNpCacheERNS_18PxcNpThreadContextERKNS_2Cm23FastVertex2ShapeScalingERNS_2Gu9TriangleVEf
XFf:_Image_set_type_m2038193736
VVl:__ZN6il2cpp2vm5Class19GetGenericContainerEP11Il2CppClass
iod:__ZN22WorldContactListener2D10EndContactEP9b2Contact
qac:__ZNK25CameraStackRenderingState25CalculateCameraTargetTypeEv
z:tempBigIntI
y:tempBigIntR
x:tempBigIntS
w:tempBigIntP
Do:FUNCTION_TABLE_viffi
Hef:_open_face_PS_from_sfnt_stream
tda:__ZN6Object18RegisterInstanceIDEPS_
uJb:__Z18Transfer_BlittableI24GenerateTypeTreeTransferLb1EsEvRK29SerializationCommandArgumentsR31RuntimeSerializationCommandInfo
$nm:__ZN15dense_hashtableINSt3__24pairIK10KeyWrapperIP12Il2CppObjectEN6il2cpp2gc9CachedCCWEEES5_NS7_5utils11PointerHashIS3_EEN14dense_hash_mapIS5_S9_SD_NS5_14EqualsComparerINS0_8equal_toIS4_EEEENS0_9allocatorISA_EEE9SelectKeyESI_SK_E11set_deletedER30dense_hashtable_const_iteratorISA_S5_SD_SM_SI_SK_E
YAa:__ZNK9GfxDevice18GetWorldViewMatrixEv
Otj:__Z70RuntimeInvoker_Single_t1397266774_Single_t1397266774_Int32_t2950945753PFvvEPK10MethodInfoPvPS4_
LVh:_X509Certificate_GetPublicKey_m4184729161
yve:__ZN5physx34solveContactCoulombPreBlock_StaticEPKNS_23PxcSolverConstraintDescEjRNS_16PxcSolverContextE
yig:_Convert_ToUInt16_m3902921832
xWh:_String_op_Equality_m920492651
vMf:_Assembly_GetTypes_m1724781913
PKj:__ZL54TypeBuilder_t1073948154_CustomAttributesCacheGeneratorP21CustomAttributesCache
jum:__ZN6il2cpp6icalls8mscorlib6System7Convert17Base64ToByteArrayEPDsib
O9c:__ZN15ParticlesModule18SyncSimulationJobsEv
cCe:__ZN5physx2Gu18pcmContactPlaneBoxERKNS0_13GeometryUnionES3_RKNS_11PxTransformES6_RKfRNS0_5CacheERNS0_13ContactBufferE
uoh:_Text_get_cachedTextGenerator_m2506989875
VYk:_List_1_AddEnumerable_m376418521_gshared
suc:__Z13EulerToMatrixRK8Vector3fR10Matrix3x3f
hlj:__Z79RuntimeInvoker_Void_t1185182177_Byte_t1134296376_Byte_t1134296376_RuntimeObjectPFvvEPK10MethodInfoPvPS4_
KYl:__ZNSt3__218__insertion_sort_3IRN6il2cpp5utils11collections13ArrayValueMapIPK10Il2CppType17Il2CppInteropData26InteropDataToTypeConverterNS1_8metadata14Il2CppTypeLessENSA_26Il2CppTypeEqualityComparerEE12SortComparerEPS8_EEvT0_SH_T_
AUd:__ZN5physx6shdfnd5ArrayIPNS_2Sq10ActorShapeENS0_19ReflectionAllocatorIS4_EEE15growAndPushBackERKS4_
xmd:__ZN11Rigidbody2D23VirtualRedirectTransferER14SafeBinaryRead
aBa:__ZNK9GfxDevice25GetDeviceProjectionMatrixEv
ta:invoke_iidiii
j6c:__Z4SortRK10Matrix4x4fS1_R23ParticleSystemParticles22ParticleSystemSortModeR31ParticleSystemParticlesTempData
g$:__ZN12AudioManager33GetCurrentAmbisonicDefinitionNameE31UnityAudioEffectDefinitionFlags
vwc:__ZN11UTF16StringC2EPKc10MemLabelId
Evd:__ZL13midPhaseQueryRKN5physx22PxTriangleMeshGeometryERKNS_11PxTransformERNS_2Gu3BoxERNS6_9ContainerE
UOc:__ZN9JSONWrite8TransferI13dynamic_arrayI4AABBLj4EEEEvRT_PKc17TransferMetaFlags
m0:__ZN5physx14PxLightCpuTask15removeReferenceEv
hZc:__ZN23ParticleSystemParticles17SetUses3DRotationEv
NUe:__ZN14SphereCollider23VirtualRedirectTransferER19StreamedBinaryWriteILb0EE
zpm:__ZN6il2cpp6icalls8mscorlib6System6String22RedirectToCreateStringEv
CKj:__ZL99ILGenerator_t1388622344_CustomAttributesCacheGenerator_ILGenerator_Mono_GetCurrentOffset_m993338688P21CustomAttributesCache
lrh:_LayoutRebuilder_ReapplyDrivenProperties_m2581469389
AXc:__ZNK11NoiseModule14CalculateNoiseILi2ELb0ELb1EEEvR23ParticleSystemParticlesRK27ParticleSystemReadOnlyStatejjRKN4math7_float4E
iGe:__ZN5physx6shdfnd5ArrayINS_24PxsConstraintBatchHeaderENS0_19ReflectionAllocatorIS2_EEE8recreateEj
_qi:_PropertyName_op_Implicit_m1633828199
Rga:__ZN9ShaderLab6TexEnvC2ERKNS_25SerializedTexturePropertyE
$oh:_InputField_Append_m687033660
Qhc:__Z28IntersectLineSegmentWithLineRK8Vector2fS1_S1_S1_RS_
X0a:__ZN9Transform32SetLocalScaleWithoutNotificationERKN4math7_float3Ey
Ebb:__ZN19ShaderPropertySheet38CopyTextureWithAuxiliaryPropertiesFromERKN9ShaderLab16FastPropertyNameERKS_
Pdf:__ZN20TextRenderingPrivate19NativeTextGeneratorD2Ev
g0l:__ZN6il2cpp2vm19SocketPollingThread14DequeueRequestEv
X$k:_List_1_CheckIndex_m2109147658_gshared
wrm:__ZL10RevealLinkPv
k1h:_DateTime__ctor_m12900168_AdjustorThunk
XHd:__ZN5physx6shdfnd8PoolBaseINS_2Sc26ActorPairContactReportDataENS0_19ReflectionAllocatorIS3_EEE12allocateSlabEv
KKg:_ClientSessionCache_FromContext_m343076119
Aj:___cxa_end_catch
fVh:_ToBase64Transform_TransformBlock_m2497349397
OIh:_NameValueCollection_Add_m2418530856
_hh:_ReturnMessage_get_MethodSignature_m399735125
fie:__ZN5physx7NpScene12createClientEv
Jmf:__Z43Register_UnityEngine_Canvas_set_scaleFactorv
YAh:_SortKeyBuffer_AppendLevel5_m3963841125
YOk:_ReadOnlyCollection_1_System_Collections_IList_RemoveAt_m3229959893_gshared
grl:_PositionAssertion_Compile_m2500980346
Hag:_ArrayListWrapper_ToArray_m3192696690
_ef:_raccess_guess_linux_cap
E$:__Z36AudioSource_Get_Custom_PropIsPlayingP12Il2CppObject
g6:__ZN20DynamicHeapAllocatorI17LowLevelAllocatorEC2EjjbP15BucketAllocatorPKc
uRb:__Z19TransferField_ArrayI18StreamedBinaryReadILb0EE27Converter_UnityEngineObjectEvRK23StaticTransferFieldInfoR31RuntimeSerializationCommandInfoRT0_
a5f:_Attribute_GetCustomAttribute_m4034845276
x7a:__ZN5Light8TransferI24GenerateTypeTreeTransferEEvRT_
etd:__ZN26ContactCapsuleMeshCallback10processHitERKN5physx12PxRaycastHitERKNS0_6PxVec3ES6_S6_RfPKj
Mla:__Z33InitializeBuiltinShaderParamNamesv
ASi:_Type_GetConstructor_m2219014380
Z_e:__ZN13PhysicsModule24CapsuleColliderSetHeightER15CapsuleColliderf
XNd:__ZN5physx6shdfnd5ArrayINS_19PxHeightFieldSampleENS0_19ReflectionAllocatorIS2_EEE6resizeEjRKS2_
Mye:__ZN5physx14PxsAABBManager25removeAggregateSinglePairEjPNS_9AggregateEPNS_2Cm10BitMapBaseINS_6shdfnd9AllocatorEEE
Aea:__ZNK16TypeTreeIterator4TypeEv
uZb:__ZN10FileSystem25MountDataFolderFileSystemERKN4core12basic_stringIcNS0_20StringStorageDefaultIcEEEES6_
B$f:_ArgumentOutOfRangeException__ctor_m282481429
Fyl:_GUILayoutUtility_Internal_MoveWindow_m3463958180
jk:_glGetUniformLocation
tCa:__ZN13GfxDeviceGLES32CreateColorRenderSurfacePlatformEP17RenderSurfaceBase19RenderTextureFormat
UR:__ZN12AudioManager24CreateFMODSoundFromMovieEP9AudioClip
bal:_EnemyFollow_OnTriggerStay2D_m2481207863
gfe:__ZN5physx2Sc10NPhaseCore9visualizeERNS_2Cm12RenderOutputE
GNe:__ZN5physx2Gu12TriangleMesh15exportExtraDataERNS_22PxSerializationContextE
C_l:__ZN6il2cpp2vm13MetadataCache24GetGenericInstanceMethodEPK10MethodInfoPK20Il2CppGenericContext
gsk:_Array_qsort_TisBoolean_t97287965_m2816768756_gshared
bwm:_GC_hblk_fl_from_blocks
wWf:_MonoField_GetParentType_m2478933781
Ica:__Z24ConvertSeparatorsToUnityPc
X8l:__ZN6il2cpp2gc19AppendOnlyGCHashMapINSt3__24pairIPK9EventInfoP11Il2CppClassEEP21Il2CppReflectionEvent17ReflectionMapHashIS9_ENS2_8equal_toIS9_EEE3AddERKS9_SB_
MAk:_Collection_1_System_Collections_ICollection_CopyTo_m46221116_gshared
Lfm:__ZN6il2cpp2vm6Thread20FreeThreadStaticDataEP12Il2CppThread
IFi:_Array_InternalArray__IndexOf_TisClientCertificateType_t1004704908_m3457772631_gshared
J8i:__Z28RuntimeInvoker_RuntimeObjectPFvvEPK10MethodInfoPvPS4_
U2c:__ZN11ForceModule13AwakeFromLoadEP14ParticleSystemRK27ParticleSystemReadOnlyState
VMd:__ZN5physx2Sc8BodyCore17setupSimStateDataEPNS_6shdfnd4PoolINS0_12SimStateDataENS2_19ReflectionAllocatorIS4_EEEEbb
_Le:__ZNK5physx2Gu10ConvexMesh14getLocalBoundsEv
kCf:_AspectRatioFitter_UpdateRect_m1081360677
n3e:_cf2_glyphpath_finalize
SQj:__ZL56SecurityAction_t569814076_CustomAttributesCacheGeneratorP21CustomAttributesCache
Q0b:__Z20LookRotationToMatrixRK8Vector3fS1_P10Matrix3x3f
jag:_ArrayListWrapper_set_Capacity_m2373297383
c8d:__Z25computePacketSizeMultLog2ff
MGc:__Z41Register_UnityEngine_Renderer_get_enabledv
COh:_X509Chain__ctor_m2674663382
yKm:dynCall_viififi
Z7i:_Enumerator_System_Collections_IEnumerator_Reset_m502339360_AdjustorThunk
yIj:__ZL58DictionaryEntry_t3123975638_CustomAttributesCacheGeneratorP21CustomAttributesCache
yLl:_TextGenerator_GetVerticesInternal_m3222977969
K5k:_List_1_RemoveAt_m4279084788_gshared
P8e:_UNITY_FT_Stream_Free
yfm:__ZN15dense_hashtableINSt3__24pairIK10KeyWrapperINS1_IP11Il2CppClassjEEES4_EES6_N6il2cpp8metadata14ArrayClassHashEN14dense_hash_mapIS6_S4_SB_NS6_14EqualsComparerINSA_17ArrayClassCompareEEENS0_9allocatorIS8_EEE9SelectKeyESF_SH_E12maybe_shrinkEv
yLc:__ZNK5Unity9rapidjson12GenericValueINS0_4UTF8IcEE13JSONAllocatorE6AcceptINS0_12PrettyWriterI16TempBufferWriterS3_S3_S4_EEEEbRT_
uAg:_CryptoConfig_EncodeLongNumber_m4127306320
Isj:__Z87RuntimeInvoker_Void_t1185182177_Single_t1397266774_Single_t1397266774_SByte_t1669577662PFvvEPK10MethodInfoPvPS4_
PIg:_CipherSuite_createEncryptionCipher_m2533565116
ige:__ZN5physx16PxsIslandManager18setEdgeUnconnectedERKNS_20PxsIslandManagerHookIjLj4294967295EEE
y1:__ZN11UnityEngine15CloudWebService14DataDispatcher25OnDataBlockConsumedStaticEPv
P8c:__ZN16CustomDataModuleC2E10MemLabelId
Kqd:__ZL27GeomMTDCallback_PlaneConvexRN5physx6PxVec3ERfRKNS_10PxGeometryERKNS_11PxTransformES5_S8_
I4k:_List_1_CheckIndex_m3044940639_gshared
Zzi:_GenericStack__ctor_m933681517
Pkm:__ZN6il2cpp2vmL36AddNestedTypesToNametoClassHashTableEP40Il2CppNameToTypeDefinitionIndexHashTablePKcRKNSt3__212basic_stringIcNS5_11char_traitsIcEENS5_9allocatorIcEEEEP11Il2CppClass
GPb:__Z29Transfer_Blittable_ArrayFieldI18StreamedBinaryReadILb1EE11QuaternionfEvRT_R9ArrayInfoRK23StaticTransferFieldInfo
avg:_Math_Max_m482125436
i$f:_ActivatedServiceTypeEntry_ToString_m1591455874
MMk:_ReadOnlyCollection_1_System_Collections_IList_RemoveAt_m2129436005_gshared
bXh:_SecurityElement_ToXml_m3664345083
WJi:_Array_InternalArray__Insert_TisParameterModifier_t1461694466_m3664994573_gshared
H:Math_pow
W0i:_DefaultComparer_Equals_m1870794912_gshared
jua:__Z14resize_trimmedINSt3__26vectorIN9ShaderLab20SerializedSubProgram16SamplerParameterENS0_9allocatorIS4_EEEEEvRT_j
wge:__ZN5physx6shdfnd5ArrayIPvNS0_15InlineAllocatorILj256ENS0_19ReflectionAllocatorINS_2Gu30LargePersistentContactManifoldEEEEEE15growAndPushBackERKS2_
Bqi:_PlayableHandle_GetPlayableType_Injected_m686992718
e1f:_SmallXmlParser_ReadUntil_m2715581630
KGm:__ZNSt3__212basic_stringIcNS_11char_traitsIcEENS_9allocatorIcEEE6insertEjPKcj
wMc:__Z44InitializeTransferFunctionScriptingTraitsForI8JSONReadEvR31TransferFunctionScriptingTraits
i4d:__ZN5physx2Sc13ClothBulkData15exportExtraDataERNS_22PxSerializationContextE
iYb:__ZNSt3__27__sort4IRNS_4lessIN22BuiltinResourceManager8ResourceEEEPS3_EEjT0_S7_S7_S7_T_
dIh:_ListDictionary_Add_m3918308031
Qnm:__ZNK15dense_hashtableINSt3__24pairIK10KeyWrapperIP12Il2CppObjectEN6il2cpp2gc9CachedCCWEEES5_NS7_5utils11PointerHashIS3_EEN14dense_hash_mapIS5_S9_SD_NS5_14EqualsComparerINS0_8equal_toIS4_EEEENS0_9allocatorISA_EEE9SelectKeyESI_SK_E23find_position_with_hashERS6_j
W$e:__ZN9Rigidbody7SetDragEf
gNj:__ZL66_CustomAttributeBuilder_t2519213356_CustomAttributesCacheGeneratorP21CustomAttributesCache
boh:_Selectable_OnDisable_m3225138518
xHd:__ZN5physx6shdfnd4sortIPvNS0_4LessIS2_EENS0_19ReflectionAllocatorINS_2Sc19ShapeInstancePairLLEEEEEvPT_jRKT0_RKT1_j
vBl:_AesManaged_CreateEncryptor_m1611897367
UMe:__ZN5physx13GuMeshFactory17createHeightFieldERKNS_17PxHeightFieldDescE
frg:_DelegatePInvokeWrapper_WriteDelegate_t4270993571
Jbc:__ZN10GameObject34AddFirstTransformComponentInternalEP9Transform
Qzc:__Z31Cursor_Get_Custom_PropLockStatev
fka:__ZNSt3__26__treeINS_12__value_typeINS_4pairIPcS3_EENS_3setIS3_15compare_tstringIPKcENS_9allocatorIS3_EEEEEENS_19__map_value_compareIS4_SD_20smaller_tstring_pairIS8_ELb1EEENSA_ISD_EEE7destroyEPNS_11__tree_nodeISD_PvEE
sY:__ZN12AudioManager29GetCurrentAmbisonicDefinitionE31UnityAudioEffectDefinitionFlags
sAc:__Z52Register_UnityEngine_GameObject_GetComponentInParentv
Isb:__ZN15SerializeTraitsINSt3__24pairIPKN5Unity4TypeE7Hash128EEE8TransferI14SafeBinaryReadEEvRS7_RT_
yvm:_GC_number_stack_black_listed
P6h:_Decimal_ToString_m4018746482_AdjustorThunk
W8b:__Z37GenerateCombinedDynamicVisibleListJobP11CullResults
hZi:_Dictionary_2_ToTKey_m2055624458_gshared
Uib:__ZNK13ScreenManager21GetCursorInsideWindowEv
St:__ZN14SafeBinaryRead21TransferSTLStyleArrayI22OffsetPtrArrayTransferI9OffsetPtrIN7mecanim12statemachine26SelectorTransitionConstantEEEEEvRT_17TransferMetaFlags
QNf:_CustomAttributeData_GetCustomAttributes_m1033457578
T_f:_SafeHandle_DangerousAddRef_m614714386
W5b:__Z20IntersectAABBFrustumRK4AABBPK5Planej
OVd:__ZN5physx6shdfnd8PoolBaseINS_2Sc13ConstraintSimENS0_19ReflectionAllocatorIS3_EEE17releaseEmptySlabsEv
Bwh:_ScrollRect_OnDrag_m688583138
loc:__ZN13RenderManager15InitializeClassEv
Xs:__ZNK18AnimatorController17GetAnimationClipsEv
hGb:__ZN15SerializeTraitsI12PropertyNameE8TransferI14SafeBinaryReadEEvRS0_RT_
Dcb:__ZN18UnityPropertySheet11UnityTexEnvC2Ev
$Kk:_ReadOnlyCollection_1_System_Collections_IList_IndexOf_m3120991897_gshared
ogh:_Header__ctor_m1921907550
jWe:__ZN5physx7profile8ZoneImplINS_28PxProfileNameProviderForwardEED0Ev
Dyh:_Slider_FindSelectableOnUp_m4062600878
u8f:_Convert_ToSByte_m1350241137
dni:_Material_SetIntImpl_m724477324
fKm:dynCall_iiiiiiiiiiffffii
ija:__GLOBAL__sub_I_runtime_baseclasses_2_cpp
DOc:__ZN9JSONWrite8TransferI11ColorRGBA32EEvRT_PKc17TransferMetaFlags
jRc:__Z22TransferField_NonArrayI8JSONRead27Converter_SimpleNativeClassI8GradientEEvRK23StaticTransferFieldInfoR31RuntimeSerializationCommandInfoRT0_
EUb:__ZN10MonoScript13AwakeFromLoadE17AwakeFromLoadMode
qRh:_Interval__ctor_m4022869013
tNf:_Default_ReorderParameters_m2076271671
D$a:__ZN10MemoryFile21CreateFileSystemEntryE10MemLabelId14FilePermissionPvjb
oRa:__ZNK18GfxFramebufferGLES15DiscardContentsER12ObjectHandleI17RenderSurface_TagP17RenderSurfaceBaseE
OPb:__ZN18StreamedBinaryReadILb1EE21TransferSTLStyleArrayI13dynamic_arrayIN4math12int3_storageELj4EEEEvRT_17TransferMetaFlags
x$l:__ZN6il2cpp2vm13MetadataCache27GetEventDefinitionFromIndexEi
Qig:_Convert_ToUInt64_m92315402
wgg:_Convert_ToChar_m3776556379
KNc:__Z18Transfer_BlittableI9JSONWriteLb1EdEvRK29SerializationCommandArgumentsR31RuntimeSerializationCommandInfo
bPm:_glGetIntegerv__wrapper
B0h:_EncoderExceptionFallback__ctor_m3745979420
sZd:__ZN5physx2Sc13ConstraintSim15preBodiesChangeEv
FVg:_InternalEnumerator_1_System_Collections_IEnumerator_get_Current_m435848551_gshared
_ea:__ZN10GameObject28FinalizeAddComponentInternalEPN5Unity9ComponentE
Vhk:__ZL57Image_t2670269651_CustomAttributesCacheGenerator_m_SpriteP21CustomAttributesCache
igb:__ZN9Texture2DD2Ev
MFl:_AudioExtensionManager_GetReadyToPlay_m1557263244
lig:_Convert_ToSingle_m164367433
fUe:__ZN14PhysicsManager8TransferI19StreamedBinaryWriteILb0EEEEvRT_
u5d:__ZNK5physx2Sc9ClothCore16getStretchConfigENS_22PxClothFabricPhaseType4EnumE
Mwk:_Array_InternalArray__get_Item_TisILTokenInfo_t2325775114_m3110830457_gshared
Tgg:_Convert_ToDecimal_m1284410333
ghi:_Camera_INTERNAL_CALL_RaycastTry2D_m3172975827
P3h:_DateTime_CheckStyle_m1392838900
WUc:__Z19UpdateProceduralTplIL27ParticleSystemCurveEvalMode0EEvRK22DualMinMax3DPolyCurvesS3_R23ParticleSystemParticlesRKN4math8float3x3E
dd:invoke_iiiifiiiii
foe:__ZN5physx2Sc5Scene31setClothInterCollisionStiffnessEf
fed:__ZN16PhysicsManager2D43RegisterTransformChangeInterestForRigidbodyEP11Rigidbody2D
Jxh:_Shadow_set_effectColor_m3910676693
lIh:_NameObjectCollectionBase__ctor_m2090733912
hQh:_Group__cctor_m2230627219
KAi:_Array_InternalArray__ICollection_Contains_TisDouble_t594665363_m1696010878_gshared
VDg:_BigInteger__cctor_m102257529
CHg:_RSAManaged_EncryptValue_m4149543654
Ds:__ZN13dynamic_arrayIhLj1EE18resize_initializedEjRKh12ResizePolicy
fpa:__ZN27IntermediateRendererManagerD2Ev
oxb:__ZN17PersistentManager27GetLoadErrorMessageFromPathERKN4core12basic_stringIcNS0_20StringStorageDefaultIcEEEE
xjl:_NetscapeCertTypeExtension_ToString_m1800688476
Zm:_glGenRenderbuffers
Chm:__ZN6il2cpp6icalls8mscorlib6System2IO6MonoIO19GetCurrentDirectoryEPi
NIe:__ZN5physx2Sc13ConstraintSim11projectPoseEPNS0_7BodySimE
vui:_Renderer_get_sortingOrder_m344607889
J6b:__Z21IntersectSegmentPlaneRK8Vector3fS1_RK5PlanePS_
$gj:__Z81RuntimeInvoker_Void_t1185182177_Int64_t3736567304_RuntimeObject_Int32_t2950945753PFvvEPK10MethodInfoPvPS4_
mmk:__ZL50Outline_t2536100125_CustomAttributesCacheGeneratorP21CustomAttributesCache
itb:__ZN14PlayerSettings23VirtualRedirectTransferER17RemapPPtrTransfer
ksl:_Uri_get_IsFile_m2450018824
vna:__ZN14CachingManager7DisposeEv
bAe:__ZN5physx21PxcContactCapsuleMeshERKNS_2Gu13GeometryUnionES3_RKNS_11PxTransformES6_RKfRNS_10PxcNpCacheERNS0_13ContactBufferE
iY:__ZN12AudioManager31GetCurrentSpatializerDefinitionEv
LHh:_HybridDictionary_Add_m912320053
Qoi:_MonoBehaviour_Invoke_m4227543964
Wnb:__ZN12MeshRenderer16UpdateCachedMeshEv
p$e:__ZN9Rigidbody11SetPositionERK8Vector3f
FAl:_KeyBuilder_IV_m3340234014
PFb:__Z19TransferField_ArrayI14SafeBinaryRead27Converter_SimpleNativeClassI8GradientEEvRK23StaticTransferFieldInfoR31RuntimeSerializationCommandInfoRT0_
d0i:_DefaultComparer_Equals_m1163494476_gshared
HBi:_Array_InternalArray__ICollection_Remove_TisDictionaryEntry_t3123975638_m3699186409_gshared
ALf:_Object_Equals_m1397037629
uJ:__ZNK27StateMachineBehaviourPlayer25FireStateMachineBehaviourEiiN7mecanim12statemachine19StateMachineMessageE
Bfi:_AsyncOperation_t1445031843_marshal_pinvoke_back
Jja:__GLOBAL__sub_I_runtime_utilities_4_cpp
psi:_Rect_get_center_m138276653
hWk:_Enumerator_System_Collections_IEnumerator_Reset_m900812475_gshared
W4e:_UNITY_FT_Stream_GetUShort
hBa:__ZN13GfxDeviceGLES14DisableScissorEv
Epe:__ZN5physx17PxcNpMemBlockPool23releaseConstraintMemoryEv
Vkj:__Z240RuntimeInvoker_RuntimeObject_Int16_t2552820387_RuntimeObject_Int32_t2950945753_Int32_t2950945753_Int32_t2950945753_SByte_t1669577662_SByte_t1669577662_SByte_t1669577662_SByte_t1669577662_Int16_t2552820387_SByte_t1669577662_SByte_t1669577662PFvvEPK10MethodInfoPvPS4_
gej:__Z64RuntimeInvoker_Double_t594665363_RuntimeObject_Int32_t2950945753PFvvEPK10MethodInfoPvPS4_
eQh:_Group__ctor_m2243671333
bTg:_InternalEnumerator_1_System_Collections_IEnumerator_get_Current_m2141782011_AdjustorThunk
r6h:_Decimal_decimalMult_m3812462972
yFe:__ZNK5physx10PxsContext25getManagerTouchEventCountEPiS1_S1_
uHc:__Z40Rigidbody2D_CUSTOM_set_velocity_InjectedP12Il2CppObjectRK13Vector2fIcall
jNg:_RecordProtocol_BeginSendRecord_m615249746
ud:_glVertexAttrib4f
xXk:_Enumerator_System_Collections_IEnumerator_get_Current_m209407522_AdjustorThunk
pji:_Display_get_systemHeight_m730809466
Kid:__ZN12b2BroadPhase13QueryCallbackEi
Pse:__ZN5physx6shdfnd4sortIPNS_10PxsCCDPairENS_13ToiPtrCompareENS0_19ReflectionAllocatorIS3_EEEEvPT_jRKT0_RKT1_j
FZk:_List_1_System_Collections_IList_Insert_m4074493513_gshared
GUb:__ZNK10MonoScript22GetTypeVirtualInternalEv
adf:__ZNSt3__26vectorINS_4pairINS1_IttEEfEENS_9allocatorIS3_EEE8__appendEj
WZc:__ZNK14ParticleSystem22GetTypeVirtualInternalEv
gsl:_Uri_GetOpaqueWiseSchemeDelimiter_m1909471550
waf:_UNITY_tt_face_get_location
axm:_GC_set_hdr_marks
Z5a:__Z17SetupObjectMatrixRK10Matrix4x4fi
K8f:_Char_Equals_m1279957088_AdjustorThunk
YZi:_Dictionary_2_OnDeserialization_m1254782141_gshared
jPd:__ZN5physx6shdfnd8PoolBaseINS_11NpAggregateENS0_19ReflectionAllocatorIS2_EEE17releaseEmptySlabsEv
ika:__ZN13RuntimeStaticINSt3__23mapINS0_4pairIPcS3_EEPFbPvR14SafeBinaryReadE20smaller_tstring_pairIPKcENS0_9allocatorINS2_IKS4_S9_EEEEEELb0EE13StaticDestroyES5_
oqg:_FileStream_FlushBufferIfDirty_m4249802951
I3g:_Enumerator_System_Collections_IEnumerator_Reset_m2020903703_gshared
s1g:_DefaultComparer_Compare_m1916473435_gshared
Gef:_open_face
imc:__ZZL31RegisterOtherRendererPropertiesR22GenericPropertyBindingEN30Wrapper_RendererReceiveShadows13SetFloatValueEPvf
blf:__Z17RegisterModule_UIv
ZJe:__ZN5physx2Sc17ParticleSystemSim19unlinkParticleShapeEPNS0_19ParticlePacketShapeE
exm:_GC_printf
Lvg:_MonoCustomAttrs_GetCustomAttributes_m1347331976
Noi:_Mesh_Clear_m2630385472
Aej:__Z46RuntimeInvoker_RuntimeObject_Int16_t2552820387PFvvEPK10MethodInfoPvPS4_
Ueh:_SynchronizationAttribute_set_Locked_m2760363037
Vjg:_Int16_Equals_m82811458
kHg:_PrivateKeyInfo_Decode_m986145117
rti:_RectOffset_get_top_m2855347295
MR:__ZN4FMOD5Sound11setUserDataEPv
lC:__ZN7mecanim9animation9DenseClip8TransferI18StreamedBinaryReadILb0EEEEvRT_
mta:__ZN14SafeBinaryRead21TransferSTLStyleArrayINSt3__26vectorIN9ShaderLab19SerializedSubShaderENS1_9allocatorIS4_EEEEEEvRT_17TransferMetaFlags
Hyf:_ExecuteEvents_Execute_m533210008
zdj:__Z137RuntimeInvoker_Void_t1185182177_Int32_t2950945753_RuntimeObject_RuntimeObject_RuntimeObject_RuntimeObject_RuntimeObject_SByte_t1669577662PFvvEPK10MethodInfoPvPS4_
bMd:__ZN5physx10PxsContext19destroyArticulationERNS_15PxsArticulationE
oH:__ZN27AnimationLayerMixerPlayable13SetInputCountEi
Z_a:__ZNK25SingleBlockMemoryFileData4SizeEv
DBe:__ZN5physx2Gu22GJKRelativePenetrationERKNS0_10ShrunkBoxVES3_RKNS_6shdfnd3aos15PsMatTransformVERKNS5_6FloatVERNS5_5Vec3VESD_SD_RS9_PhSF_Rh
BL:__ZN9BlobWrite8TransferIN7mecanim12statemachine18StateMachineMemoryEEEvRT_PKc17TransferMetaFlags
Kse:__ZN5physx2Cm12DelegateTaskINS_13PxsCCDContextEXadL_ZNS2_12postCCDSweepEPNS_10PxBaseTaskEEEE11runInternalEv
o9d:__ZN5physx23NpParticleFluidReadData18setDataAccessFlagsENS_7PxFlagsINS_16PxDataAccessFlag4EnumEhEE
KV:__ZL50UnityAudioEffect_InternalSetFloatParameterCallbackP14FMOD_DSP_STATEif
xnm:__ZNK15dense_hashtableINSt3__24pairIK10KeyWrapperIP12Il2CppObjectEN6il2cpp2gc9CachedCCWEEES5_NS7_5utils11PointerHashIS3_EEN14dense_hash_mapIS5_S9_SD_NS5_14EqualsComparerINS0_8equal_toIS4_EEEENS0_9allocatorISA_EEE9SelectKeyESI_SK_E3endEv
n2h:_DateTime_System_IConvertible_ToUInt32_m3781235049
DWe:__ZN5physx7profile8ZoneImplINS_28PxProfileNameProviderForwardEE10eventValueEtyx
o8c:__ZN14qsort_internal30FindAndMovePivotToLastPositionIP16ParticleSortDataiNSt3__24lessIS1_EEEEvT_S6_T0_T1_
yaj:__Z92RuntimeInvoker_Int32_t2950945753_RuntimeObject_RuntimeObject_SByte_t1669577662_RuntimeObjectPFvvEPK10MethodInfoPvPS4_
Ymg:_Int64_System_IConvertible_ToType_m3223988955
Q7b:__ZN14qsort_internal5QSortIP16RenderObjectDatai25RenderPrePassObjectSorterEEvT_S4_T0_T1_
ISi:_Type_GetGenericTypeDefinition_m639345035
JUh:_SymmetricAlgorithm_Dispose_m1120980942
mna:__ZL19StaticCleanupPlayerPv
Mvg:_MonoCustomAttrs_RetrieveAttributeUsage_m2717094301
U0e:__Z44Register_UnityEngine_Joint_get_connectedBodyv
ove:__ZN5physx24writeBackContactCoulomb4EPKNS_23PxcSolverConstraintDescERNS_16PxcSolverContextEPPKNS_17PxcSolverBodyDataES8_
Tei:_AnimationCurve_Init_m425927913
HW:__ZN12AudioManager37RebindAudioSourcesAndSubMixersToMixerEP10AudioMixer
BVa:__ZN9Behaviour10DeactivateE19DeactivateOperation
Sqh:_LayoutGroup_DelayedSetDirty_m2562435574
Jeb:__ZN13StreamingInfo8TransferI14SafeBinaryReadEEvRT_
kBi:_Array_InternalArray__ICollection_Contains_TisContactPoint_t3758755253_m1890115071_gshared
Pta:__ZN15dense_hashtableINSt3__24pairIKiN4core17string_with_labelILi1EEEEEi18SInt32HashFunctionN14dense_hash_mapIiS5_S7_NS0_8equal_toIiEE13stl_allocatorIS6_L18MemLabelIdentifier1ELi16EEE9SelectKeyESA_SD_E15insert_noresizeERKS6_
gRl:_Physics2D_Raycast_m1377762210
e8c:__Z22EvaluateRandomGradientIL12GradientMode0ELS0_0EEN4math4pix4ERK23OptimizedMinMaxGradientRKNS1_7_float4ES8_
ugf:__ZN13ProduceHelperIN20TextRenderingPrivate7GUITextELb0EE7ProduceE10MemLabelId18ObjectCreationMode
drm:__ZN6il2cpp2vmL22RaiseOverflowExceptionEv
Cr:__Z23CalculateGlobalRotation23TransformAccessReadOnly
Qcl:_Joystick_OnDisable_m2821923138
sya:__ZNK9ShaderLab7Program11IsSupportedEPK6Shader
wba:__ZNK4core8hash_mapIPKcPK4RTTIN11TypeManager23ConstCharPtrHashFunctorENS6_19ConstCharPtrEqualToEE6lookupERKS2_
Voe:__ZN5physx2Cm10FanoutTaskD0Ev
hUf:_TypeBuilder_GetMethodImpl_m3583143647
iUd:__ZN5physx14NpShapeManager26markAllSceneQueryForUpdateERNS_2Sq17SceneQueryManagerE
qlk:__ZL54LayoutGroup_t2436138090_CustomAttributesCacheGeneratorP21CustomAttributesCache
UFm:_strcat
mKd:__ZN5physx2Sc21ConstraintInteractionD2Ev
fmc:__Z43InitializeRendererAnimationBindingInterfacev
Dma:__ZL26DestroyGameObjectRecursiveR10GameObjectR11BatchDelete
rxm:_GC_allochblk_nth
Fwf:_BaseInput_get_touchSupported_m2634027966
Hwh:_ScrollRect_get_vScrollingNeeded_m1717136831
_Oe:__ZNK5physx2Gu9Container8ContainsEjPj
Zdi:_TextInfo_Equals_m3029092201
tlc:__Z7HaloTexP9Texture2DPhiiii
LCm:__ZNK6il2cpp8metadata23Il2CppGenericMethodHashclEPK19Il2CppGenericMethod
AGb:__ZN14SafeBinaryRead21TransferSTLStyleArrayI13dynamic_arrayIxLj8EEEEvRT_17TransferMetaFlags
uKm:dynCall_f
roe:__ZN5physx6shdfnd5ArrayIPNS_11PxAggregateENS0_19ReflectionAllocatorIS3_EEE15growAndPushBackERKS3_
aIh:_ListDictionary_GetEnumerator_m3395631195
I5e:_otv_JstfPriority_validate
zWc:__Z17UpdateGradientTplIL12GradientMode0ELS0_0EEvRK14MinMaxGradientR23ParticleSystemParticlesiRKN4math5_int4E
$Jb:__Z35Transfer_Blittable_FixedBufferFieldI24GenerateTypeTreeTransferjEvRK29SerializationCommandArgumentsR31RuntimeSerializationCommandInfo
f9a:__ZN8Playable13SetInputCountEi
BKm:dynCall_v
zPa:__ZN7ApiGLES14TextureSamplerEjjRK24GfxTextureSamplingParams17TextureColorSpace
Ieg:_SortedList_System_Collections_IEnumerable_GetEnumerator_m2738760439
bgm:__ZN6il2cpp2vm6Thread8SetStateEP12Il2CppThreadNS0_11ThreadStateE
b2a:__ZN6Camera23VirtualRedirectTransferER14SafeBinaryRead
ffi:_Application_get_isEditor_m857789090
Yqf:__ZN11UnityEngine7Connect13ConnectConfig11ConfigValueD2Ev
wQa:__ZNSt3__26__treeINS_12__value_typeIjP14DataBufferGLESEENS_19__map_value_compareIjS4_NS_4lessIjEELb1EEENS_9allocatorIS4_EEE7destroyEPNS_11__tree_nodeIS4_PvEE
IFg:_ASN1Convert_ToInt32_m2228176117
yfi:_AssetBundleRequest_t699759206_marshal_pinvoke_back
gQd:__ZN5physx14NpArticulationD0Ev
gqc:__ZN13PlayableGraph15SetPrepareStageE13DirectorStage
_b:invoke_viiiiiiii
wjg:_Int16_System_IConvertible_ToDateTime_m3080274979_AdjustorThunk
Wzk:_Collection_1_ConvertItem_m1760499239_gshared
BQa:__ZN18GfxFramebufferGLES24UpdateDefaultFramebufferEP17RenderSurfaceBaseS1_N2gl6HandleILNS2_10ObjectTypeE9EEE
fkj:__Z74RuntimeInvoker_RuntimeObject_RuntimeObject_Double_t594665363_RuntimeObjectPFvvEPK10MethodInfoPvPS4_
Bdg:_Hashtable_CopyTo_m2905447224
qOl:_Animator_ResetTrigger_m2321267720
Ktb:__ZN18StreamedBinaryReadILb0EE21TransferSTLStyleArrayI13dynamic_arrayIiLj4EEEEvRT_17TransferMetaFlags
Ogb:__ZN16LightmapSettings5ResetEv
yYa:__ZN12FileAccessor4ReadEyPvPy
u1c:__ZN25IParticleSystemProperties8PropertyI8Vector3fNS_5ClampILi0ELi1EEEE8TransferI18StreamedBinaryReadILb0EEEEvRT_PKc
lgk:__ZL132TouchInputModule_t4248229598_CustomAttributesCacheGenerator_TouchInputModule_t4248229598____allowActivationOnStandalone_PropertyInfoP21CustomAttributesCache
oaj:__Z67RuntimeInvoker_Void_t1185182177_Int16_t2552820387_Int32_t2950945753PFvvEPK10MethodInfoPvPS4_
ZJc:__Z42Register_UnityEngine_Event_get_commandNamev
hHk:_Collection_1_IsValidItem_m714924194_gshared
zLc:__ZN5Unity9rapidjson12PrettyWriterI16TempBufferWriterNS0_4UTF8IcEES4_13JSONAllocatorE12PrettyPrefixENS0_4TypeE
BMi:_UnicodeEncoding_GetString_m332467280
cyc:__ZN8TypeTreeC2E10MemLabelId
oda:__ZNK15FileSystemEntry6ExistsEv
Iob:__ZNK9Transform21GetLocalToWorldMatrixER10Matrix4x4f
jxi:_Transform_INTERNAL_get_rotation_m2413441996
GBf:_TouchInputModule_IsModuleSupported_m384818291
zLe:__ZN5physx2Gu10ConvexMesh4loadERNS_13PxInputStreamE
S3h:_DateTime_ToString_m884486936
iDj:__Z91RuntimeInvoker_RuntimeObject_ParticleCollisionEvent_t4055032941_RuntimeObject_RuntimeObjectPFvvEPK10MethodInfoPvPS4_
yGg:_MD4Managed_HashCore_m3384203071
PS:__ZN13AudioListener23VirtualRedirectTransferER19StreamedBinaryWriteILb0EE
TJg:_ClientRecordProtocol_createClientHandshakeMessage_m3325677558
qOe:__ZN5physx6shdfnd5ArrayIPvNS0_19ReflectionAllocatorIN17PxcPoolMallocData10PoolData16EEEE15growAndPushBackERKS2_
RCa:__ZN13GfxDeviceGLES11CopyTextureE9TextureIDS0_
Weg:_SortedList_get_Capacity_m919184864
I$i:_Dictionary_2_ContainsKey_m2278349286_gshared
lOm:_emscripten_glViewport__wrapper
YC:__ZN6Motion17MainThreadCleanupEv
A3:__ZN11UnityEngine15CloudWebService23WebRequestUploadHandler13GetUploadDataERj
Phi:_Color32_ToString_m403383053_AdjustorThunk
fSh:_RIPEMD160Managed_GG_m3020389474
fMl:_Canvas_get_sortingOrder_m1860900812
Kch:_ConfigHandler_ReadChannel_m781299361
vsi:_Rect_get_max_m350137314
Ulj:__Z99RuntimeInvoker_Void_t1185182177_Int32_t2950945753_Int32_t2950945753_SByte_t1669577662_RuntimeObjectPFvvEPK10MethodInfoPvPS4_
u9e:_tt_size_select
IA:__ZNSt3__214__split_bufferIN13AnimationClip10FloatCurveER13stl_allocatorIS2_L18MemLabelIdentifier26ELi16EEED2Ev
adh:_InternalRemotingServices_GetCachedSoapAttribute_m1042302982
Q1:__ZN11UnityEngine15CloudWebService17SessionEventQueue15RestoreFromFileER12FileAccessorPvy
_Of:_ConstructorBuilder_GetILGenerator_m1421260830
pim:__ZN6il2cpp2vm9Exception25RaiseOutOfMemoryExceptionEv
$sb:__ZN14PlayerSettingsD2Ev
Dsh:_RectMask2D_RemoveClippable_m773604960
d9c:__ZN14ParticleSystem16AssignRayBudgetsEv
A6c:__Z19UpdateWholeSheetTplIL27ParticleSystemCurveEvalMode2EEvfRK11MinMaxCurveS3_RK23ParticleSystemParticlesPf
ELh:_AsnEncodedData_SubjectAltName_m4049949414
Zug:_Math_Ceiling_m625148210
fwm:_GC_reclaim_all
pkd:__ZN10ClipperLib15FirstIsBottomPtEPKNS_5OutPtES2_
_pa:__ZN13PlayableGraph14DestroyOutputsEv
Wyk:_Enumerator_System_Collections_IEnumerator_get_Current_m3895111131_gshared
eg:___syscall122
W9c:__Z56ParticleSystem_MainModule_CUSTOM_SetStartSpeedMultiplierP12Il2CppObjectf
bxd:__ZN16RayRTreeCallbackILi1ELb1EED0Ev
hAe:__ZL18PxcContactHullHullRKN5physx2Gu13PolygonalDataES3_RKNS_9PxBounds3ES6_RKNS_11PxTransformES9_fRNS0_13ContactBufferERKNS_2Cm23FastVertex2ShapeScalingESF_bb
Xgg:_Convert_ToDecimal_m2858622624
PLf:_OperatingSystem__ctor_m1545635730
P3d:__ZN5physx7NpCloth16setContactOffsetEf
N3d:__ZN5physx7NpCloth23setSimulationFilterDataERKNS_12PxFilterDataE
S2k:_List_1_RemoveAll_m2406195485_gshared
yjd:__ZN19CompositeCollider2D22AddColliderToCompositeEP10Collider2DRK13dynamic_arrayIP7b2ShapeLj4EE
czh:_Text_get_resizeTextForBestFit_m1689289413
nqd:__ZN5physx3Cct26CharacterControllerManager21resetObstaclesBuffersEv
vJe:__ZN5physx6shdfnd5ArrayIPNS_10PxsCCDBodyENS0_19ReflectionAllocatorIS3_EEE8recreateEj
e_:__ZN9AudioClip16EnableLegacyModeEv
ueh:_Context_DoCallBack_m749197451
LMl:_CanvasRenderer_set_materialCount_m4286588063
Azc:__Z52Register_UnityEngine_Camera_INTERNAL_CALL_RaycastTryv
AFm:_mkdir
CEl:_VerticalLayoutGroup_SetLayoutHorizontal_m84550911
CEe:__ZN5physx6shdfnd8PoolBaseINS_21PxsBodyTransformVault13PxsBody2WorldENS0_19ReflectionAllocatorIS3_EEE12allocateSlabEv
FJh:_HttpWebRequest_get_ServicePoint_m3916606901
WWk:_Enumerator_MoveNext_m29052175_AdjustorThunk
lvi:_SendMouseEvents_SetMouseMoved_m2822596724
x0e:__Z33SpringJoint_Set_Custom_PropDamperP12Il2CppObjectf
UWc:__Z25MagnitudeUpdatePerAxisTplIL27ParticleSystemCurveEvalMode4EEvRK11MinMaxCurveS3_S3_RK27ParticleSystemReadOnlyStateRK19ParticleSystemStateR23ParticleSystemParticlesjjRKN4math7_float4Eb
Cxc:__ZN18ScriptingArguments13CopyFromOtherERKS_
aHh:_PKCS12_ReadSafeBag_m1585166574
Dbf:_ps_hints_close
zoc:__Z16CreateRenderLoopR6Camera
Kue:__ZN5physx20PxcNpCacheStreamPairC2ERNS_17PxcNpMemBlockPoolE
OTb:__ZN32SerializationCommandQueueBuilder3AddERK20SerializationCommand
E6:_tlsf_create
XPk:_ReadOnlyCollection_1_System_Collections_IEnumerable_GetEnumerator_m2505713430_gshared
SDm:_frexpl
mub:__ZN14SafeBinaryRead21TransferSTLStyleArrayINSt3__26vectorIN15ResourceManager10DependencyE13stl_allocatorIS4_L18MemLabelIdentifier52ELi16EEEEEEvRT_17TransferMetaFlags
Ijd:__ZN10ClipperLib7ClipperC1Ei
fTb:__ZN13MonoBehaviour23VirtualRedirectTransferER18StreamedBinaryReadILb0EE
mva:__ZN9ShaderLab20SerializedSubProgramC2ERKS0_
jTm:_emscripten_glCompileShader__wrapper
Alb:__ZN9Texture3D17UploadToGfxDeviceEv
swk:_Array_InternalArray__get_Item_TisKeyValuePair_2_t71524366_m252172060_gshared
CHm:__ZNK10__cxxabiv121__vmi_class_type_info27has_unambiguous_public_baseEPNS_19__dynamic_cast_infoEPvi
sxg:_MulticastDelegate_CombineImpl_m2857239134
dPk:_ReadOnlyCollection_1_Contains_m871979655_gshared
Krj:__Z171RuntimeInvoker_Void_t1185182177_RuntimeObject_RuntimeObject_RuntimeObject_RuntimeObject_RuntimeObject_RuntimeObject_RuntimeObject_RuntimeObject_RuntimeObject_RuntimeObjectPFvvEPK10MethodInfoPvPS4_
r6f:_Boolean_System_IConvertible_ToUInt16_m3465173538
zWi:_Version_op_Inequality_m1696193441
N_f:_Marshal_ReadByte_m1960935664
mFd:__ZNK5physx11PxAggregate8isKindOfEPKc
Vhb:__ZN15QualitySettings23VirtualRedirectTransferER19StreamedBinaryWriteILb0EE
P5c:__ZL24GenerateParticleGeometryIL24ParticleSystemRenderMode3ELb1ELb0EL25ParticleSystemRenderSpace0EEvPfRK22ParticleSystemTempDataRK26ParticleSystemRendererDataRK21ParticleSystemModulesRK23ParticleSystemParticlesRK31ParticleSystemParticlesTempData
zag:_ArrayListWrapper_CopyTo_m3756520478
xOe:__ZN5physx7Cooking16platformMismatchEv
d7a:__ZN5Light17MainThreadCleanupEv
nGe:__ZN5physx28solveParallelCouloumFrictionERNS_18PxsDynamicsContextEjjPNS_13PxcSolverBodyEPNS_17PxcSolverBodyDataEjjPNS_25PxcArticulationSolverDescEjPNS_23PxcSolverConstraintDescEjS9_jPiSA_SA_SA_SA_SA_PNS_25PxcThresholdStreamElementEjSA_PNS_2Cm13SpatialVectorEPKPNS_11PxsBodyCoreERNSD_10BitMapBaseINS_6shdfnd9AllocatorEEEPKPNS_15PxsArticulationEjPViRNSL_5ArrayINS_24PxsConstraintBatchHeaderENSL_19ReflectionAllocatorISW_EEEES10_RNSV_IjNSX_IjEEEES13_PPNS_12PxsRigidBodyEj
_mc:__ZN8Material12CleanupClassEv
smc:__ZN8Material8GetFloatEN9ShaderLab16FastPropertyNameE
Zte:__ZN5physx2Gu18gjkRelativeRayCastINS0_9TriangleVENS0_4BoxVES2_NS0_10ShrunkBoxVEEEbRT_RT0_RKNS_6shdfnd3aos15PsMatTransformVERKNSA_6FloatVERKNSA_5Vec3VESJ_RSE_RSH_SL_fb
hIc:__Z11GetGUIStatev
qcm:_il2cpp_array_element_size
eh:_glGetActiveUniform
UFi:_Array_InternalArray__IndexOf_TisSlot_t3975888750_m4250446283_gshared
BWd:__ZN5physx2Sc8BodyCoreD2Ev
wql:_CharacterClass_AddCharacter_m2370152363
Mia:__ZN15SerializeTraitsI10ColorRGBAfE8TransferI14SafeBinaryReadEEvRS0_RT_
eKk:_Collection_1_IsValidItem_m2333176545_gshared
jna:__ZN22BuiltinResourceManager13StaticDestroyEPv
kTl:_MainModule_get_startLifetimeMultiplier_m1798732576_AdjustorThunk
UYl:__ZN15dense_hashtableINSt3__24pairIK10KeyWrapperIN6il2cpp5utils13dynamic_arrayIPK10Il2CppTypeLj4EEEEPFvvEEESA_NS3_8metadata19Il2CppSignatureHashEN14dense_hash_mapISA_SD_SG_NSA_14EqualsComparerINSF_22Il2CppSignatureCompareEEENS0_9allocatorISE_EEE9SelectKeyESK_SM_E4findERSB_
Xfd:__ZNK14b2CapsuleShape11ComputeMassEP10b2MassDataf
vma:__ZN10GameObject17GetComponentIndexEPN5Unity9ComponentE
Q2d:__ZN5physx7NpCloth20setMotionConstraintsEPKNS_31PxClothParticleMotionConstraintE
zjb:__ZN14SafeBinaryRead21TransferSTLStyleArrayI13dynamic_arrayI7SubMeshLj4EEEEvRT_17TransferMetaFlags
xrk:_Array_InternalArray__set_Item_TisILTokenInfo_t2325775114_m309595583_gshared
wV:__ZN29AudioEffectInternalDefinition9CreateDSPEPN4FMOD6SystemEPvPfP23UnityAudioAmbisonicDataPP25UnityAudioSpatializerData
j7c:__Z19UpdateSingleRow2TplIL27ParticleSystemCurveEvalMode2ELS0_3EEvfRK11MinMaxCurveS3_RK23ParticleSystemParticlesPfbiii
jbf:_UNITY_tt_face_vary_cvt
xwb:__ZN13RenderManager18UpdateAllRenderersEv
Rxl:_Event_Internal_GetMousePosition_m1101229675
nLe:__ZNK5physx2Sc15ClothFabricCore9getPhasesEPNS_18PxClothFabricPhaseEj
kdc:__ZN35RegisterRuntimeInitializeAndCleanup22ExecuteInitializationsEv
_ed:__Z14b2TimeOfImpactP11b2TOIOutputPK10b2TOIInput
J9c:__ZN11MinMaxCurve14ResetMinCurvesEv
Srl:_UriParser_GetParser_m544052729
Xoh:_Text_get_font_m2857203289
kQm:b100
aXa:__ZN23PreloadManagerOperation14SetFinalTimingEffff
i:DYNAMICTOP_PTR
GSf:_MethodBuilder_fixup_m1765890582
Y$b:__Z11CopyTextureP7TextureiiS0_ii
Lsb:__ZN13BuildSettings8TransferI18StreamedBinaryReadILb0EEEEvRT_
rvg:_MissingFieldException__ctor_m4282575076
l6h:_Decimal_Equals_m2592017260
qoc:__ZN10GameObject15InitializeClassEv
Fme:__ZN5physx3Scb17ArticulationJoint9syncStateEv
Fte:__ZNK5physx2Gu29EPASupportMapPairRelativeImplINS0_8CapsuleVENS0_4BoxVEE18doWarmStartSupportEiiRNS_6shdfnd3aos5Vec3VES8_S8_
udh:_RemotingConfiguration_RegisterTypes_m2378540395
KGc:__Z38Renderer_Get_Custom_PropSortingLayerIDP12Il2CppObject
yIe:__ZN5physx17PxsThresholdTable5buildERKNS_18PxsThresholdStreamE
nXg:_InternalEnumerator_1_System_Collections_IEnumerator_get_Current_m767948013_gshared
lii:_DelegatePInvokeWrapper_CSSMeasureFunc_t1554030124
lfi:_UnityAction_Invoke_m893829196
GA:__ZN13AnimationClip10FloatCurveC2ERKS0_
iye:__ZN9BoxPruner12updateObjectERK5IAABBt
UHd:__ZN5physx2Sc10NPhaseCore32createActorPairContactReportDataEv
fCe:__ZN5physx2Gu22pcmContactPlaneCapsuleERKNS0_13GeometryUnionES3_RKNS_11PxTransformES6_RKfRNS0_5CacheERNS0_13ContactBufferE
LXa:__ZN14AsyncOperationD0Ev
_Ga:__Z29TextureIdMapGLES_QueryOrAlloc9TextureID
ypi:_Object_Internal_InstantiateSingle_m4074556765
WWc:__Z18MagnitudeUpdateTplIL27ParticleSystemCurveEvalMode3EEvRK11MinMaxCurveR23ParticleSystemParticlesjjRKN4math7_float4E
rhi:_Color_GetHashCode_m1829208463
XXe:__ZN5physx6shdfnd4sortIPvNS0_4LessIS2_EENS0_19ReflectionAllocatorINS_24NpPtrTableStorageManager8PtrBlockILi4EEEEEEEvPT_jRKT0_RKT1_j
Nwc:__Z25scripting_raise_exception21ScriptingExceptionPtr
Dph:_Text_get_cachedTextGeneratorForLayout_m116487342
xQl:__ZL11decimalLog2P19il2cpp_decimal_repr
vub:__ZN15ResourceManager10Dependency8TransferI14SafeBinaryReadEEvRT_
kwe:__ZNK5physx29BroadPhaseBatchUpdateWorkTask7getNameEv
zEk:_Collection_1_System_Collections_IList_Remove_m3800279569_gshared
Jvm:_GC_extend_size_map
Yyh:_Text_FontTextureChanged_m495427969
Skg:_NumberFormatter_RoundDecimal_m2957290908
_V:__ZN4FMOD6System9setDriverEi
f8:__ZNK9Transform11GetRotationEv
sPm:_emscripten_glGetIntegerv__wrapper
fW:__ZN12AudioManager15DidReloadDomainEv
kle:__ZN5physx2Sc5Scene26setVisualizationCullingBoxERKNS_9PxBounds3E
KHi:_Array_InternalArray__ICollection_Add_TisSingle_t1397266774_m1873979703_gshared
_bf:_pshinter_get_globals_funcs
aKb:__Z18Transfer_BlittableI24GenerateTypeTreeTransferLb0EyEvRK29SerializationCommandArgumentsR31RuntimeSerializationCommandInfo
Zbb:__ZN8Material14CreateMaterialER6ShaderN6Object9HideFlagsEb
wQi:_TimeSpan_get_Minutes_m4278980001_AdjustorThunk
_Zc:__ZN14ParticleSystem23VirtualRedirectTransferER24GenerateTypeTreeTransfer
h8e:_tt_cmap12_char_map_binary
gyl:_GUI__cctor_m3051457990
TZe:__Z27GetMeshAssetPathDescriptivePK4Mesh
Jxf:_EventSystem_IsPointerOverGameObject_m1911785875
Vga:__Z25GetBuiltinResourceManagerv
Xqe:__ZN5physx2Sq16BucketPrunerCore20allocateSortedMemoryEj
bx:__ZN9Animation17RemoveFromManagerEv
mz:__ZN6Motion21AddSelfToDependenciesER8UserList
Wmm:__ZN6il2cpp2gc8GCHandle15GetTargetHandleEP12Il2CppObjectii
Flg:_Int32_System_IConvertible_ToByte_m3832391412
Di:_llvm_trap
Sla:__ZNSt3__27__sort5IRNS_6__lessIN12_GLOBAL__N_114ParamNameIndexES3_EEPS3_EEjT0_S7_S7_S7_S7_T_
Vfl:_ParticleSystemDestroyer__ctor_m658999402
Ykl:_X509Certificate_VerifySignature_m3988463526
Jti:_RectTransform_get_anchoredPosition_m1813443094
ewm:_get_index
Pz:__ZN11UnityEngine9Animation14GenericBinding8TransferI14SafeBinaryReadEEvRT_
tze:__ZNK5physx14SingleAABBTask7getNameEv
djg:_GuidParser_AtEnd_m3409982497
aQe:__ZN5physx11HullLibrary11calchullgenEPNS_6float3Eiif
NEh:_KeyBuilder_Key_m876696100
P2a:__Z26scripting_method_get_class18ScriptingMethodPtr
w5l:__ZN15dense_hashtableINSt3__24pairIK10KeyWrapperINS1_IPK14Il2CppAssemblyP11Il2CppClassEEEjEES9_17ReflectionMapHashIS8_EN14dense_hash_mapIS9_jSD_NS9_14EqualsComparerINS0_8equal_toIS8_EEEENS0_9allocatorISB_EEE9SelectKeyESI_SK_EC2ERKSN_j
F6a:__ZN17CollisionMeshData20VertexDataHasChangedEv
s0l:__ZN6il2cpp2vm21ThreadPoolCompartment12DetachThreadEP12Il2CppThread
mzg:_SByte_System_IConvertible_ToInt16_m885121451_AdjustorThunk
m5h:_Decimal_stripStyles_m1823381019
oCa:__ZN13GfxDeviceGLES30SetBackBufferColorDepthSurfaceEP17RenderSurfaceBaseS1_
NKc:__Z52Register_UnityEngine_GUIUtility_get_systemCopyBufferv
$vk:_LayoutGroup_SetProperty_TisBoolean_t97287965_m3903959758_gshared
sqc:__ZN16StreamedResource8TransferI18StreamedBinaryReadILb0EEEEvRT_
dCc:__Z49Register_UnityEngine_Input_get_imeCompositionModev
Cke:__ZN5physx6shdfnd5ArrayINS_12PxActorShapeENS0_19ReflectionAllocatorIS2_EEE8recreateEj
Ota:__ZN15dense_hashtableINSt3__24pairIKiN4core17string_with_labelILi1EEEEEi18SInt32HashFunctionN14dense_hash_mapIiS5_S7_NS0_8equal_toIiEE13stl_allocatorIS6_L18MemLabelIdentifier1ELi16EEE9SelectKeyESA_SD_E12resize_deltaEjj
jac:__ZNK20OcclusionCullingData22GetStaticRendererCountEv
zil:_TlsStream_get_EOF_m953226442
tSc:__GLOBAL__sub_I_runtime_particlesystem_modules_5_cpp
vp:FUNCTION_TABLE_iiiiifi
vTm:_emscripten_glDisableVertexAttribArray__wrapper
