pd:_glClearStencil
dTi:_UInt16_System_IConvertible_ToChar_m2096055221_AdjustorThunk
LCi:_Array_TrueForAll_TisRuntimeObject_m1084992726_gshared
_vd:__ZN5physx2Gu19gjkLocalPenetrationINS0_8CapsuleVENS0_17ShrunkConvexHullVEEEjRKT_RKT0_RKNS_6shdfnd3aos6FloatVERNSB_5Vec3VESG_SG_RSC_PhSI_Rhb
rdk:__ZL95CanvasRenderer_t2598313366_CustomAttributesCacheGenerator_CanvasRenderer_SetMaterial_m824577244P21CustomAttributesCache
arm:__ZN6il2cpp2vm5Array13GetByteLengthEP11Il2CppArray
lrk:_Array_InternalArray__set_Item_TisDateTime_t3738529785_m1331437427_gshared
DAl:_KeyBuilder_get_Rng_m3373220441
Xtf:__ZN15DownloadHandler7OnAbortEv
e2a:__Z30GetIntermediateRendererManagerv
iUk:_U3CCreateWhereIteratorU3Ec__Iterator1D_1_System_Collections_Generic_IEnumeratorU3CTSourceU3E_get_Current_m1909387290_gshared
tt:__ZN10StateRange8TransferI14SafeBinaryReadEEvRT_
GJa:__Z21SourceMipLevelForBlitiiii
K6a:__ZN31CanvasBatchIntermediateRenderer15AddAsRenderNodeER15RenderNodeQueueRK20DeprecatedSourceData
sQi:_TimeSpan_get_Hours_m550761902
S9j:__ZL72GUISkin_t1244372282_CustomAttributesCacheGenerator_m_verticalSliderThumbP21CustomAttributesCache
JPh:_Capture_get_Index_m745081289
r2j:__ZL63PlayableOutputHandle_t4208053793_CustomAttributesCacheGeneratorP21CustomAttributesCache
pDf:_CanvasScaler_get_defaultSpriteDPI_m871626936
Ipf:__ZN11UnityEngine7Connect14AppUpdateEventD0Ev
iak:__ZL57ParticleSystem_t1800779281_CustomAttributesCacheGeneratorP21CustomAttributesCache
sGj:__ZL66RuntimeArray_CustomAttributesCacheGenerator_Array_Sort_m3287581440P21CustomAttributesCache
SBl:_AnalyticsEventTracker_SendEvent_m1365958832
Yne:__ZNK5physx2Sc5Scene24getContactModifyCallbackEv
G6:__ZdlPv
Dw:__ZN11UnityEngine9Animation28GenericAnimationBindingCacheD2Ev
cre:__ZN5physx2Sq10AABBPruner10addObjectsEPjPKNS_9PxBounds3EPKNS0_13PrunerPayloadEj
lpk:__ZL164U3CStartU3Ec__Iterator0_t980021917_CustomAttributesCacheGenerator_U3CStartU3Ec__Iterator0_System_Collections_Generic_IEnumeratorU3CobjectU3E_get_Current_m2893473997P21CustomAttributesCache
Wtk:_Array_Sort_TisUICharInfo_t75501106_TisUICharInfo_t75501106_m722747892_gshared
Tx:__ZN15AnimationBinder13SetFloatValueERK20BoundCurveDeprecatedf
Gdm:_il2cpp_runtime_unhandled_exception_policy_set
$bg:_CaseInsensitiveComparer__ctor_m2101975011
bdj:__Z67RuntimeInvoker_Byte_t1134296376_Int32_t2950945753_Int32_t2950945753PFvvEPK10MethodInfoPvPS4_
Gbj:__Z53RuntimeInvoker_UInt32_t2560061978_Decimal_t2948259380PFvvEPK10MethodInfoPvPS4_
nc:invoke_viiiifiiiiif
wbc:__Z18RestoreRenderStateR20CameraRenderOldStateR17ShaderPassContext
SNb:__Z18Transfer_BlittableI18StreamedBinaryReadILb1EELb1E5RectTIfEEvRK29SerializationCommandArgumentsR31RuntimeSerializationCommandInfo
KJb:__Z18Transfer_BlittableI24GenerateTypeTreeTransferLb0E11ColorRGBA32EvRK29SerializationCommandArgumentsR31RuntimeSerializationCommandInfo
DSb:__Z25scripting_class_from_name17ScriptingImagePtrPKcS1_
Z9c:__Z56ParticleSystem_MainModule_CUSTOM_GetStartSizeXMultiplierP12Il2CppObject
PFi:_Array_InternalArray__IndexOf_TisKeyValuePair_2_t3699644050_m1021241249_gshared
Gbm:__ZN14dense_hash_mapI10KeyWrapperINSt3__24pairIPK12PropertyInfoP11Il2CppClassEEEj17ReflectionMapHashIS8_ENS9_14EqualsComparerINS1_8equal_toIS8_EEEENS1_9allocatorINS2_IKS9_jEEEEE15set_deleted_keyERSH_
cUb:__Z29scripting_class_enum_basetype17ScriptingClassPtr
rGd:__ZN5physx6shdfnd8PoolBaseINS_2Sc10NPhaseCore16ClothListElementENS0_19ReflectionAllocatorIS4_EEE17releaseEmptySlabsEv
u7:__ZNK12BaseRenderer18GetRenderNodeCountEv
qed:__ZN16PhysicsManager2D7RaycastERK3RayfiR12RaycastHit2D
$Je:__ZN5physx2Sc14ConstraintCore10breakApartEv
ETf:_PropertyBuilder_get_CanWrite_m2657562188
o0g:_InternalEnumerator_1_get_Current_m1477715453_gshared
u8i:_Enumerator__ctor_m2827156589_AdjustorThunk
fBb:__ZNK20LocalFileSystemPosix6ParentERK13FileEntryDataRN4core12basic_stringIcNS3_20StringStorageDefaultIcEEEE
_ti:_RectTransform_GetWorldCorners_m3553547973
PQe:__ZN5physx7Cooking20loadTriangleMeshDescERKNS_18PxTriangleMeshDescERNS_19TriangleMeshBuilderE
NDk:_Collection_1_System_Collections_IList_Remove_m1476284619_gshared
Wzh:_ContractionComparer__ctor_m3439667810
Rwg:_MonoType_IsPrimitiveImpl_m2401722705
uTh:_SHA1CryptoServiceProvider__ctor_m4195188793
uJd:__ZN5physx9NpFactory21releaseConnectorArrayEPNS_16NpConnectorArrayE
oii:_CSSMeasureFunc_BeginInvoke_m3802154595
lIf:_Graphic_get_defaultGraphicMaterial_m3107284931
due:__ZNK5physx2Gu29EPASupportMapPairRelativeImplINS0_9TriangleVENS0_4BoxVEE6getDirEv
Dic:__Z13RegisterClassI12InputManagerEvv
qXa:__ZN17PersistentManager22CheckInstanceIDsLoadedEPii
_xg:_NumberFormatter_NumberToString_m264078176
IBi:_Array_InternalArray__ICollection_Remove_TisLink_t3209266973_m897088622_gshared
Pyi:_Vector2_get_up_m2647420593
kHa:__ZN7ApiGLES17CopyBufferSubDataEjjlll
YIi:_Array_InternalArray__ICollection_CopyTo_TisUInt64_t4134040092_m691431926_gshared
rDk:__ZN23InterfaceActionInvoker2Ii22OrderBlock_t1585977831E6InvokeEjP11Il2CppClassP12Il2CppObjectiS0_
hKh:_IPAddress_ToString_m1181734207
_Li:_StringBuilder_Append_m1965104174
XKc:__ZN5Unity9rapidjson15GenericDocumentINS0_4UTF8IcEE13JSONAllocatorS4_E11ParseStreamILj1ES3_NS0_25GenericInsituStringStreamIS3_EEEERS5_RT1_
QVl:__ZNSt3__26vectorIPK10Il2CppTypeNS_9allocatorIS3_EEE7reserveEj
b2i:_EqualityComparer_1__cctor_m3766928733_gshared
D3b:__ZN25CameraStackRenderingState20GetOrCreateBuiltinRTE24BuiltinRenderTextureTypeii17DepthBufferFormat19RenderTextureFormatj22RenderTextureReadWrite14VRTextureUsagei
Rul:_UnityAction_1_Invoke_m610765085_gshared
UZ:__ZN11AudioModule26SetDefaultMicrophoneDriverEPv
K6d:__ZNK5physx15NpActorTemplateINS_15PxParticleFluidEE22getClientBehaviorFlagsEv
pEg:_Kernel_modInverse_m652700340
Skb:__ZNK14Texture2DArray26CanReuploadDataToGfxDeviceEv
S7b:__ZN17PrePassRenderLoop14RenderBasePassEP13RenderTextureRK14LightingLayersR13dynamic_arrayI16RenderObjectDataLj4EERbR10MinMaxAABB
d0a:__ZN17GlobalGameManager23VirtualRedirectTransferER17RemapPPtrTransfer
O8e:_sfnt_stream_close
MIc:__ZN5IMGUI18RepaintModalWindowER8GUIState
GHh:_HybridDictionary_get_IsSynchronized_m2987560362
Ufa:__ZNK15dense_hashtableINSt3__24pairIKN9ShaderLab7Program23ShaderKeywordSetAndHashEPKNS2_10SubProgramEEES4_NS3_24ShaderKeywordHashFunctorEN14dense_hash_mapIS4_S8_SA_NS0_8equal_toIS4_EE13stl_allocatorIS9_L18MemLabelIdentifier67ELi16EEE9SelectKeyESD_SG_E23find_position_with_hashERS5_j
Mbi:_CompareInfo_Finalize_m404687489
Bjb:__Z23SetSpriteMeshIndexCountP14SharedMeshDataj
WNi:_UTF8Decoder_GetChars_m1236346907
Hwi:_TouchScreenKeyboard_Open_m231964201
Cbb:__ZN7Texture13SetFilterModeEi
Bri:_Quaternion_GetHashCode_m2636680144_AdjustorThunk
XXb:__ZNSt3__26vectorINS_4pairIiN17InstancingBatcher12PropertyTypeEEE13stl_allocatorIS4_L18MemLabelIdentifier1ELi16EEE21__push_back_slow_pathIKS4_EEvRT_
i8j:__ZL99AudioSource_t3935305588_CustomAttributesCacheGenerator_AudioSource_t3935305588____clip_PropertyInfoP21CustomAttributesCache
Bsm:__ZN6il2cpp8metadata13GenericMethod9GetMethodEPK19Il2CppGenericMethod
$r:__ZNSt3__26vectorIN4core12basic_stringIcNS1_20StringStorageDefaultIcEEEENS_9allocatorIS5_EEE7reserveEj
CNf:_Default_SelectProperty_m1220817815
sjh:_RemotingConfiguration_IsRemotelyActivatedClientType_m4117048589
aui:_Transform_TransformPoint_m226827784
lxl:_ListPool_1_Get_m738675669_gshared
dBa:__ZN13GfxDeviceGLES11SetViewportERK5RectTIiE
p7c:__Z19UpdateSingleRow2TplIL27ParticleSystemCurveEvalMode3ELS0_2EEvfRK11MinMaxCurveS3_RK23ParticleSystemParticlesPfbiii
TEc:__Z24Time_Get_Custom_PropTimev
bc:invoke_vifiiii
Ie:_emscripten_glDepthRange
_Og:_SslStreamBase_BeginNegotiateHandshake_m4180435790
z2j:__ZL104SceneManager_t2787271929_CustomAttributesCacheGenerator_SceneManager_INTERNAL_CALL_GetSceneAt_m121986796P21CustomAttributesCache
Yqd:__ZN5physx2Gu24contactConvexHeightfieldERKNS0_13GeometryUnionES3_RKNS_11PxTransformES6_RKfRNS0_5CacheERNS0_13ContactBufferE
XKd:__ZN5physx6shdfnd5ArrayIPvNS0_19ReflectionAllocatorINS_2Cm5BlockIS2_Lj8EEEEEE15growAndPushBackERKS2_
Ldc:__ZNSt3__26vectorINS_4pairIN4core12basic_stringIcNS2_20StringStorageDefaultIcEEEES6_EE13stl_allocatorIS7_L18MemLabelIdentifier38ELi16EEE12__move_rangeEPS7_SC_SC_
nua:__Z14resize_trimmedINSt3__26vectorIN9ShaderLab20SerializedSubProgram12UAVParameterENS0_9allocatorIS4_EEEEEvRT_j
pLc:__ZN5Unity9rapidjson13GenericReaderINS0_4UTF8IcEES3_13JSONAllocatorE11ParseObjectILj1ENS0_25GenericInsituStringStreamIS3_EENS0_15GenericDocumentIS3_S4_S4_EEEEvRT0_RT1_
lsc:__Z10DestripifyPKjjRNSt3__26vectorIj13stl_allocatorIjL18MemLabelIdentifier1ELi16EEEE
wBf:_StandaloneInputModule_GetRawMoveVector_m2737091079
Luc:__ZN13BuildSettings34ConvertScenePathToDisplayScenePathERKN4core12basic_stringIcNS0_20StringStorageDefaultIcEEEE
Mjk:__ZL62Selectable_t3250028441_CustomAttributesCacheGenerator_m_ColorsP21CustomAttributesCache
rPg:_SslStreamBase_EndWrite_m4073224031
rda:__ZNSt3__218__insertion_sort_3IRNS_6__lessI14ObjectLoadDataS2_EEPS2_EEvT0_S6_T_
u8j:__ZL92Event_t2956885303_CustomAttributesCacheGenerator_Event_Internal_GetMousePosition_m1101229675P21CustomAttributesCache
z0k:_List_1_System_Collections_ICollection_get_SyncRoot_m1244917400_gshared
rol:_Regex_GetGroupNamesArray_m3575729002
aJa:__ZN4crndL20crnd_default_reallocEPvjPjbS0_
Mok:__ZL152U3CFOVKickUpU3Ec__Iterator0_t3738408313_CustomAttributesCacheGenerator_U3CFOVKickUpU3Ec__Iterator0_System_Collections_IEnumerator_get_Current_m640856593P21CustomAttributesCache
FAj:__Z54RuntimeInvoker_CustomAttributeNamedArgument_t287865710PFvvEPK10MethodInfoPvPS4_
uGm:__ZNSt3__212basic_stringIcNS_11char_traitsIcEENS_9allocatorIcEEEC2ERKS5_
fze:__ZN5physx24PxsComputeAABBLocalSpaceERKNS_18PxcAABBDataDynamicERNS_9PxBounds3E
rkb:__ZN18SpriteAtlasManager19AddRequestingSpriteE4PPtrI6SpriteE
V7i:_Enumerator__ctor_m247851533_gshared
msc:__ZN16PackedQuatVector9PackQuatsEP11Quaternionfi
CEc:__Z33Texture_CUSTOM_Internal_GetHeightP12Il2CppObject
lpc:__Z20IsValidRealtimeLightRK15SharedLightData9LightTypej
U8j:__ZL102GUIStyle_t3956901511_CustomAttributesCacheGenerator_GUIStyle_INTERNAL_CALL_GetRectOffsetPtr_m152975056P21CustomAttributesCache
Oal:_pauseScript__ctor_m3057383767
DX:__ZNK4PPtrI9AudioClipEptEv
rbh:_ValueCollection_System_Collections_ICollection_get_SyncRoot_m3381653267_gshared
Pug:_UnmanagedMemoryStream_Write_m930787521
Bac:__ZN23ScriptableRenderContextC2Ev
EB:__ZN7mecanim9animation18ClipMuscleConstant8TransferI24GenerateTypeTreeTransferEEvRT_
SJf:_GridLayoutGroup_get_spacing_m2409263614
q2a:__ZN4PPtrI13RenderTextureE8TransferI18StreamedBinaryReadILb0EEEEvRT_
kah:_Enumerator_MoveNext_m3051926902_gshared
fZk:_List_1_CheckIndex_m581273900_gshared
Iaf:_UNITY_FT_Stream_GetChar
Qzi:_WaitForSeconds_t1699091251_marshal_pinvoke
Cxl:_ObjectPool_1_get_countAll_m819305395_gshared
rOb:__Z18Transfer_BlittableI18StreamedBinaryReadILb1EELb1EdEvRK29SerializationCommandArgumentsR31RuntimeSerializationCommandInfo
X2k:_List_1_ToArray_m190175978_gshared
Inm:__ZN6il2cpp2gc16GarbageCollector12RunFinalizerEPvS2_
Gre:__ZN5physx6shdfnd8internal8HashBaseINS0_4PairIKNS_2Sq13PrunerPayloadEjEES5_NS0_4HashIS5_EENS1_11HashMapBaseIS5_jS9_NS0_9AllocatorEE6GetKeyESB_Lb1EE5eraseERS6_
kUb:__Z26BuildSerializationCacheFor17ScriptingClassPtrRb
zxf:_EventSystem_get_firstSelectedGameObject_m1576206896
kPa:__ZN7ApiGLES15BlitFramebufferEN2gl6HandleILNS0_10ObjectTypeE9EEENS0_15FramebufferReadES3_S3_iiiiiiiiNS0_15FramebufferTypeE
yLe:__ZN5physx13GuMeshFactory16createConvexMeshERNS_13PxInputStreamE
gWe:__ZN5physx6shdfnd8internal8HashBaseINS0_4PairIKPKcjEES5_NS0_4HashIS5_EENS1_11HashMapBaseIS5_jS9_NS_7profile26WrapperReflectionAllocatorIjEEE6GetKeyESD_Lb1EE6createERS6_Rb
mlj:__Z112RuntimeInvoker_RuntimeObject_RuntimeObject_RuntimeObject_RuntimeObject_RuntimeObject_RuntimeObject_RuntimeObjectPFvvEPK10MethodInfoPvPS4_
D$g:_InternalEnumerator_1_System_Collections_IEnumerator_get_Current_m3553395619_AdjustorThunk
VIj:__ZL70AssemblyVersionCompatibility_t766556580_CustomAttributesCacheGeneratorP21CustomAttributesCache
L3f:_Array_SetValue_m3998268557
jeh:_ServerContextTerminatorSink__ctor_m2519287841
mEf:_ColorBlock_set_highlightedColor_m2089444414_AdjustorThunk
lwj:__Z59RuntimeInvoker_Boolean_t97287965_X509ChainStatus_t133602714PFvvEPK10MethodInfoPvPS4_
Mti:_RectTransform_INTERNAL_set_anchoredPosition_m939517950
LLg:_Context_EndSwitchingSecurityParameters_m4148956166
M5e:_otv_PairPos_validate
PSj:__ZL63ThreadStateException_t3003788475_CustomAttributesCacheGeneratorP21CustomAttributesCache
zG:__ZN7mecanim9animation14CopyHumanPosesEPKNS0_18AnimationNodeStateEPS1_RKNS_6bitsetILj83EEE
W1l:__ZN6il2cpp6icalls8mscorlib6SystemL8IsStaticEPK12PropertyInfo
BVb:__Z9InitInputv
Sam:__ZN30dense_hashtable_const_iteratorINSt3__24pairIK10KeyWrapperIPK22Il2CppGenericParameterEPK24MonoGenericParameterInfoEES6_N6il2cpp5utils11PointerHashIS4_EEN14dense_hash_mapIS6_SA_SF_NS6_14EqualsComparerINS0_8equal_toIS5_EEEENS0_9allocatorISB_EEE9SelectKeyESK_SM_E30advance_past_empty_and_deletedEv
IKb:__Z29Transfer_Blittable_ArrayFieldI24GenerateTypeTreeTransfer11ColorRGBA32EvRT_R9ArrayInfoRK23StaticTransferFieldInfo
VCj:__Z126RuntimeInvoker_RuntimeObject_ParticleCollisionEvent_t4055032941_ParticleCollisionEvent_t4055032941_RuntimeObject_RuntimeObjectPFvvEPK10MethodInfoPvPS4_
wLe:__ZNK5physx13GuMeshFactory15getConvexMeshesEPPNS_12PxConvexMeshEjj
Tel:_CurveControlledBob__ctor_m3919276484
b7l:__ZN6il2cpp2gc19AppendOnlyGCHashMapINSt3__24pairIPK10MethodInfoP11Il2CppClassEEP22Il2CppReflectionMethod17ReflectionMapHashIS9_ENS2_8equal_toIS9_EEE3AddERKS9_SB_
kCb:__ZN16MemoryFileSystem6DeleteER13FileEntryDatab
Yfj:__Z81RuntimeInvoker_Void_t1185182177_RuntimeObject_Int64_t3736567304_Int32_t2950945753PFvvEPK10MethodInfoPvPS4_
q_k:_List_1_set_Item_m1979164443_gshared
YJa:__ZL21BlitScaleStbImageImplRK14ImageReferenceRS_NS_10ColorSpaceE
ZZd:__ZN5physx10NpMaterial17setStaticFrictionEf
kXc:__Z9UpdateTplIL27ParticleSystemCurveEvalMode0EEvRK11MinMaxCurveS3_S3_R23ParticleSystemParticlesjjRKN4math8float3x3ERKNS6_7_float4E
_ie:__ZNK5physx7NpScene18getStaticStructureEv
khd:__ZNSt3__26__sortIR31RayHitsByInverseDepthComparitorP12RaycastHit2DEEvT0_S5_T_
wie:__ZNK5physx7NpScene19getFilterShaderDataEv
Enh:_InputField_get_keyboardType_m1248105267
BFb:__Z29Transfer_Blittable_ArrayFieldI14SafeBinaryReadyEvRT_R9ArrayInfoRK23StaticTransferFieldInfo
JX:__ZN20SoundChannelInstance15setChannelGroupEPN4FMOD12ChannelGroupE
Jml:_Match__ctor_m2425511580
jFh:_KeyPairPersistence_Remove_m1876145547
UJj:__ZL63FileNotFoundException_t225391025_CustomAttributesCacheGeneratorP21CustomAttributesCache
aVd:__ZN5physx2Sc19ShapeInstancePairLL26onPoseChangedWhileSleepingEv
GZj:__ZL84Behaviour_t1437897464_CustomAttributesCacheGenerator_Behaviour_set_enabled_m20417929P21CustomAttributesCache
T2c:__ZN12LightsModule13AwakeFromLoadEP14ParticleSystemRK27ParticleSystemReadOnlyState
opk:__ZL107U3CStartU3Ec__Iterator0_t980021917_CustomAttributesCacheGenerator_U3CStartU3Ec__Iterator0_Reset_m1527184679P21CustomAttributesCache
nte:__ZN5physx22PxcSweepCapsuleCapsuleERKNS_11PxsCCDShapeES2_PKNS_12PxsRigidBodyES5_RKNS_11PxTransformES8_S8_S8_fRNS_6PxVec3ESA_RNS_10PxcNpCacheERNS_18PxcNpThreadContextEf
ad:invoke_vifffii
bRb:__Z35Transfer_Blittable_FixedBufferFieldI18StreamedBinaryReadILb0EEaEvRK29SerializationCommandArgumentsR31RuntimeSerializationCommandInfo
tim:__ZN6il2cpp2vm9Exception27RaiseNullReferenceExceptionEv
$Ad:__ZNK5physx3Cct17CapsuleController21getHalfHeightInternalEv
g_a:__ZNK25MultiBlocksMemoryFileData5CloneEv
IUg:_InternalEnumerator_1_System_Collections_IEnumerator_Reset_m3873091784_AdjustorThunk
hym:_GC_add_ext_descriptor
s5l:__ZNK15dense_hashtableINSt3__24pairIK10KeyWrapperINS1_IPK14Il2CppAssemblyP11Il2CppClassEEEjEES9_17ReflectionMapHashIS8_EN14dense_hash_mapIS9_jSD_NS9_14EqualsComparerINS0_8equal_toIS8_EEEENS0_9allocatorISB_EEE9SelectKeyESI_SK_E23find_position_with_hashERSA_j
kAd:__ZN5physx21PxQueryFilterCallbackD2Ev
cwk:_LayoutGroup_SetProperty_TisSingle_t1397266774_m793506911_gshared
OEl:_AudioClip_InvokePCMSetPositionCallback_Internal_m3097960898
jzm:__ZN6il2cpp2os14WindowsRuntime22GetRestrictedErrorInfoEv
pAg:_CryptoConfig_CreateFromName_m1538277313
Iyk:_Queue_1__ctor_m263978079_gshared
yNl:_Animation_GetStateCount_m3809146648
lZa:__ZN17ArchiveFileSystem11CreateAsDirER13FileEntryData
CId:__ZL30GeomOverlapCallback_CapsuleBoxRKN5physx10PxGeometryERKNS_11PxTransformES2_S5_PNS_2Gu12TriggerCacheE
gdl:_MobileInput_MousePosition_m2563720675
CIm:dynCall_iiiiiiiiiiii
Pnh:_InputField_set_caretPositionInternal_m3823580651
rVa:__ZN22VertexDeclarationCacheD0Ev
qxh:_Selectable_set_interactable_m3105888815
W6a:__ZL26KeywordSetToStringDontSortRKNSt3__26vectorIN4core12basic_stringIcNS1_20StringStorageDefaultIcEEEENS_9allocatorIS5_EEEERS5_
Aof:__Z54Register_UnityEngine_Analytics_CustomEventData_AddCharv
QLa:__ZN6prcoreL17RemapGenericFloatI16TexFormatRGFloat17TexFormatRGBAHalfEEvPKNS_9InnerInfoE
SR:__ZN12AudioManager22CreateFMODSoundFromWWWEP10IWWWStream15FMOD_SOUND_TYPE17FMOD_SOUND_FORMATjjbbP10SampleClip
nmc:__ZNK32RendererMaterialAnimationBinding15GenerateBindingERKN4core12basic_stringIcNS0_20StringStorageDefaultIcEEEEbRN11UnityEngine9Animation14GenericBindingE
FYf:_TargetException__ctor_m4172127019
T1k:_List_1_CheckCollection_m274117203_gshared
nek:__ZL70EventSystem_t1003666588_CustomAttributesCacheGenerator_m_FirstSelectedP21CustomAttributesCache
N9:__ZN8Remapper23GetOrGenerateInstanceIDERK26SerializedObjectIdentifier
VA:__ZN17AnimationCurveTplI8Vector3fEC2ERKS1_
_Ef:_ColorTween_get_startColor_m3792586410_AdjustorThunk
sZa:__ZN17FileSystemHandler10AtomicMoveER13FileEntryDataS1_
mb:invoke_iiiiiifffiiifii
tbk:__ZL106Physics_t2310948930_CustomAttributesCacheGenerator_Physics_Raycast_m3101461809____queryTriggerInteraction5P21CustomAttributesCache
Vcj:__Z85RuntimeInvoker_Void_t1185182177_Int32_t2950945753_Int32_t2950945753_Int32_t2950945753PFvvEPK10MethodInfoPvPS4_
Ckh:_BinaryFormatter_get_SurrogateSelector_m2111882017
n0f:_X509CertificateCollection__ctor_m3365535796
uLf:_CustomInfo__ctor_m426096741
Rxf:_EventSystem_ToString_m3779610692
nNg:_RecordProtocol_BeginReceiveRecord_m295321170
Mjb:__ZN6Sprite8TransferI24GenerateTypeTreeTransferEEvRT_
pTg:_InternalEnumerator_1_get_Current_m2223614542_AdjustorThunk
XFc:__Z48Register_UnityEngine_Transform_SetAsFirstSiblingv
BWg:_InternalEnumerator_1_System_Collections_IEnumerator_get_Current_m694606607_gshared
Pjb:__ZN7SubMesh8TransferI24GenerateTypeTreeTransferEEvRT_
rSd:__ZNK5physx19NpArticulationJoint28getTwistLimitContactDistanceEv
pvl:_UnityEvent_1_FindMethod_Impl_m2511430237_gshared
Vql:_Literal_IsComplex_m4067122560
Ypd:__ZN5physx3Cct10Controller6setPosERKNS_14PxExtendedVec3E
$Yb:__ZN19GfxThreadableDevice20SetShadersThreadableEPP10GpuProgramPPK20GpuProgramParametersPKPKh
rHk:_Collection_1_System_Collections_IList_Contains_m296643274_gshared
dsd:__ZN5physx2GuL14testFaceNormalERKNS0_13PolygonalDataES3_PNS0_12SupportLocalES5_RKNS_6shdfnd3aos15PsMatTransformVESA_RKNS7_6FloatVERSB_RjRNS7_5Vec3VENS0_13FeatureStatusERSI_
Sog:_DirectoryInfo__ctor_m126519516
dVf:_MethodBase_GetMethodFromIntPtr_m3014201362
TDk:__ZN21InterfaceFuncInvoker1I19Color32_t2600501292iE6InvokeEjP11Il2CppClassP12Il2CppObjecti
vZg:_InternalEnumerator_1_get_Current_m2315302778_AdjustorThunk
Zpl:_Reference_get_CapturingGroup_m3861468528
nC:__ZN7mecanim5human9HumanGoal8TransferI18StreamedBinaryReadILb0EEEEvRT_
Ccj:__Z40RuntimeInvoker_TypeAttributes_t113483779PFvvEPK10MethodInfoPvPS4_
Kff:__ZNK20TextRenderingPrivate7GUIText22GetTypeVirtualInternalEv
Nvc:__ZN9Transform23SetSiblingIndexInternalEib
F2k:_List_1_Clear_m1143167521_gshared
HUf:_AddEventAdapter__ctor_m2428277574
IId:__ZL32GeomOverlapCallback_ConvexConvexRKN5physx10PxGeometryERKNS_11PxTransformES2_S5_PNS_2Gu12TriggerCacheE
hFe:__Z11CopyBuffersRN5physx13PxcNpWorkUnitERNS_18PxcNpThreadContextEb
hfg:_Enumerator_MoveNext_m635366482
C0f:_X509Extension_Equals_m1222951829
TE:__ZN7mecanim5human12HumanPoseSubERNS0_9HumanPoseERKS1_S4_
wCj:__Z37RuntimeInvoker_Enumerator_t1789501480PFvvEPK10MethodInfoPvPS4_
zmm:__ZN6il2cpp8metadata15GenericMetadata15GetGenericClassEiPK17Il2CppGenericInst
h9f:_Char_GetTypeCode_m2433327340_AdjustorThunk
aEb:__Z18Transfer_BlittableI14SafeBinaryReadLb0E10Matrix4x4fEvRK29SerializationCommandArgumentsR31RuntimeSerializationCommandInfo
BTb:__Z24GetFixedBehaviourManagerv
dFj:__ZL69IntPtr_t_CustomAttributesCacheGenerator_IntPtr_op_Equality_m408849716P21CustomAttributesCache
Hpi:_Object_DestroyObject_m1406874517
S0l:__ZN6il2cpp2vm10ThreadPool4WaitEP17Il2CppAsyncResultPPv
oHh:_PKCS12_Encrypt_m2617413749
Xll:_X509Crl_VerifySignature_m1377612461
V1f:_Activator_CreateInstance_m94526014
IDm:_vfprintf
jJc:__ZN10GUIManager12AddGUIScriptER8ListNodeI13MonoBehaviourE
g9h:_NumberFormatInfo_get_PositiveInfinitySymbol_m1141345134
wfg:_Stack_Clear_m2010200235
sdb:__ZL13SortTexByNameRKNSt3__24pairIN9ShaderLab16FastPropertyNameEN18UnityPropertySheet11UnityTexEnvEEES7_
q2e:_cf2_getVStore
Hzf:_PointerEventData_set_pointerPressRaycast_m1363193059
z1b:__ZN20DynamicPropertySheetD0Ev
X_f:_SafeHandle_Dispose_m4229010569
Pdc:__ZN14SafeBinaryRead17RegisterConverterEPKcS1_PFbPvRS_E
V3j:__ZL77RuntimePlatform_t4159857903_CustomAttributesCacheGenerator_OSXDashboardPlayerP21CustomAttributesCache
Zja:__ZN35RegisterRuntimeInitializeAndCleanup8RegisterEPFvPvES2_iS0_
$be:__ZNK5physx19NpRigidBodyTemplateINS_14PxRigidDynamicEE17getRigidBodyFlagsEv
iRf:_FieldBuilder_SetValue_m828035213
yt:__ZN7mecanim6memory16ChainedAllocator7ReserveEj
xqk:_Array_InternalArray__Insert_TisSingle_t1397266774_m3161726127_gshared
fQk:_ReadOnlyCollection_1_System_Collections_IList_get_IsFixedSize_m733459177_gshared
jld:__ZN4PPtrI17PhysicsMaterial2DE8TransferI18StreamedBinaryReadILb0EEEEvRT_
a9a:__ZN20SphericalHarmonicsL215AddAmbientLightERK10ColorRGBAf
AFj:__ZL72Enum_t4135868527_CustomAttributesCacheGenerator_Enum_ToObject_m121962870P21CustomAttributesCache
dBk:__ZN23InterfaceActionInvoker2IP24ObjectU5BU5D_t2843939325iE6InvokeEjP11Il2CppClassP12Il2CppObjectS1_i
rte:__ZN5physx25PxcSweepConvexHeightfieldERKNS_11PxsCCDShapeES2_PKNS_12PxsRigidBodyES5_RKNS_11PxTransformES8_S8_S8_fRNS_6PxVec3ESA_RNS_10PxcNpCacheERNS_18PxcNpThreadContextEf
bGc:__Z21Object_CUSTOM_DestroyP12Il2CppObjectf
j4j:__ZL99SetupCoroutine_t2062820429_CustomAttributesCacheGenerator_SetupCoroutine_InvokeMoveNext_m3199342729P21CustomAttributesCache
Sza:__ZN8Material26ResetAllCachedMaterialDataEP6Shader
Qjj:__Z63RuntimeInvoker_Void_t1185182177_RuntimeObject_Int16_t2552820387PFvvEPK10MethodInfoPvPS4_
Uaf:_UNITY_TT_Get_MM_Var
Nlh:_ObjectManager_AddFixup_m2154325362
P1g:_Comparer_1__cctor_m3761458313_gshared
k4h:_DateTimeOffset_CompareTo_m1350732322_AdjustorThunk
ba:invoke_diddi
cYk:_List_1_CopyTo_m1478726798_gshared
ljf:__ZNK2UI6Canvas13GetRenderModeEv
hki:_PersistentCall__ctor_m1217622171
REi:_Array_compare_TisCustomAttributeTypedArgument_t2723150157_m1384644047_gshared
qFm:_unlink
Xt:__Z32TransferEnumWithNameForceIntSizeI14SafeBinaryRead28TransitionInterruptionSourceEvRT_RT0_PKc17TransferMetaFlags
lDb:__Z18Transfer_BlittableI14SafeBinaryReadLb0EiEvRK29SerializationCommandArgumentsR31RuntimeSerializationCommandInfo
E$l:__ZN6il2cpp2vm13MetadataCache30GetPropertyDefinitionFromIndexEi
LAl:_SymmetricTransform_Transform_m1683494363
dbe:__ZN5physx14NpRigidDynamic7releaseEv
Zrf:__ZN22BaseUnityConnectClient17InitializeSessionERKN4core12basic_stringIcNS0_20StringStorageDefaultIcEEEES6_N19CloudServiceHandler13InitModeFlagsE
hIj:__ZL56KeyCollection_t4251528776_CustomAttributesCacheGeneratorP21CustomAttributesCache
kqj:__Z74RuntimeInvoker_RuntimeObject_Int32_t2950945753_RuntimeObject_RuntimeObjectPFvvEPK10MethodInfoPvPS4_
j7h:_Decimal_op_Implicit_m1349849065
Hpe:__ZN5physx6shdfnd8PoolBaseINS_21PxsBodyTransformVault13PxsBody2WorldENS0_19ReflectionAllocatorIS3_EEE15disposeElementsEv
K8k:_List_1_get_Item_m200663048_gshared
cih:_ReturnMessage_get_Exception_m3375728265
Lu:__ZN15SerializeTraitsI9OffsetPtrIN7mecanim9animation23BlendDirectDataConstantEEE8TransferI24GenerateTypeTreeTransferEEvRS4_RT_
zPm:_emscripten_glDeleteBuffers__wrapper
iVk:_Predicate_1__ctor_m2874336611_gshared
GWg:_InternalEnumerator_1_MoveNext_m3664960764_AdjustorThunk
Qxc:__ZN13MonoBehaviour34StopCoroutineFromEnumeratorManagedE18ScriptingObjectPtr
l0k:_List_1__ctor_m1345008423_gshared
S8e:_gray_raster_reset
fyd:__ZN5physx2Gu30computeCapsule_TriangleMeshMTDERKNS_22PxTriangleMeshGeometryERKNS_11PxTransformERNS0_8CapsuleVEffbRNS_10PxSweepHitE
Gad:__ZN11UnityEngine9Analytics18SceneLoadTimeEvent12SetSceneLoadERKN4core12basic_stringIcNS2_20StringStorageDefaultIcEEEEiyyyy
Cvb:__ZN30RuntimeInitializeOnLoadManager8TransferI18StreamedBinaryReadILb0EEEEvRT_
w3h:_DateTimeOffset__ctor_m2084804982
h7e:_UNITY_tt_face_load_pclt
ZCb:__ZN9profiling17ScriptingProfiler31UpdateRegisteredScriptingEventsEv
dxc:__ZL34GetComponentsImplementationRecurseILb1ELi0ELi2EEbR10GameObjectbRK17CompareParametersRK39GetComponentsImplementation_ReturnValue
jrk:_Array_InternalArray__set_Item_TisSlot_t3975888750_m3701794315_gshared
dkd:__ZN10ClipperLib7Clipper24InsertLocalMinimaIntoAELEx
m4f:_Array_Sort_m3698291233
ani:_Material_GetTexture_m3545614349
Uge:__ZThn8_N5physx2Sc19ShapeInstancePairLL10onActivateEj
Haj:__Z64RuntimeInvoker_RuntimeObject_Int32_t2950945753_Int16_t2552820387PFvvEPK10MethodInfoPvPS4_
Y1c:__ZN16CustomDataModule8TransferI19StreamedBinaryWriteILb0EEEEvRT_
HDh:_ASN1_get_Length_m1923878580
Z2i:_EqualityComparer_1__cctor_m4244842342_gshared
W0b:__ZNK6Camera18WorldToScreenPointERK8Vector3fPb
xze:__ZN5physx2Cm12DelegateTaskINS_10PxsContextEXadL_ZNS2_28mergeCMDiscreteUpdateResultsEPNS_10PxBaseTaskEEEE11runInternalEv
nvi:_SendMouseEvents_DoSendMouseEvents_m2140870850
bnf:__ZN14UnityAnalyticsD0Ev
kQe:__ZN5physx19TriangleMeshBuilder10importMeshERKNS_18PxTriangleMeshDescERKNS_15PxCookingParamsEb
Jnl:_PatternCompiler_EmitJump_m3915926156
tOa:__Z18IsCompressedFormat14GraphicsFormat
AYf:_PropertyInfo_SetValue_m2777755129
cmh:_SerializationEntry_get_Name_m1530029541_AdjustorThunk
NX:__ZN11AudioSource19ApplyMinMaxDistanceERKNS_14ParameterCacheE12SoundChannel
HQi:__Z33il2cpp_codegen_check_add_overflowxx
P8:__ZNSt3__227__insertion_sort_incompleteIRPFbRKN18AwakeFromLoadQueue4ItemES4_EPS2_EEbT0_S9_T_
dqj:__Z71RuntimeInvoker_Boolean_t97287965_AnimatorControllerPlayable_t1015767841PFvvEPK10MethodInfoPvPS4_
b4j:__ZL73RuntimePlatform_t4159857903_CustomAttributesCacheGenerator_MetroPlayerARMP21CustomAttributesCache
jog:_InvalidOperationException__ctor_m1685032583
EZl:__ZN14dense_hash_mapI10KeyWrapperIN6il2cpp5utils13dynamic_arrayIPK10Il2CppTypeLj4EEEEPFvvENS1_8metadata19Il2CppSignatureHashENS8_14EqualsComparerINSB_22Il2CppSignatureCompareEEENSt3__29allocatorINSG_4pairIKS8_SA_EEEEE15set_deleted_keyERSJ_
nRi:_TimeSpan_op_Subtraction_m3592306516
a5i:_EqualityComparer_1_System_Collections_IEqualityComparer_GetHashCode_m1517903420_gshared
e4d:__ZN5physx6shdfnd5ArrayINS_18PxClothFabricPhaseENS0_19ReflectionAllocatorIS2_EEE8recreateEj
lVk:_Predicate_1_EndInvoke_m3826222954_gshared
mhb:__ZN26EnlightenSystemInformation8TransferI14SafeBinaryReadEEvRT_
m2c:__ZN13InitialModule5ResetEv
Hub:__ZN24GenerateTypeTreeTransfer8TransferINSt3__26vectorIN15ResourceManager10DependencyE13stl_allocatorIS4_L18MemLabelIdentifier52ELi16EEEEEEvRT_PKc17TransferMetaFlags
dWj:__ZL59StringComparison_t3657712135_CustomAttributesCacheGeneratorP21CustomAttributesCache
UMl:_CanvasRenderer_SplitUIVertexStreams_m2753637362
Ssj:__Z119RuntimeInvoker_Void_t1185182177_RuntimeObject_Single_t1397266774_Single_t1397266774_SByte_t1669577662_Int32_t2950945753PFvvEPK10MethodInfoPvPS4_
ptf:__ZN11UnityEngine15PlatformWrapper20SetPlayerPrefsUInt64ERKN4core12basic_stringIcNS1_20StringStorageDefaultIcEEEEy
bob:__ZN12MeshRendererD0Ev
f$:__ZN12AudioManager35GetCurrentSpatializerDefinitionNameEv
EZi:_Dictionary_2_System_Collections_IEnumerable_GetEnumerator_m3057868448_gshared
jwd:__ZN5physx2Gu16sweepBoxTriangleERKNS_10PxTriangleERKNS_9PxBounds3ERKNS_6PxVec3ES9_RS7_SA_Rf
Mwi:_TouchScreenKeyboard_get_active_m4267591905
nSl:_CustomEventData_InternalDestroy_m2184675245
oam:__ZNK15dense_hashtableINSt3__24pairIK10KeyWrapperIPK14Il2CppAssemblyEPK22Il2CppMonoAssemblyNameEES6_N6il2cpp5utils11PointerHashIS4_EEN14dense_hash_mapIS6_SA_SF_NS6_14EqualsComparerINS0_8equal_toIS5_EEEENS0_9allocatorISB_EEE9SelectKeyESK_SM_E8min_sizeEjj
ti:_utime
WQe:__ZN5physx10writeChunkEaaaaRNS_14PxOutputStreamE
bql:_BalancingGroup_Compile_m2575117193
Dfl:_FPSCounter_Update_m1910513279
dM:__Z28SetExposedSkeletonTransformsRKN7mecanim9animation14AvatarConstantERKN11UnityEngine9Animation30AnimatorGenericBindingConstantERKNS_8skeleton13SkeletonPoseTIN4math4trsXEEERKNSA_INSB_7affineXEEERNS5_21AvatarBindingConstantEy
X0l:__ZN6il2cpp6icalls8mscorlib6System8MonoType18IsGenericParameterEPK10Il2CppType
z4l:__ZNSt3__26vectorIN6il2cpp2vm17TypeNameParseInfoENS_9allocatorIS3_EEE8allocateEj
_dh:_Context_NotifyDynamicSinks_m1841702879
Eml:_Mark_get_Index_m3048692661_AdjustorThunk
sil:_TlsServerSettings_get_CertificateRequest_m842655670
Un:FUNCTION_TABLE_viiiiif
p1g:_DefaultComparer_Compare_m3931992727_gshared
Ho:FUNCTION_TABLE_viiiiii
f0g:_InternalEnumerator_1_System_Collections_IEnumerator_get_Current_m1847780851_AdjustorThunk
Bzl:_GUILayoutUtility_get_spaceStyle_m3392862907
Zlg:_Int32_System_IConvertible_ToType_m3009233912_AdjustorThunk
x3h:_DateTimeOffset__ctor_m74032857
TWd:__ZN5physx2Sc9RigidCore13onShapeChangeERNS0_9ShapeCoreENS_7PxFlagsINS0_21ShapeChangeNotifyFlag4EnumEjEENS4_INS_11PxShapeFlag4EnumEhEE
FN:__ZN7mecanim9animation22DestroyAvatarWorkspaceEPNS0_15AvatarWorkspaceERNS_6memory9AllocatorE
gSi:_Type_type_is_assignable_from_m76737532
Lsh:_MaskableGraphic_ParentMaskStateChanged_m1092090553
D8d:__ZN5physx6shdfnd5ArrayIPvNS0_15InlineAllocatorILj256ENS0_19ReflectionAllocatorINS_2Sc19ParticlePacketShapeEEEEEE15growAndPushBackERKS2_
Wve:__ZN5physx17solveContactBlockEPKNS_23PxcSolverConstraintDescEjRNS_16PxcSolverContextE
dRe:__ZN5physx6shdfnd10FoundationD2Ev
W7b:__ZN15LightmapSTCacheC2ER13BatchRendererR15RenderLoopStats
Rdb:__ZN14PlayableOutput17SetSourcePlayableEP8Playable
uvb:__ZNSt3__26vectorIN4core12basic_stringIcNS1_20StringStorageDefaultIcEEEE13stl_allocatorIS5_L18MemLabelIdentifier13ELi16EEE8__appendEj
boi:_Mesh_Internal_Create_m2853543051
VM:__ZN7mecanim9animation29MotionOutputGetDeltaTransformEPKNS0_12MotionOutputE
KVj:__ZL64MissingFieldException_t1989070983_CustomAttributesCacheGeneratorP21CustomAttributesCache
Fad:__ZN27PerformanceReportingManager21OnSceneTimingCallbackERK15SceneLoadTimingRKN4core12basic_stringIcNS3_20StringStorageDefaultIcEEEE
Wil:_ValidationResult_get_ErrorCode_m1533688152
lFc:__Z43Transform_CUSTOM_INTERNAL_get_localRotationP12Il2CppObjectP11Quaternionf
cqe:__ZN5physx2Sc10NPhaseCoreD2Ev
FKd:__ZN5physx2Sc7BodySim18onConstraintDetachEv
Bym:__ZN6il2cpp6icalls8mscorlib6System10Reflection4Emit13ModuleBuilder13RegisterTokenEP29Il2CppReflectionModuleBuilderP12Il2CppObjecti
vij:__Z50RuntimeInvoker_Int64_t3736567304_SByte_t1669577662PFvvEPK10MethodInfoPvPS4_
WMh:_X509Certificate2_GetValueAsString_m1348462142
Wbl:_StandaloneInput__ctor_m1634474157
u3l:__ZN6il2cpp2os4File9SetLengthEPNS0_10FileHandleExPi
hnc:__ZZL23RegisterLightPropertiesR22GenericPropertyBindingEN20Wrapper_LightColorr013SetFloatValueEPvf
wlh:_ObjectReader_ReadObjectGraph_m340866276
m9g:_Transform_1_EndInvoke_m2716226219_gshared
cLg:_Context_get_LastHandshakeMsg_m2730646725
Yi:_emscripten_glGetTexParameteriv
Cie:__ZN5physx7NpScene8simulateEfPNS_10PxBaseTaskEPvjb
aPm:_glGenTextures__wrapper
hhe:__ZThn8_N5physx2Sc24ElementInteractionMarker10onActivateEj
IMi:_UnicodeEncoding_GetHashCode_m354003420
Kua:__ZN9ShaderLab20SerializedSubProgram14ConstantBufferaSERKS1_
Iic:__Z13RegisterClassI4MeshEvv
v7j:__ZL74SharedBetweenAnimatorsAttribute_t2857104338_CustomAttributesCacheGeneratorP21CustomAttributesCache
lai:_Enum_Equals_m3617313991
toj:__Z98RuntimeInvoker_Boolean_t97287965_PlayableOutputHandle_t4208053793_PlayableOutputHandle_t4208053793PFvvEPK10MethodInfoPvPS4_
vvj:__Z74RuntimeInvoker_Boolean_t97287965_LineTypeU26_t2430394419_Int32_t2950945753PFvvEPK10MethodInfoPvPS4_
gbb:__ZN8PlayableD0Ev
qh:emscriptenWebGLGetBufferBinding
vT:__ZN12AudioManager8TransferI19StreamedBinaryWriteILb0EEEEvRT_
cHf:_Dropdown_Hide_m504034854
BMl:_CanvasGroup_IsRaycastLocationValid_m2128397950
Txh:_Slider_UpdateCachedReferences_m3259451627
fPg:_SslStreamBase_get_KeyExchangeStrength_m217695965
kij:__Z50RuntimeInvoker_Double_t594665363_Double_t594665363PFvvEPK10MethodInfoPvPS4_
Tgj:__Z60RuntimeInvoker_Void_t1185182177_StreamingContext_t3711869237PFvvEPK10MethodInfoPvPS4_
hPb:__ZN18StreamedBinaryReadILb1EE21TransferSTLStyleArrayI13dynamic_arrayI11ColorRGBA32Lj4EEEEvRT_17TransferMetaFlags
lfm:__ZN15dense_hashtableINSt3__24pairIK10KeyWrapperINS1_IP11Il2CppClassjEEES4_EES6_N6il2cpp8metadata14ArrayClassHashEN14dense_hash_mapIS6_S4_SB_NS6_14EqualsComparerINSA_17ArrayClassCompareEEENS0_9allocatorIS8_EEE9SelectKeyESF_SH_E6insertERKS8_
zHf:_U3CShowU3Ec__AnonStorey1_U3CU3Em__0_m2340880019
exh:_Selectable_OnSetProperty_m1693943217
bZk:_List_1_GetIndex_m2300811709_gshared
mmc:__ZNK32RendererMaterialAnimationBinding12GetPPtrValueERKN11UnityEngine9Animation10BoundCurveE
mQb:__Z18Transfer_BlittableI18StreamedBinaryReadILb0EELb0E8Vector2fEvRK29SerializationCommandArgumentsR31RuntimeSerializationCommandInfo
HTd:__ZN5physx18NpArticulationLink10clearForceENS_11PxForceMode4EnumE
T$h:_ASCIIEncoding_GetString_m58523364
Vsd:__ZN5physx2Gu30distanceSegmentTriangleSquaredERKNS_6PxVec3ES3_S3_S3_S3_PfS4_S4_
Fld:__ZN16CircleCollider2D10SmartResetEv
Akf:__ZN2UI11CanvasGroup12CleanupClassEv
Qil:_TlsStream_Flush_m3793197834
ZZk:_List_1_GetIndex_m2832472557_gshared
PAb:__ZN22LocalFileSystemHandler9MakeLocalER13FileEntryDatab
Ztm:__ZN6il2cpp2vm8Profiler10AllocationEP12Il2CppObjectP11Il2CppClass
Crl:_Uri_IsHexEncoding_m3290929897
Fhk:__ZL61Graphic_t1660335611_CustomAttributesCacheGenerator_m_MaterialP21CustomAttributesCache
pff:__ZNSt3__23mapIN20TextRenderingPrivate7FontRefENS1_6OSFontENS_4lessIS2_EENS_9allocatorINS_4pairIKS2_S3_EEEEEixERS8_
n8g:_ShimEnumerator_get_Value_m153531060_gshared
Zra:__Z13FormatOrderedPKcz
D2l:__ZN6il2cpp2vm8basepathEPKc
g2d:__ZNK5physx15NpActorTemplateINS_7PxClothEE12getAggregateEv
GNh:_X509Chain_GetAuthorityKeyIdentifier_m614536199
Pcf:__ZN14SafeBinaryRead21TransferSTLStyleArrayI10vector_mapINSt3__24pairIttEEfN20TextRenderingPrivate8FontImpl14KerningCompareENS2_9allocatorINS3_IS4_fEEEEEEEvRT_17TransferMetaFlags
yKg:_TlsServerFinished__ctor_m1445633918
y1a:__ZN13dynamic_arrayI17SortingLayerEntryLj4EE6insertEPS0_jRKS0_
c4j:__ZL68RuntimePlatform_t4159857903_CustomAttributesCacheGenerator_WP8PlayerP21CustomAttributesCache
yFh:_PKCS1_RSASP1_m3912327535
H7b:__ZN25DeferredRenderLoopScratchD0Ev
pH:__ZN27AnimationLayerMixerPlayable14SetInputWeightEif
kzf:_PhysicsRaycaster_Raycast_m776323695
gyi:_UnityException__ctor_m1456865679
PE:__ZN7mecanim9animation17EvaluateHumanPoseERKNS0_18ClipMuscleConstantERKNS0_15ClipMuscleInputEPKfRKNS0_12MotionOutputERNS_5human9HumanPoseE
AFh:_PKCS1_Encrypt_v15_m1016948107
wse:__ZNK5physx2Cm12DelegateTaskINS_13PxsCCDContextEXadL_ZNS2_14postCCDAdvanceEPNS_10PxBaseTaskEEEE7getNameEv
gfk:__ZL92PointerEventData_t3807901092_CustomAttributesCacheGenerator_U3CscrollDeltaU3Ek__BackingFieldP21CustomAttributesCache
Uta:__ZN15dense_hashtableINSt3__24pairIKiN4core17string_with_labelILi1EEEEEi18SInt32HashFunctionN14dense_hash_mapIiS5_S7_NS0_8equal_toIiEE13stl_allocatorIS6_L18MemLabelIdentifier1ELi16EEE9SelectKeyESA_SD_E9copy_fromERKSG_j
aOf:_CustomAttributeNamedArgument_GetHashCode_m2317130892
cub:__ZN15ResourceManagerD0Ev
X2i:_EqualityComparer_1_get_Default_m990790318_gshared
Vth:_GetRayIntersectionAllCallback__ctor_m391992746
fga:__ZN22CreateGpuProgramOutputD2Ev
$Bd:__ZNK5physx3Cct15ObstacleContext14getNbObstaclesEv
SOl:_ControllerColliderHit_t240592346_marshal_pinvoke_cleanup
FLb:__Z18Transfer_BlittableI19StreamedBinaryWriteILb0EELb1EsEvRK29SerializationCommandArgumentsR31RuntimeSerializationCommandInfo
I7c:__Z17UpdateSprites2TplIL27ParticleSystemCurveEvalMode2ELS0_3EEvfRK11MinMaxCurveS3_RK23ParticleSystemParticlesPf
fQj:__ZL52HMACSHA512_t923916539_CustomAttributesCacheGeneratorP21CustomAttributesCache
WNe:__ZN5physx6shdfnd8PoolBaseINS_11NpAggregateENS0_19ReflectionAllocatorIS2_EEE12allocateSlabEv
Oae:__ZN5physx16NpParticleSystem23setParticleReadDataFlagENS_22PxParticleReadDataFlag4EnumEb
hu:__ZN7mecanim9animation23BlendDirectDataConstant8TransferI14SafeBinaryReadEEvRT_
wTh:_SHA1CryptoServiceProvider_Finalize_m1793183797
XUj:__ZL78Convert_t2465617642_CustomAttributesCacheGenerator_Convert_ToUInt64_m409548990P21CustomAttributesCache
J6i:_HashSet_1_System_Collections_Generic_ICollectionU3CTU3E_CopyTo_m408073502_gshared
x9d:__ZN5physx7NpScene26removeFromParticleBaseListERNS_14PxParticleBaseE
l9d:__ZN5physx23NpParticleFluidReadData18getDataAccessFlagsEv
_zb:__ZN12HandlerChain4OpenER13FileEntryData14FilePermission16FileAutoBehavior
ozj:__Z72RuntimeInvoker_Void_t1185182177_Int32_t2950945753_RaycastHit_t1056001966PFvvEPK10MethodInfoPvPS4_
xUj:__ZL79Convert_t2465617642_CustomAttributesCacheGenerator_Convert_ToUInt16_m1147931813P21CustomAttributesCache
f7l:__ZN15dense_hashtableINSt3__24pairIK10KeyWrapperINS1_IPK10MethodInfoP11Il2CppClassEEEjEES9_17ReflectionMapHashIS8_EN14dense_hash_mapIS9_jSD_NS9_14EqualsComparerINS0_8equal_toIS8_EEEENS0_9allocatorISB_EEE9SelectKeyESI_SK_E6insertERKSB_
Rad:__ZN27PerformanceReportingManager29OnSceneLoadedAfterAwakeStaticEPS_iR18AwakeFromLoadQueueN19RuntimeSceneManager11LoadingModeE
JNi:_UTF8Encoding_GetCharCount_m2272165989
sgl:_TimedObjectActivator_Activate_m4140458854
J3f:_Array_SetValue_m394135409
Lca:__ZN14FileCacherReadD2Ev
axb:__ZN13RendererScene23UpdatePreviousFrameDataEii
yel:_SmokeParticles__ctor_m3629585823
Q_h:_String_Remove_m562998446
Pzc:__Z50Register_UnityEngine_CullingGroup_FinalizerFailurev
WRj:__ZL94UTF32Encoding_t312252005_CustomAttributesCacheGenerator_UTF32Encoding_GetByteCount_m3787179419P21CustomAttributesCache
Wxk:_Mesh_GetAllocArrayFromChannel_TisVector2_t2156229523_m1057679375_gshared
i$c:__Z32TransferEnumWithNameForceIntSizeI14SafeBinaryReadN8UVModule4ModeEEvRT_RT0_PKc17TransferMetaFlags
Kxb:__ZN27UnloadUnusedAssetsOperationD0Ev
gI:__ZN26AnimatorControllerPlayable6MemoryD2Ev
tGm:__ZNKSt3__221__basic_string_commonILb1EE20__throw_out_of_rangeEv
Wse:__ZN5physx10PxsCCDPair12updateShapesEv
vEd:__ZNK5physx3Ext5JointINS_15PxDistanceJointENS_30PxDistanceJointGeneratedValuesEE16getInvMassScale1Ev
F3l:_UpdatedEventHandler_Invoke_m1320302085
Gkm:__ZNK15dense_hashtableINSt3__24pairIK10KeyWrapperIP14Il2CppIUnknownEjEES5_N6il2cpp5utils11PointerHashIS3_EEN14dense_hash_mapIS5_jSB_NS5_14EqualsComparerINS0_8equal_toIS4_EEEENS0_9allocatorIS7_EEE9SelectKeyESG_SI_E12test_deletedERK24dense_hashtable_iteratorIS7_S5_SB_SK_SG_SI_E
iR:__ZN9AudioClip23VirtualRedirectTransferER18StreamedBinaryReadILb0EE
j8k:_List_1_AddEnumerable_m2724989594_gshared
Yxa:__ZNSt3__26vectorIPN9ShaderLab9SubShaderENS_9allocatorIS3_EEE21__push_back_slow_pathIKS3_EEvRT_
l9k:_List_1_Contains_m2043463915_gshared
m5d:__ZN5physx2Sc9ClothCore22removeCollisionCapsuleEj
Orj:__Z82RuntimeInvoker_Vector2_t2156229523_Vector2_t2156229523_RuntimeObject_RuntimeObjectPFvvEPK10MethodInfoPvPS4_
aTa:__ZN18GlslGpuProgramGLESC2ERK13dynamic_arrayIhLj1EER22CreateGpuProgramOutput
nHc:__Z70Register_UnityEngine_Playables_PlayableHandle_GetPlayableType_Injectedv
JXb:__ZNK4PPtrI23ShaderVariantCollectionEcvPS0_Ev
NLd:__ZN5physx16PxsIslandManager25setArticulationLinkHandleEjPvRKNS_20PxsIslandManagerHookIjLj4294967295EEE
yk:_glCopyTexSubImage2D
umc:__ZNK24RendererAnimationBinding13GetFloatValueERKN11UnityEngine9Animation10BoundCurveE
tWc:__ZNK21RotationBySpeedModule6UpdateERK27ParticleSystemReadOnlyStateRK19ParticleSystemStateR23ParticleSystemParticlesRKN4math7_float4Ejj
t3:__ZNK15DownloadHandler14HasPendingDataEv
LSm:_glActiveTexture__wrapper
lyi:_UnitySynchronizationContext_ExecuteTasks_m1310741010
cSh:_RIPEMD160Managed_CompressFinal_m497690796
ddc:__ZN18ScreenManagerWebGL13SetShowCursorEb
dTg:_InternalEnumerator_1_MoveNext_m1773160976_gshared
aZb:__ZN13DrawImmediateC2ER9GfxDevice
TDm:_frexp
Hnk:__ZL74PlatformerCharacter2D_t675295753_CustomAttributesCacheGenerator_m_MaxSpeedP21CustomAttributesCache
Dkf:__ZN2UI13CanvasManager14GetRenderOrderEPKNS_6CanvasE
CVd:__ZN5physx6shdfnd5ArrayIPNS_3Scb5ShapeENS0_15InlineAllocatorILj16ENS0_19ReflectionAllocatorIS4_EEEEE15growAndPushBackERKS4_
YDb:__Z18Transfer_BlittableI14SafeBinaryReadLb0E5RectTIfEEvRK29SerializationCommandArgumentsR31RuntimeSerializationCommandInfo
ung:_NumberFormatter_NumberToString_m2562899600
P8d:__ZNK5physx2Sc18ParticleSystemCore15getParticleMassEv
MUh:_SymmetricAlgorithm_get_FeedbackSize_m3666584308
U5e:_otv_u_C_x_Ox
SFa:__ZN14GfxContextGLES14GetFramebufferEv
QPm:_emscripten_glGenVertexArrays__wrapper
tWi:_Version_Clone_m1749041863
t8g:_ShimEnumerator_get_Key_m4155849607_gshared
BKa:__ZN6prcoreL21CreateRemapAnyBlitterE13TextureFormatS0_
DHg:_RSAManaged_ExportParameters_m1754454264
Ytc:__ZN17AnimationCurveTplIfE16StripInvalidKeysEv
H6f:_Boolean_Equals_m535526264_AdjustorThunk
HBj:__Z71RuntimeInvoker_KeyValuePair_2_t71524366_Int32_t2950945753_RuntimeObjectPFvvEPK10MethodInfoPvPS4_
tBi:_Array_InternalArray__ICollection_Contains_TisTouch_t1921856868_m354355717_gshared
M6k:_List_1_TrimExcess_m3801445587_gshared
sjf:__ZNK2UI6Canvas17GetSortingLayerIDEv
s6f:_Convert_ToUInt16_m3116648921
twc:__ZL12HashLen0to16PKcj
xhd:__ZN14Raycast2DQuery8RunQueryEb
zic:__Z13RegisterClassI17GlobalGameManagerEvv
Zha:__ZN8Renderer24SetupNewRendererForSceneEv
bSi:_Type_internal_from_name_m1721940673
uuk:_Array_swap_TisCustomAttributeTypedArgument_t2723150157_TisCustomAttributeTypedArgument_t2723150157_m365781156_gshared
Rfl:_U3CResetCoroutineU3Ec__Iterator0_System_Collections_Generic_IEnumeratorU3CobjectU3E_get_Current_m500320830
Fgh:_RemotingServices_GetMethodBaseFromName_m3194612939
RPc:__Z35Transfer_Blittable_FixedBufferFieldI8JSONReadtEvRK29SerializationCommandArgumentsR31RuntimeSerializationCommandInfo
D3a:__ZN4PPtrI7TextureE8TransferI14SafeBinaryReadEEvRT_
rEe:__ZN5physx2Sc8ClothSim16addCollisionMeshEPKNS0_8ShapeSimE
Xpc:__ZN14PlayableOutput6HandleEv
jjb:__ZNK6Sprite22GetTypeVirtualInternalEv
Fvf:__ZN13RuntimeStaticINSt3__26vectorI23UnityVRDeviceDefinition13stl_allocatorIS2_L18MemLabelIdentifier90ELi16EEEELb0EE13StaticDestroyEPv
Bo:FUNCTION_TABLE_iiiiiiiiiiiiii
uJe:__ZN5physx6shdfnd5ArrayIPKNS_10PxsCCDBodyENS0_19ReflectionAllocatorIS4_EEE8recreateEj
wVd:__ZN5physx6shdfnd4sortINS_2Cm19PreallocatingRegionENS0_4LessIS3_EENS0_19ReflectionAllocatorIS3_EEEEvPT_jRKT0_RKT1_j
Otf:__ZN19UnityConnectService18OnPlayerQuitStaticEPS_
AOi:_SynchronizationLockException__ctor_m3407855920
L6e:_UNITY_tt_get_cmap_info
HOg:_SslClientStream_RaiseServerCertificateValidation_m3477149273
KKb:__Z29Transfer_Blittable_ArrayFieldI24GenerateTypeTreeTransfer5RectTIiEEvRT_R9ArrayInfoRK23StaticTransferFieldInfo
j8a:__ZN16ReflectionProbes8ScheduleEN18ReflectionProbeJob7JobTypeEP15ReflectionProbei
CKg:_ClientSessionInfo_KeepAlive_m1020179566
Cjf:__ZN13dynamic_arrayIN2UI13UIInstructionELj4EE12emplace_backEv
C9k:_List_1_ToArray_m4056539300_gshared
eJj:__ZL51Calendar_t1661121569_CustomAttributesCacheGeneratorP21CustomAttributesCache
XXa:__Z18IsDirectoryCreatedRKN4core12basic_stringIcNS_20StringStorageDefaultIcEEEE
lok:__ZL108U3CStartU3Ec__Iterator0_t3271890998_CustomAttributesCacheGenerator_U3CStartU3Ec__Iterator0__ctor_m4022356384P21CustomAttributesCache
YVh:_String_FormatHelper_m3913915042
Xbe:__ZN5physx19NpRigidBodyTemplateINS_14PxRigidDynamicEE20setRigidDynamicFlagsENS_7PxFlagsINS_15PxRigidBodyFlag4EnumEhEE
rif:__ZN2UI13CanvasManagerD2Ev
q9c:__ZZN14ParticleSystem15InitializeClassEvEN52PreLateUpdateParticleSystemBeginUpdateAllRegistrator7ForwardEv
PWl:__ZN15dense_hashtableINSt3__24pairIK10KeyWrapperIPKcEP11Il2CppClassEES5_N6il2cpp5utils11StringUtils12StringHasherIS4_EEN14dense_hash_mapIS5_S8_SE_NS5_14EqualsComparerINSB_13VmStringUtils21CaseSensitiveComparerEEENS0_9allocatorIS9_EEE9SelectKeyESJ_SL_E15set_deleted_keyERKS9_
Usj:__Z38RuntimeInvoker_ContentType_t1787303396PFvvEPK10MethodInfoPvPS4_
HKk:_ReadOnlyCollection_1_Contains_m1700717617_gshared
I1f:_AttrListImpl_get_Names_m977594476
jPj:__ZL53IFormatter_t3549834567_CustomAttributesCacheGeneratorP21CustomAttributesCache
Sef:_UNITY_FT_GlyphLoader_Done
X8j:__ZL89GUIStyle_t3956901511_CustomAttributesCacheGenerator_GUIStyle_get_stretchWidth_m3556443132P21CustomAttributesCache
Gae:__ZN5physx22NpParticleBaseTemplateINS_16PxParticleSystemENS_16NpParticleSystemEE20setMaxMotionDistanceEf
Rhd:__ZN19OverlapPointQuery2D14InitializeAABBER6b2AABB
g8h:_StackTrace_get_FrameCount_m344690939
ncl:_VirtualAxis__ctor_m3267701462
Bqg:_FileStream_BeginRead_m2419864669
Cug:_UnexceptionalStreamWriter_Write_m363195622
Dwe:__ZN5physx18ComputeSortedListsEPNS_2Cm10BitMapBaseINS_6shdfnd9AllocatorEEEjjPKjPPNS_8SapBox1DES7_PjSB_jRKNS_2Gu4AxesESB_RjSB_SG_RbSH_
fAi:_Array_get_swapper_TisRuntimeObject_m1378919517_gshared
u9b:__ZNK21IntermediateRenderers16GetBoundingBoxesEv
hyf:_EventTrigger_OnInitializePotentialDrag_m2172162368
M7e:_tt_cmap14_char_var_index
kRb:__Z35Transfer_Blittable_FixedBufferFieldI18StreamedBinaryReadILb0EEdEvRK29SerializationCommandArgumentsR31RuntimeSerializationCommandInfo
hRl:_Physics2D_Raycast_m1700114981
Coh:_Selectable_OnPointerDown_m1086067264
Xbf:_psh_globals_new
TGf:_Dropdown_SetupTemplate_m628218778
aOi:_Thread_GetCompressedStack_m2923422412
xbg:_SynchronizedArrayListWrapper_CopyTo_m4207791406
VLh:_X509BasicConstraintsExtension_ToString_m1809935297
pAa:__ZN9GfxDevice20SetMaxBufferedFramesEi
Zwl:_TweenRunner_1_StartTween_m1055628540_gshared
Csk:_Array_qsort_TisUIVertex_t4057497605_TisUIVertex_t4057497605_m678708019_gshared
Cbd:__ZN10Collider2D19WakeAllBodyContactsEv
Qvk:_GameObject_GetComponents_TisRuntimeObject_m1246177135_gshared
hW:__ZN24AudioScriptBufferManagerD2Ev
XIm:dynCall_vdd
nvg:_MethodAccessException__ctor_m3542088436
ifc:__Z23ConvertIntegerToTypePtrIsEbPvR14SafeBinaryRead
Qdd:__ZN12b2MouseJoint11ShiftOriginERK6b2Vec2
LQd:__ZNK5physx14NpArticulation17releaseDriveCacheERNS_24PxArticulationDriveCacheE
iag:_ArrayListWrapper_get_Capacity_m51087796
hqh:_LayoutElement_get_minHeight_m4160507569
m2i:_EqualityComparer_1_System_Collections_IEqualityComparer_GetHashCode_m2230215241_gshared
Tkk:__ZL60ContentSizeFitter_t3850442145_CustomAttributesCacheGeneratorP21CustomAttributesCache
Fdg:_Hashtable_Contains_m2145146412
cZj:__ZL64UnmarshalledAttribute_t1517743549_CustomAttributesCacheGeneratorP21CustomAttributesCache
Esc:__ZN4Mesh24UpdateSubMeshVertexRangeEi
P4d:__ZNK5physx2Sc9ClothCore25getSelfCollisionStiffnessEv
HUc:__Z13UpdateSizeTplIL27ParticleSystemCurveEvalMode3EEvRK11MinMaxCurveR23ParticleSystemParticlesbjj
Tki:_MaterialEffectPlayable_Equals_m3750885802
p5l:__ZNK15dense_hashtableINSt3__24pairIK10KeyWrapperINS1_IPK14Il2CppAssemblyP11Il2CppClassEEEjEES9_17ReflectionMapHashIS8_EN14dense_hash_mapIS9_jSD_NS9_14EqualsComparerINS0_8equal_toIS8_EEEENS0_9allocatorISB_EEE9SelectKeyESI_SK_E12test_deletedEj
fBm:__ZN6il2cpp2os9FastMutex4LockEv
jkg:_Int32_FindCurrency_m3541026887
KRh:_Interval_CompareTo_m3282557545
XQm:_pthread_cond_wait__wrapper
U6b:__ZNK14RenderSettings19GetFlatAmbientColorEv
bKa:__ZN6prcoreL10inner_flipILj4EEEvPhS1_j
Msb:__ZN18StreamedBinaryReadILb0EE21TransferSTLStyleArrayI10vector_mapIPKN5Unity4TypeE7Hash128NSt3__24lessIS6_EENS8_9allocatorINS8_4pairIS6_S7_EEEEEEEvRT_17TransferMetaFlags
mJ:__ZNK27StateMachineBehaviourPlayer15IsSenderEnabledEv
nkk:__ZL58Text_t1901882714_CustomAttributesCacheGenerator_m_FontDataP21CustomAttributesCache
ERf:_GenericTypeParameterBuilder_IsPrimitiveImpl_m1952010459
qMk:_ReadOnlyCollection_1_CopyTo_m3474153465_gshared
EDg:_RijndaelManagedTransform_TransformBlock_m1610137419
PFc:__Z40Register_UnityEngine_Transform_SetParentv
hRj:__ZL94WindowsIdentity_t2948242406_CustomAttributesCacheGenerator_WindowsIdentity_Dispose_m3466258450P21CustomAttributesCache
_kb:__ZN14Texture2DArray17UploadToGfxDeviceEv
Xxl:_Event_set_displayIndex_m1342258734
cV:__Z14FMODMemoryFreePvjPKc
p3j:__ZL100RectTransform_t3704657025_CustomAttributesCacheGenerator_RectTransform_INTERNAL_get_rect_m3130887130P21CustomAttributesCache
Ljg:_Int16_System_IConvertible_ToType_m3672347013
aki:_NetFxCoreExtensions_GetMethodInfo_m444570327
Z4b:__Z14SetSHConstantsR13BatchRendererR17ShaderPassContextRK20SphericalHarmonicsL2b
K8e:_tt_cmap0_validate
g8f:_Char_System_IConvertible_ToDecimal_m3534906463
X2e:_cf2_glyphpath_moveTo
yme:__ZN5physx3Scb4Body9syncStateEv
lzi:_Vector3_get_magnitude_m27958459_AdjustorThunk
Uid:__ZNK13BoxCollider2D22GetTypeVirtualInternalEv
kze:__ZN5physx20SingleAABBUpdateTaskD0Ev
Yvi:_StackTraceUtility_SetProjectFolder_m830524047
VUd:__ZN5physx12PxsRigidBody23updatePoseDependenciesVERNS_10PxsContextE
PF:__ZN7mecanim23TransformValueArrayLoopEiiiRKN4math4trsXES3_RNS_10ValueArrayEf
RKg:_ClientSessionInfo_Finalize_m2165787049
eJc:__ZN5IMGUI14GUIWindowStateD2Ev
OJg:_ClientContext_Clear_m1774063253
Usc:__ZN4Mesh17SetIndicesComplexEPKvjj16GfxPrimitiveTypeij
Aqb:__Z32TransferEnumWithNameForceIntSizeI14SafeBinaryRead25ProceduralLoadingBehaviorEvRT_RT0_PKc17TransferMetaFlags
I6c:__Z20UpdateWholeSheet2TplIL27ParticleSystemCurveEvalMode1ELS0_0EEvfRK11MinMaxCurveS3_RK23ParticleSystemParticlesPf
O2h:_DateTime_AddSeconds_m332574389_AdjustorThunk
$xi:_RequestAtlasCallback_Invoke_m378128467
o7f:_Byte_System_IConvertible_ToSByte_m1869482168
Bgm:__GLOBAL__sub_I_Assembly_cpp
uHf:_U3CDelayedDestroyDropdownListU3Ec__Iterator0_MoveNext_m213723240
UWb:__Z21PlayerStartFirstSceneb
fM:__ZN7mecanim5human10RetargetToEPKNS0_5HumanEPKNS0_9HumanPoseES6_RKN4math4trsXEPS4_PNS_8skeleton13SkeletonPoseTIS8_EESF_
HF:__ZN7mecanim9animation8SeekClipERKNS0_12StreamedClipERNS0_18StreamedClipMemoryEf
tHl:__ZL24UnresolvedVirtualCall_68P12Il2CppObjectS0_iS0_S0_S0_S0_S0_S0_PK10MethodInfo
kli:_GameObject_Internal_AddComponentWithType_m3797731663
fn:_emscripten_glIsTexture
iB:__ZN24CompressedAnimationCurveaSERKS_
Ml:_emscripten_glHint
_Tc:__ZN15PolynomialCurve22IsValidPolynomialCurveERK17AnimationCurveTplIfE
yHl:__ZL24UnresolvedVirtualCall_73P12Il2CppObjectPK10MethodInfo
dBl:_Check_SourceAndPredicate_m2332465641
vnd:__ZZN10Collider2D15InitializeClassEvEN30FunctorImpl_98kDidAddComponent4CallEPviR11MessageData
cqj:__Z67RuntimeInvoker_Boolean_t97287965_TextGenerationSettings_t1351628751PFvvEPK10MethodInfoPvPS4_
Gaf:_ft_var_readpackeddeltas
nXh:_String_op_Inequality_m215368492
H$i:_Dictionary_2_Clear_m1938428402_gshared
Vak:__ZL110Physics2D_t1528932956_CustomAttributesCacheGenerator_Physics2D_INTERNAL_CALL_GetRayIntersectionAll_m1016589977P21CustomAttributesCache
ONb:__Z35Transfer_Blittable_FixedBufferFieldI18StreamedBinaryReadILb1EEtEvRK29SerializationCommandArgumentsR31RuntimeSerializationCommandInfo
lUi:_UInt32_System_IConvertible_ToInt64_m2261037378
jn:_SDL_UpperBlit
bJe:__ZN5physx2Cm12DelegateTaskINS_2Sc5SceneEXadL_ZNS3_13ccdBroadPhaseEPNS_10PxBaseTaskEEEED0Ev
KXk:_List_1_System_Collections_IList_Add_m49923158_gshared
f8a:__Z35GetTextureDecodeValuesWithIntensity16TextureUsageMode17TextureColorSpace10ColorSpacef
GBi:_Array_InternalArray__ICollection_Remove_TisChar_t3634460470_m4143749387_gshared
oZb:__ZN15dense_hashtableINSt3__24pairIK9TextureIDiEES2_14GfxGenericHashIS2_EN14GfxDoubleCacheIS2_iS6_NS0_8equal_toIS2_EEN31GfxDoubleCacheConcurrencyPolicy11LocklessGetE42GfxDoubleCacheDefaultEmptyDeletedGeneratorIS2_EE9SelectKeyES9_13stl_allocatorIS4_L18MemLabelIdentifier24ELi16EEE14squash_deletedEv
D0d:__ZNK5physx7NpShape16getContactOffsetEv
G8l:__ZN15dense_hashtableINSt3__24pairIK10KeyWrapperINS1_IPK12PropertyInfoP11Il2CppClassEEEjEES9_17ReflectionMapHashIS8_EN14dense_hash_mapIS9_jSD_NS9_14EqualsComparerINS0_8equal_toIS8_EEEENS0_9allocatorISB_EEE9SelectKeyESI_SK_ED2Ev
yye:__ZN5physx14PxsAABBManager21processAggregatePairsEPKNS_19AggregateSortedDataE
Ldd:__ZNK12b2MouseJoint10GetAnchorAEv
GOd:__ZNK5physx2Cm12DelegateTaskINS_2Sc17ParticleSystemSimEXadL_ZNS3_21prepareCollisionInputEPNS_10PxBaseTaskEEEE7getNameEv
g2h:_GregorianCalendar__ctor_m979779718
eOg:_SslClientStream__ctor_m2402546929
JTb:__ZN14SafeBinaryRead20OverrideRootTypeNameEPKc
hIh:_DictionaryNodeEnumerator_get_Entry_m2309234501
RTl:__ZNK10KeyWrapperIPK22Il2CppGenericParameterE14EqualsComparerINSt3__28equal_toIS2_EEEclERKS3_SA_
Pca:__ZN14FileCacherRead16UnlockCacheBlockEj
SVk:_Enumerator_Dispose_m951715887_AdjustorThunk
fbk:__ZL57ContactPoint2D_t3390240644_CustomAttributesCacheGeneratorP21CustomAttributesCache
oUg:_InternalEnumerator_1_System_Collections_IEnumerator_Reset_m521819017_AdjustorThunk
Lpg:_IsolatedStorageException__ctor_m1022659452
RXd:__ZNK5physx12NpBatchQuery23getFilterShaderDataSizeEv
cla:__ZN10InstancingL21OnGraphicsCapsChangedEv
sHb:__Z18Transfer_BlittableI17RemapPPtrTransferLb1E8Vector3fEvRK29SerializationCommandArgumentsR31RuntimeSerializationCommandInfo
CMj:__ZL61ClassInterfaceType_t4029497327_CustomAttributesCacheGeneratorP21CustomAttributesCache
aQi:_WaitHandle_get_Handle_m3260446580
UWk:_Enumerator_VerifyState_m1745883925_AdjustorThunk
Bd:_emscripten_glUniform1f
Ceg:_SortedList__ctor_m1261191695
Phc:__ZN13dynamic_arrayIS_I8Vector2fLj4EELj4EE18resize_initializedEjRKS1_12ResizePolicy
qXe:__ZN5physx7profile11EventBufferINS_24PxDefaultContextProviderENS_6shdfnd6MutexTINS0_26WrapperReflectionAllocatorIhEEEENS0_14ScopedLockImplIS7_EENS_24PxProfileNullEventFilterEE10doAddEventINS0_17RelativeStopEventEEEvhtRKT_
vbj:__Z75RuntimeInvoker_Int32_t2950945753_DecimalU26_t3714369516_Int64U26_t200113976PFvvEPK10MethodInfoPvPS4_
vff:__Z20ParseImageParametersR11UTF16StringRiRN20TextRenderingPrivate16TextFormatChangeE
Ikk:__ZL55CanvasScaler_t2767979955_CustomAttributesCacheGeneratorP21CustomAttributesCache
BIk:_Collection_1_RemoveItem_m2942561924_gshared
Gd:_emscripten_glUniform1i
gJb:__Z18Transfer_BlittableI24GenerateTypeTreeTransferLb1EN4math12int3_storageEEvRK29SerializationCommandArgumentsR31RuntimeSerializationCommandInfo
Oka:__Z33UnregisterDeviceEventCallbackImplPFv23UnityGfxDeviceEventTypeE
cIe:__ZN5physx2Sc19ShapeInstancePairLL23postIslandGenSecondPassEv
DTe:__ZN14PhysicsManager23VirtualRedirectTransferER19StreamedBinaryWriteILb0EE
Ova:__ZN9ShaderLab16SerializedTagMapaSERKS0_
P1:__ZN11UnityEngine15CloudWebService16SessionContainer20RestoreSessionHeaderERKN4core12basic_stringIcNS2_20StringStorageDefaultIcEEEES8_RNS0_13SessionHeaderE
wYe:__ZN5physx26PxPhysicsInsertionCallbackD2Ev
ivf:__ZN22UnityWebRequestManager13BackendRetainEv
Dvc:__ZN8Material28ApplyMaterialPropertyDrawersEv
Nre:__ZN5physx2Sq16BucketPrunerCore12updateObjectERKNS_9PxBounds3ERKNS0_13PrunerPayloadE
pHe:__ZN5physx18PxsDynamicsContext23atomIntegrationParallelEfPKPNS_11PxsBodyCoreEPKPNS_12PxsRigidBodyEjPKNS_2Cm13SpatialVectorEPNS_13PxcSolverBodyEPNS_17PxcSolverBodyDataEPSA_RjSI_RNS_10PxBaseTaskE
Z4g:_Enumerator_Dispose_m1360775770_AdjustorThunk
wUl:__ZN24dense_hashtable_iteratorINSt3__24pairIK10KeyWrapperIPK22Il2CppGenericParameterEP11Il2CppClassEES6_N6il2cpp5utils11PointerHashIS4_EEN14dense_hash_mapIS6_S9_SE_NS6_14EqualsComparerINS0_8equal_toIS5_EEEENS0_9allocatorISA_EEE9SelectKeyESJ_SL_E30advance_past_empty_and_deletedEv
tN:__ZN11UnityEngine9Animation27CreateAvatarBindingConstantER9TransformPKN7mecanim9animation14AvatarConstantERNS3_6memory9AllocatorE
eJh:_MonoTODOAttribute__ctor_m1298576268
rsh:_MaskableGraphic_get_onCullStateChanged_m3331479633
Bfj:__Z151RuntimeInvoker_RuntimeObject_Int32_t2950945753_RuntimeObject_ObjectU5BU5DU26_t712384779_RuntimeObject_RuntimeObject_RuntimeObject_ObjectU26_t2146539884PFvvEPK10MethodInfoPvPS4_
dyc:__ZN9BlobWriteC2ER13dynamic_arrayIhLj16EE24TransferInstructionFlags19BuildTargetPlatform
DDf:_CanvasUpdateRegistry__ctor_m2005397069
Y$j:__ZL77Input_t1431474628_CustomAttributesCacheGenerator_Input_GetAxisRaw_m2316819917P21CustomAttributesCache
bba:__ZN14MessageHandler3GetEv
VVf:_MonoMethodInfo_GetCallingConvention_m3156036493
mIa:__ZN10DynamicVBO9DrawChunkERK21DynamicVBOChunkHandle17ShaderChannelMaskS3_P17VertexDeclarationPKNS_10DrawParamsEi
XQg:_InternalEnumerator_1__ctor_m1359891754_AdjustorThunk
Xqh:_LayoutGroup_SetLayoutInputForAxis_m2458344630
Ud:_emscripten_glAttachShader
$Il:__ZL25UnresolvedVirtualCall_156P12Il2CppObjectaPK10MethodInfo
L6:__Z40DebugStringToFilePostprocessedStacktraceRK21DebugStringToFileData
tLf:_Image__cctor_m1927508576
LOi:_SendOrPostCallback_EndInvoke_m2485163446
ewa:__ZNSt3__26vectorIN4core12basic_stringIcNS1_20StringStorageDefaultIcEEEENS_9allocatorIS5_EEE6assignIPS5_EENS_9enable_ifIXaasr21__is_forward_iteratorIT_EE5valuesr16is_constructibleIS5_NS_15iterator_traitsISC_E9referenceEEE5valueEvE4typeESC_SC_
Gzd:__ZN5physx2Gu19GetRaycastFuncTableEv
j0g:_InternalEnumerator_1_get_Current_m3331252162_AdjustorThunk
AEj:__ZL76String_t_CustomAttributesCacheGenerator_String_Concat_m1809518182____values0P21CustomAttributesCache
FDb:__Z18Transfer_BlittableI14SafeBinaryReadLb0E11QuaternionfEvRK29SerializationCommandArgumentsR31RuntimeSerializationCommandInfo
Rid:__ZN13BoxCollider2D16CheckConsistencyEv
WHe:__ZN5physx17EdgeChangeManager23cleanupBrokenEdgeEventsEPKNS_4EdgeE
UQb:__Z18Transfer_BlittableI18StreamedBinaryReadILb0EELb1E12PropertyNameEvRK29SerializationCommandArgumentsR31RuntimeSerializationCommandInfo
s6:_tlsf_walk_heap
qfj:__Z49RuntimeInvoker_Void_t1185182177_OpCode_t123070264PFvvEPK10MethodInfoPvPS4_
KGd:__ZN5physx2Sc35ParticleElementRbElementInteraction7destroyEbj
Afm:__ZNK15dense_hashtableINSt3__24pairIK10KeyWrapperIP11Il2CppClassES4_EES5_N6il2cpp8metadata16SZArrayClassHashEN14dense_hash_mapIS5_S4_SA_NS5_14EqualsComparerINS9_19SZArrayClassCompareEEENS0_9allocatorIS7_EEE9SelectKeyESE_SG_E10test_emptyERK24dense_hashtable_iteratorIS7_S5_SA_SI_SE_SG_E
T2l:__ZN6il2cpp2vm7Runtime6InvokeEPK10MethodInfoPvPS5_PP15Il2CppException
Xoj:__Z69RuntimeInvoker_Void_t1185182177_Int32_t2950945753_HitInfo_t3229609740PFvvEPK10MethodInfoPvPS4_
i7j:__ZL59AnimatorClipInfo_t3156717155_CustomAttributesCacheGeneratorP21CustomAttributesCache
Kig:_Convert_ToUInt32_m3592050311
Fb:invoke_vif
Fvk:_Component_GetComponents_TisRuntimeObject_m2416546752_gshared
Gb:invoke_vid
hYg:_InternalEnumerator_1__ctor_m2202456613_AdjustorThunk
LGm:__ZNSt3__212basic_stringIcNS_11char_traitsIcEENS_9allocatorIcEEE6insertEjPKc
Ib:invoke_vii
v0b:__ZNK12ImageFilters8DoRenderER17ShaderPassContextP13RenderTextureS3_RKNSt3__26vectorI11ImageFilterNS4_9allocatorIS6_EEEE
Rke:__ZN5physx13NpVolumeCacheD2Ev
JWa:__ZN12TLSAllocatorI14StackAllocatorE16ThreadInitializeEP13BaseAllocator
Qgj:__Z82RuntimeInvoker_Boolean_t97287965_SByte_t1669577662_RuntimeObject_SByte_t1669577662PFvvEPK10MethodInfoPvPS4_
PAa:__ZN9GfxDevice32UpdateStereoViewProjectionMatrixE21MonoOrStereoscopicEye
REe:__ZThn8_N5physx2Sc35ParticleElementRbElementInteraction12onDeactivateEj
slf:__Z41CanvasRenderer_CUSTOM_DisableRectClippingP12Il2CppObject
nZi:_Dictionary_2__ctor_m1324730059_gshared
ywg:_MonoType_GetConstructorImpl_m441167626
Iue:__ZN5physx16PxsThreadContextC2EPNS_10PxsContextE
$Ff:_DefaultControls_CreateRawImage_m4219873755
eCk:_Collection_1_IsFixedSize_m3709118201_gshared
T_a:__ZN25SingleBlockMemoryFileDataD0Ev
QWa:__ZNSt3__26vectorI14ConstantStringNS_9allocatorIS1_EEE6assignINS_11__wrap_iterIPS1_EEEENS_9enable_ifIXaasr21__is_forward_iteratorIT_EE5valuesr16is_constructibleIS1_NS_15iterator_traitsISA_E9referenceEEE5valueEvE4typeESA_SA_
Qmk:__ZL68TrackableField_t1772682203_CustomAttributesCacheGenerator_m_EnumTypeP21CustomAttributesCache
Zpd:__ZN5physx3Cct10Controller4moveERNS0_11SweptVolumeERKNS_6PxVec3EffRKNS_19PxControllerFiltersEPKNS_17PxObstacleContextEb
K1:__ZN11UnityEngine15CloudWebService16SessionContainer21ConvertFromFolderTimeERKN4core12basic_stringIcNS2_20StringStorageDefaultIcEEEEPjPt
ice:__ZN5physx14NpRigidDynamic17setAngularDampingEf
qFb:__ZNSt3__26vectorI8GUIStyle13stl_allocatorIS1_L18MemLabelIdentifier1ELi16EEE7reserveEj
TMk:_ReadOnlyCollection_1_Contains_m3869904379_gshared
qhm:__ZN6il2cpp6icalls8mscorlib6System9Threading6Thread27GetSerializedCurrentCultureEP12Il2CppThread
MEi:__ZN21InterfaceFuncInvoker2IibbE6InvokeEjP11Il2CppClassP12Il2CppObjectbb
mLg:_Context_set_ReadSequenceNumber_m2154909392
zDg:_RijndaelTransform_SubByte_m3037693507
Dgc:__Z31CalculateHierarchyTransformType23TransformAccessReadOnly
Xic:__Z13RegisterClassI11TimeManagerEvv
VU:__ZN4FMOD8ChannelI11setPositionEjj
ukg:_NumberFormatter_FastIntegerToString_m390846811
jmi:_Input_INTERNAL_CALL_GetTouch_m3481893561
Ald:__ZN10Collider2D12SetPolygon2DEP9Polygon2D
oBi:_Array_InternalArray__ICollection_Contains_TisParticleCollisionEvent_t4055032941_m655273163_gshared
qbe:__ZN5physx15NpActorTemplateINS_14PxRigidDynamicEE17setDominanceGroupEh
kwm:_GC_set_fl_marks
tNd:__ZN5physx6shdfnd8PoolBaseINS_2Sc12SimStateDataENS0_19ReflectionAllocatorIS3_EEE17releaseEmptySlabsEv
uKf:_Image__ctor_m2551076292
SAa:__ZN9GfxDevice17SetStereoViewportE15StereoscopicEyeRK5RectTIiE
ura:__ZN17BaseObjectManager13StaticDestroyEPv
FMl:_CanvasRenderer_INTERNAL_CALL_GetColor_m597074473
h_f:_ClassInterfaceAttribute__ctor_m637338123
uNi:_UTF7Decoder_GetChars_m3413809261
Otd:__ZN5physx2Gu22closestPtPointTriangleEPNS_6shdfnd3aos5Vec3VES4_S4_Rj
i1j:__ZL81Shader_t4151988712_CustomAttributesCacheGenerator_Shader_PropertyToID_m1030499873P21CustomAttributesCache
IFj:__ZL70RuntimeArray_CustomAttributesCacheGenerator_Array_get_Rank_m3448755881P21CustomAttributesCache
oXd:__ZN5physx2Cm8PtrTableC2Ev
mrg:_FileSystemInfo_get_FullName_m3468398407
lxi:_Vector3_get_forward_m3100859705
NT:__ZN4FMOD6Reverb13setPropertiesEPK22FMOD_REVERB_PROPERTIES
b7d:__ZNK5physx22NpParticleBaseTemplateINS_15PxParticleFluidENS_15NpParticleFluidEE14getRestitutionEv
g2b:__ZN9DepthPass13PrepareSubsetEjRK10RenderNodeifRK17ShaderReplaceData
Sxe:__ZN5physx16PxsBroadPhaseMBP6updateEjjRKNS_23PxcBroadPhaseUpdateDataEPNS_10PxBaseTaskE
c$d:__ZN5physx9NpPhysics18createRigidDynamicERKNS_11PxTransformE
iId:__ZN5physx6shdfnd5ArrayIPvNS0_19ReflectionAllocatorINS_2Sc18TriggerInteractionEEEE15growAndPushBackERKS2_
Tua:__ZN9ShaderLab20SerializedSubProgram16TextureParameter8TransferI14SafeBinaryReadEEvRT_
Daj:__Z82RuntimeInvoker_Int32_t2950945753_RuntimeObject_Int32_t2950945753_Int32_t2950945753PFvvEPK10MethodInfoPvPS4_
oFg:_ASN1__ctor_m3517592395
ctc:__Z35SetMeshComponentFromArrayFromScriptR4Mesh30InternalScriptingShaderChannel34InternalScriptingVertexChannelTypei17ScriptingArrayPtri
Vuc:__Z18ExtractTagThrowingR11ICallString
ixa:__ZN4PPtrI6ShaderE8TransferI19StreamedBinaryWriteILb0EEEEvRT_
xHi:_Array_InternalArray__ICollection_Add_TisCustomAttributeNamedArgument_t287865710_m4157175270_gshared
gxd:__ZN5physx2Gu17intersectRayAABB2ERKNS_6shdfnd3aos5Vec3VES5_S5_S5_RKNS2_6FloatVERS6_S9_
Ur:__ZN4core20StringStorageDefaultIcE6assignEPKcj
qVi:_UInt64_System_IConvertible_ToUInt64_m2135047981_AdjustorThunk
bAk:_Collection_1_System_Collections_IEnumerable_GetEnumerator_m1376351129_gshared
k0d:__ZNK5physx7NpShape17getSphereGeometryERNS_16PxSphereGeometryE
IEg:_BigInteger_ModPow_m3776562770
izd:__ZL18intersectAnyVsMeshILi1EEbPKN5physx2Gu6SphereEPKNS1_7CapsuleEPKNS1_3BoxERKNS1_13RTreeMidphaseERKNS0_11PxTransformERKNS0_11PxMeshScaleEP14LimitedResults
Lnm:__ZN15dense_hashtableINSt3__24pairIK10KeyWrapperIP12Il2CppObjectEN6il2cpp2gc9CachedCCWEEES5_NS7_5utils11PointerHashIS3_EEN14dense_hash_mapIS5_S9_SD_NS5_14EqualsComparerINS0_8equal_toIS4_EEEENS0_9allocatorISA_EEE9SelectKeyESI_SK_E3endEv
Iog:_BinaryReader_ReadInt64_m939370142
Gji:_ArgumentCache_get_unityObjectArgumentAssemblyTypeName_m3450114170
Lnc:__ZN15SharedLightDataC2E10MemLabelId
K9f:_ArrayList_IndexOf_m305368842
d9k:_List_1_Add_m2996644200_gshared
BLd:__ZN5physx6shdfnd5ArrayIPvNS0_15InlineAllocatorILj256ENS0_19ReflectionAllocatorINS_2Cm5BlockIhLj128EEEEEEEE15growAndPushBackERKS2_
hbc:__ZN6Camera6SetFarEf
pkh:_FormatterConverter_ToBoolean_m1680758923
huc:__ZNK17AnimationCurveTplI11QuaternionfE13EvaluateClampEfPNS1_5CacheE
rLa:__ZN6prcoreL12RemapGenericI17TexFormatABGR888817TexFormatARGB8888EEvPKNS_9InnerInfoE
P$a:__ZN11GameManager17MainThreadCleanupEv
tfg:_Stack_get_Count_m2258661097
NKk:_ReadOnlyCollection_1__ctor_m1345363288_gshared
Zmf:__Z50Register_UnityEngine_UISystemProfilerApi_EndSamplev
IXi:_Dictionary_2_System_Collections_ICollection_get_SyncRoot_m2020472285_gshared
E_g:_InternalEnumerator_1_System_Collections_IEnumerator_Reset_m1775752715_AdjustorThunk
lc:invoke_vffff
eRl:_Physics2D_Raycast_m2082490717
iZj:__ZL91Application_t1852185770_CustomAttributesCacheGenerator_Application_get_isPlaying_m100394690P21CustomAttributesCache
Cch:_ConfigHandler_OnProcessingInstruction_m4212209262
ajd:__ZN10Collider2D12AddToManagerEv
kTc:__ZN14ParticleSystem10ResetSeedsEv
plh:_SerializationCallbacks_GetSerializationCallbacks_m2939476649
O2d:__ZNK5physx7NpCloth24getParticleAccelerationsEPNS_6PxVec4E
ldg:_Hashtable__cctor_m4112166779
p9e:_UNITY_tt_slot_init
p_b:__ZZ23InitPlayerLoopCallbacksvEN41PostLateUpdateUpdateResolutionRegistrator7ForwardEv
A7g:_KeyCollection_GetEnumerator_m1168803204_gshared
FSb:__Z25scripting_array_class_get17ScriptingClassPtrj
TNc:__ZL22Transfer_ManagedObjectI9JSONWriteLb1EEvRK29SerializationCommandArgumentsR31RuntimeSerializationCommandInfo
SQ:__ZNK10SampleClip22GetTypeVirtualInternalEv
$Ba:__ZN9GfxDevice20DestroyRenderSurfaceER12ObjectHandleI17RenderSurface_TagP17RenderSurfaceBaseE
qfg:_Stack__ctor_m2602729586
R9i:__Z77RuntimeInvoker_Byte_t1134296376_RuntimeObject_Int32_t2950945753_RuntimeObjectPFvvEPK10MethodInfoPvPS4_
rhc:__ZL24PrepareSpriteRenderNodesILb1EEvR35RenderNodeQueuePrepareThreadContext
Rlg:_Int32_System_IConvertible_ToInt32_m265310525_AdjustorThunk
fVa:__ZN9GfxDevice22UpdateComputeResourcesEjPK9TextureIDPK16TextureDimensionPKijPKjjPK15ComputeBufferIDS7_PK20ComputeBufferCounterjSC_S2_S5_S9_SF_
Eda:__ZN12_GLOBAL__N_15qAsinEff
jji:_Display__ctor_m3105658851
J2g:_Comparer_1__cctor_m3470905005_gshared
FTg:_InternalEnumerator_1_System_Collections_IEnumerator_get_Current_m2629988057_AdjustorThunk
KWa:__ZN12TLSAllocatorI14StackAllocatorE13ThreadCleanupEv
C_i:_Dictionary_2_get_Item_m2136868513_gshared
sR:__Z18GetAudioManagerPtrv
dWi:_ValueType_InternalEquals_m1384040357
iUg:_InternalEnumerator_1_Dispose_m2043273260_AdjustorThunk
Ttm:__ZThn4_N6il2cpp2vm13ComObjectBase16MarshalInterfaceEP13Il2CppIStreamRK10Il2CppGuidPvjS7_j
dhg:_Convert_ToDouble_m996590115
rVb:__Z27FindActiveTransformWithPathPKc
x_k:_List_1_System_Collections_IEnumerable_GetEnumerator_m3790284976_gshared
zPk:_ReadOnlyCollection_1_System_Collections_IList_Remove_m4169110229_gshared
RTi:_UInt16_ToString_m3020002356
Dge:__ZN5physx16PxsIslandManager14setEdgeRigidCMERKNS_20PxsIslandManagerHookIjLj4294967295EEEPNS_17PxsContactManagerE
trh:_LayoutRebuilder_LayoutComplete_m68578143
w2l:_RequiredByNativeCodeAttribute__ctor_m119855101
O1a:__ZN12BaseRendererD0Ev
$ec:__Z29StdTemplateConversionFunctionIbyEbPvR14SafeBinaryRead
Q9a:__ZN7Texture5ResetEv
wQd:__ZN5physx14NpArticulation25setStabilizationThresholdEf
nzl:_GUIStyle_get_fixedWidth_m2576616348
Uek:__ZL90PointerEventData_t3807901092_CustomAttributesCacheGenerator_U3ClastPressU3Ek__BackingFieldP21CustomAttributesCache
ITh:_SHA1Internal_Initialize_m499810128
rMe:__ZN5physx2Gu11HeightField7releaseEv
Z7:__ZNK6Camera7GetNearEv
pRf:_GenericTypeParameterBuilder_GetConstructorImpl_m863833310
z6g:_Enumerator_get_Current_m3687673883_AdjustorThunk
mOa:__ZN7ApiGLES11UnmapBufferEjN2gl12BufferTargetE
fum:__ZN6il2cpp5utilsL24Utf32CharToSurrogatePairEjRA2_Ds
Tfb:__Z25GetNextAllowedTextureSizeib13TextureFormat
jVb:__ZN20LocalFileSystemWebGL4CopyER13FileEntryDataS1_
r4:__ZN19CloudServiceHandler6RetainEv
fCm:__ZN6il2cpp2os9Semaphore4WaitEb
zcd:__ZN15b2FrictionJointD0Ev
DLk:_ReadOnlyCollection_1_System_Collections_IList_IndexOf_m198887188_gshared
nal:_ForcedReset__ctor_m2836647074
PJc:__Z36Event_CUSTOM_Internal_SetNativeEventPv
MMi:_UTF32Encoding_GetBytes_m3180303867
mfa:__ZN12BaseRenderer20FlattenToRenderQueueER15RenderNodeQueueRK20DeprecatedSourceData
m9k:_List_1_CopyTo_m4034402519_gshared
sEe:__ZN5physx2Sc8ClothSim23addCollisionHeightfieldEPKNS0_8ShapeSimE
jNk:_ReadOnlyCollection_1_System_Collections_IList_Clear_m2007013334_gshared
Zxb:__Z34scripting_liveness_calculation_endPv
Fpm:__ZN6il2cpp2os6ThreadC2Ev
XPg:_U3CGetEnumeratorU3Ec__Iterator0_System_Collections_Generic_IEnumeratorU3CTU3E_get_Current_m1566629109_gshared
U4k:_List_1_set_Capacity_m725662605_gshared
z4h:_DateTimeOffset_get_UtcDateTime_m1021718282_AdjustorThunk
nra:__ZN16memory_pool_implILi64EE15AutoPoolWrapper12UninitializeEPv
HIl:__ZL25UnresolvedVirtualCall_136P12Il2CppObject19Vector2_t2156229523PK10MethodInfo
cF:__ZN21AnimationClipPlayable22ProcessAnimationNoClipEPK35AnimationPlayableEvaluationConstantPK32AnimationPlayableEvaluationInputP33AnimationPlayableEvaluationOutput
FHh:_HybridDictionary_get_Count_m1166314536
Lil:_TlsStream_Write_m1412844442
tPc:__Z18Transfer_BlittableI8JSONReadLb0E8Vector3fEvRK29SerializationCommandArgumentsR31RuntimeSerializationCommandInfo
MA:__ZN13AnimationClip12Vector3Curve8TransferI14SafeBinaryReadEEvRT_
Ifm:__ZN6il2cpp2vm6Thread6DetachEP12Il2CppThread
mjl:_GeneralNames_get_DNSNames_m3788548987
QZk:_List_1_AddCollection_m2026039026_gshared
kcf:_Render_Single_Pass
aUd:__ZNK5physx18NpArticulationLink13isSubordinateEv
kHl:__ZL24UnresolvedVirtualCall_59P12Il2CppObjectS0_aPK10MethodInfo
rDd:__GLOBAL__sub_I_runtime_dynamics_2_cpp
_lh:_SerializationEntry_t648286436_marshal_pinvoke
zN:__ZN7mecanim8skeleton30SkeletonBuildReverseIndexArrayEPiPKiPKNS0_8SkeletonES6_
UHc:__Z19GetGUIBlendMaterialv
u1i:_DefaultComparer_GetHashCode_m177499767_gshared
cvg:_Math_Round_m3018379666
Nhj:__Z41RuntimeInvoker_Boolean_t97287965_IntPtr_tPFvvEPK10MethodInfoPvPS4_
uqm:__ZN6il2cpp2os10ThreadImpl5SleepEjb
qKk:_ReadOnlyCollection_1_System_Collections_Generic_IListU3CTU3E_set_Item_m519295790_gshared
FLk:_ReadOnlyCollection_1_System_Collections_IList_Remove_m1965826685_gshared
exe:__ZN5physx14SapPairManager12shrinkMemoryEv
gof:__ZN11UnityEngine9Analytics15UserCustomEvent3AddEPKcb
B7h:_Delegate_CreateDelegate_m1051651521
FQe:__ZN5physx6shdfnd8internal7median3IjKNS_19SortBoundsPredicateEEEvPT_iiRT0_
RCi:_PlayableHandle_IsPlayableOfType_TisRuntimeObject_m503495943_AdjustorThunk
Ts:__ZN18AnimatorController23VirtualRedirectTransferER24GenerateTypeTreeTransfer
qPm:_glBindSampler__wrapper
G$a:__ZNSt3__26vectorIN20ArchiveStorageHeader12StorageBlockE13stl_allocatorIS2_L18MemLabelIdentifier55ELi16EEE8__appendEj
Bg:_emscripten_set_mouseup_callback
Dta:__Z14resize_trimmedINSt3__26vectorIN9ShaderLab14SerializedPassENS0_9allocatorIS3_EEEEEvRT_j
Dni:_Mathf_Clamp_m3350697880
WUa:__ZN9GfxDevice27SetRandomWriteTargetTextureEi9TextureID
u_i:_Dictionary_2_System_Collections_Generic_ICollectionU3CSystem_Collections_Generic_KeyValuePairU3CTKeyU2CTValueU3EU3E_Contains_m3033743418_gshared
bhj:__Z165RuntimeInvoker_Void_t1185182177_UInt32U26_t3735378166_Int32_t2950945753_UInt32U26_t3735378166_Int32_t2950945753_Int32_t2950945753_Int32_t2950945753_Int32_t2950945753PFvvEPK10MethodInfoPvPS4_
GZk:_List_1_System_Collections_IList_Remove_m3140917266_gshared
yKi:_Encoding_get_DecoderFallback_m1525880676
EOj:__ZL59ITrackingHandler_t1244553475_CustomAttributesCacheGeneratorP21CustomAttributesCache
tol:_CompositeExpression__ctor_m2434860303
bZg:_InternalEnumerator_1_get_Current_m2112392701_AdjustorThunk
yBg:_DSASignatureDeformatter__ctor_m2759753186
pje:__ZN5physx7NpScene22removeBroadPhaseRegionEj
BId:__ZL34GeomOverlapCallback_CapsuleCapsuleRKN5physx10PxGeometryERKNS_11PxTransformES2_S5_PNS_2Gu12TriggerCacheE
pHk:_Collection_1_System_Collections_IEnumerable_GetEnumerator_m801406918_gshared
Ydl:_U3CStartU3Ec__Iterator0_MoveNext_m1328472023
hdc:__ZNK18ScreenManagerWebGL8GetWidthEv
xie:__ZNK5physx7NpScene23getFilterShaderDataSizeEv
ZCc:__Z39Random_CUSTOM_INTERNAL_get_onUnitSphereP8Vector3f
z$l:__ZN6il2cpp2vm13MetadataCache33GetFieldDefaultValueDataFromIndexEi
PQ:__ZN10SampleClipD2Ev
Ttl:_InvokableCall_1_remove_Delegate_m790146436_gshared
Osl:_Predicate_1_Invoke_m2389850270_gshared
Eug:_UnmanagedMemoryStream_get_CanSeek_m2636857629
sxb:__Z13GetGISettingsv
tDk:_Collection_1_RemoveAt_m1813368096_gshared
b4:__ZN11UnityEngine15CloudWebService20WebRequestRestClientC2Ev
I4e:_cff_cmap_unicode_init
PAi:_Array_InternalArray__ICollection_Contains_TisRuntimeObject_m4067783231_gshared
Sca:__ZN14FileCacherRead13GetFileLengthEv
Tul:_UnityAction_1_EndInvoke_m542551745_gshared
FAk:_Collection_1_IsValidItem_m3080586124_gshared
Kka:__ZNSt3__26__treeI19RepeatingLogMessageNS_4lessIS1_EE13stl_allocatorIS1_L18MemLabelIdentifier73ELi16EEE4findIS1_EENS_15__tree_iteratorIS1_PNS_11__tree_nodeIS1_PvEEiEERKT_
UGf:_DropdownItem_set_text_m3702712387
dEf:_ClipperRegistry_Register_m2407166513
kFm:_readlink
a9l:__ZN15dense_hashtableINSt3__24pairIK10KeyWrapperINS1_IPK9EventInfoP11Il2CppClassEEEjEES9_17ReflectionMapHashIS8_EN14dense_hash_mapIS9_jSD_NS9_14EqualsComparerINS0_8equal_toIS8_EEEENS0_9allocatorISB_EEE9SelectKeyESI_SK_E12resize_deltaEjj
QVf:_MonoCMethod_Invoke_m2700167622
heg:_KeyMarker__cctor_m2590194914
wVc:__ZN14ParticleSystem38UpdateModulesPostSimulationIncrementalER24ParticleSystemUpdateDataR23ParticleSystemParticlesjRKf
qAm:__ZN6il2cpp8metadata14Il2CppTypeHash4HashEPK10Il2CppType
Y3g:_Enumerator_Reset_m627751027_AdjustorThunk
wBm:__ZN6il2cpp2os13SemaphoreImplC2Eii
jWi:_Version__ctor_m872301635
Fpb:__ZNK6Sprite9GetBoundsE8Vector2fbb
d3a:__ZNK19RenderEventsContext21CleanupCommandBuffersEv
QLl:_TextGenerator_PopulateWithErrors_m1222498386
PJl:__ZL25UnresolvedVirtualCall_198P12Il2CppObject6Guid_tS1_PK10MethodInfo
Yt:__ZN7mecanim12statemachine13StateConstant8TransferI14SafeBinaryReadEEvRT_
fOk:_ReadOnlyCollection_1_System_Collections_Generic_ICollectionU3CTU3E_Clear_m2102011098_gshared
VFa:__ZN11ContextGLES6CreateEi
Iyd:__ZN5physx6shdfnd5ArrayINS_10PxTriangleENS0_19ReflectionAllocatorIS2_EEE15growAndPushBackERKS2_
uMl:_WillRenderCanvases_BeginInvoke_m1804779886
gpj:__Z52RuntimeInvoker_Boolean_t97287965_Vector3_t3722313464PFvvEPK10MethodInfoPvPS4_
e1k:_List_1_set_Capacity_m3382070520_gshared
Huj:__Z68RuntimeInvoker_Boolean_t97287965_RuntimeObject_ObjectU26_t2146539884PFvvEPK10MethodInfoPvPS4_
Tph:_U3CMouseDragOutsideRectU3Ec__Iterator1_Dispose_m267465418
z6h:_Decimal_CompareTo_m3502307243_AdjustorThunk
IRb:__Z19TransferField_ArrayI18StreamedBinaryReadILb0EE27Converter_SimpleNativeClassI17AnimationCurveTplIfEEEvRK23StaticTransferFieldInfoR31RuntimeSerializationCommandInfoRT0_
lWa:__ZN14StackAllocator16FrameMaintenanceEb
_td:__ZL11SweepBoxBoxPKN5physx3Cct9SweepTestEPKNS0_11SweptVolumeEPKNS0_11TouchedGeomERKNS_14PxExtendedVec3ERKNS_6PxVec3ERNS0_12SweptContactE
wnd:__ZZN10Collider2D15InitializeClassEvEN33FunctorImpl_99kDidRemoveComponent4CallEPviR11MessageData
tuh:_Scrollbar_get_value_m760470106
c8:__ZNK10GameObject20QueryComponentByTypeEPKN5Unity4TypeE
O5h:_Decimal_System_IConvertible_ToInt32_m1488426794_AdjustorThunk
Fvg:_MonoCustomAttrs_IsUserCattrProvider_m2878058089
lik:__ZL71InputField_t3762917431_CustomAttributesCacheGenerator_m_HideMobileInputP21CustomAttributesCache
dfb:__ZN11TextureData5ResetEv
zAc:__Z53Register_UnityEngine_GameObject_get_activeInHierarchyv
iVh:_ToBase64Transform_InternalTransformFinalBlock_m360524956
P1f:_ActivationContext_Dispose_m2038725770
gJl:__ZL25UnresolvedVirtualCall_163P12Il2CppObject19Color32_t2600501292S1_PK10MethodInfo
iHb:__Z35Transfer_Blittable_FixedBufferFieldI17RemapPPtrTransferiEvRK29SerializationCommandArgumentsR31RuntimeSerializationCommandInfo
taa:__ZL30InitializeCoreScriptingClassesv
jQk:_ReadOnlyCollection_1_Contains_m1699971074_gshared
KXg:_InternalEnumerator_1_Dispose_m630370856_AdjustorThunk
yh:_glBlitFramebuffer
wZa:__ZN17ArchiveFileSystem5TouchER13FileEntryData
toe:__ZNK5physx2Sc5Scene17prefetchForRemoveERKNS0_10StaticCoreE
H7g:_KeyCollection_System_Collections_Generic_IEnumerableU3CTKeyU3E_GetEnumerator_m818204647_gshared
dHb:__Z35Transfer_Blittable_SingleValueFieldI14SafeBinaryReadhEvRT_R17GeneralMonoObjectRK23StaticTransferFieldInfo
hfk:__ZL97PointerEventData_t3807901092_CustomAttributesCacheGenerator_U3CuseDragThresholdU3Ek__BackingFieldP21CustomAttributesCache
S6d:__ZN5physx22NpParticleBaseTemplateINS_15PxParticleFluidENS_15NpParticleFluidEE13setVelocitiesEjRKNS_16PxStrideIteratorIKjEERKNS4_IKNS_6PxVec3EEE
etf:__ZN22BaseUnityConnectClientC2ERN11UnityEngine7Connect20BasePersistentValuesE
DIi:_Array_InternalArray__ICollection_CopyTo_TisInt64_t3736567304_m2845057751_gshared
ieb:__ZNK12CubemapArray22GetTypeVirtualInternalEv
cp:FUNCTION_TABLE_vif
dp:FUNCTION_TABLE_vid
Vuk:_Dictionary_2_Do_CopyTo_TisInt32_t2950945753_TisRuntimeObject_m213146570_gshared
fp:FUNCTION_TABLE_vii
iyb:__Z40scripting_liveness_calculation_from_root18ScriptingObjectPtrPv
bmh:_SerializationEntry__ctor_m1411687997_AdjustorThunk
d3c:__ZN13InitialModuleD2Ev
SNj:__ZL65IContributeDynamicSink_t2255997386_CustomAttributesCacheGeneratorP21CustomAttributesCache
Zab:__ZN7Texture23VirtualRedirectTransferER24GenerateTypeTreeTransfer
lef:_UNITY_FT_Set_Transform
lmc:__ZNK32RendererMaterialAnimationBinding12SetPPtrValueERKN11UnityEngine9Animation10BoundCurveEi
Omm:__ZN6il2cpp8metadata15GenericMetadata20RegisterGenericClassEP18Il2CppGenericClass
VOm:_glDeleteFramebuffers__wrapper
yzk:_Collection_1_System_Collections_IList_get_IsFixedSize_m2620019318_gshared
ydj:__Z220RuntimeInvoker_Boolean_t97287965_RuntimeObject_Int32U26_t1369213839_Int32_t2950945753_Int32_t2950945753_Int32_t2950945753_RuntimeObject_SByte_t1669577662_Int32_t2950945753_ContractionU26_t961830454_ContextU26_t3937453398PFvvEPK10MethodInfoPvPS4_
eah:_Enumerator__ctor_m920120158_AdjustorThunk
dBc:__Z36Register_UnityEngine_RectOffset_Initv
CJj:__ZL78TextInfo_t3810425522_CustomAttributesCacheGenerator_TextInfo_Clone_m3838580862P21CustomAttributesCache
Q2e:_cff_blend_build_vector
ZKh:_WebHeaderCollection_ToString_m1263025316
rXg:_InternalEnumerator_1_MoveNext_m1015797184_gshared
Mmc:__ZZN12MeshRenderer15InitializeClassEvEN29FunctorImpl_134kDidDeleteMesh4CallEPviR11MessageData
Vfj:__Z91RuntimeInvoker_Void_t1185182177_RuntimeObject_RuntimeObject_RuntimeObject_Int32_t2950945753PFvvEPK10MethodInfoPvPS4_
YXf:_GetterAdapter_Invoke_m3767885970
h2k:_List_1__ctor_m747758800_gshared
OPk:_ReadOnlyCollection_1_System_Collections_Generic_ICollectionU3CTU3E_Add_m4137362799_gshared
tSf:_MethodBuilder_get_ReflectedType_m3038768129
t$h:_String_CreateString_m2818852475
AVk:_Enumerator_get_Current_m335492761_AdjustorThunk
dvj:__Z37RuntimeInvoker_Enumerator_t3923002270PFvvEPK10MethodInfoPvPS4_
Xhc:__Z22GenerateBoxTilingShapeP22GenerateTilingAreaInfo
ohb:__ZN28EnlightenRendererInformation8TransferI14SafeBinaryReadEEvRT_
ha:invoke_viiiiiifi
bNl:_CanvasRenderer_get_hasMoved_m2236392341
UXd:__ZN5physx12NpBatchQuery13getUserMemoryEv
spi:_MessageEvent__ctor_m1231650089
gta:__ZNK15Lz4Decompressor16DecompressMemoryEPKvPjPvS2_
H7e:_UNITY_tt_face_build_cmaps
YUi:_UInt64_System_IConvertible_ToDecimal_m806594027
mvg:_MemberAccessException__ctor_m3713703094
lVf:_MethodBase_get_ContainsGenericParameters_m2144492325
wKj:__ZL117GenericTypeParameterBuilder_t1988827940_CustomAttributesCacheGenerator_GenericTypeParameterBuilder_Equals_m3260957994P21CustomAttributesCache
Ehc:__ZN4core8hash_mapINS_12basic_stringIcNS_20StringStorageDefaultIcEEEE10vector_setI4PPtrI11SpriteAtlasENSt3__24lessIS8_EE13stl_allocatorIS8_L18MemLabelIdentifier81ELi16EEENS_4hashIS4_EENS9_8equal_toIS4_EEEixERKS4_
Jmd:__ZN11Rigidbody2D8TransferI24GenerateTypeTreeTransferEEvRT_
_Gl:__ZL24UnresolvedVirtualCall_47P12Il2CppObject20DateTime_t3738529785PK10MethodInfo
edb:__Z35UnityPropertySheet_MakeSortedColorsRKNSt3__23mapIN9ShaderLab16FastPropertyNameE10ColorRGBAfNS_4lessIS2_EENS_9allocatorINS_4pairIKS2_S3_EEEEEER10vector_mapIS2_S3_S5_NS6_INS7_IS2_S3_EEEEE
WWj:__ZL72PKCS12_t4101533061_CustomAttributesCacheGenerator_U3CU3Ef__switchU24map8P21CustomAttributesCache
b7e:_UNITY_tt_face_load_os2
yZj:__ZL90Coroutine_t3829159415_CustomAttributesCacheGenerator_Coroutine_ReleaseCoroutine_m809189848P21CustomAttributesCache
lCe:__ZN5physx2GuL34fullContactsGenerationSphereConvexERKNS0_8CapsuleVERKNS0_11ConvexHullVERKNS_6shdfnd3aos12PsTransformVESB_PNS0_17PersistentContactERjRNS0_13ContactBufferEbRNS0_25PersistentContactManifoldERNS8_5Vec3VERKNS8_6FloatVEb
Ybe:__ZN5physx19NpRigidBodyTemplateINS_14PxRigidDynamicEE16setRigidBodyFlagENS_15PxRigidBodyFlag4EnumEb
pLd:__ZN5physx6shdfnd8PoolBaseINS_2Sc19ConstraintGroupNodeENS0_19ReflectionAllocatorIS3_EEE17releaseEmptySlabsEv
xGb:__Z29Transfer_Blittable_ArrayFieldI14SafeBinaryRead8Vector4fEvRT_R9ArrayInfoRK23StaticTransferFieldInfo
T9k:_DestroyByBoundary__ctor_m325595327
w_e:__ZNSt3__27__sort4IRNS_6__lessI24InterpolationDepthHandleS2_EEPS2_EEjT0_S6_S6_S6_T_
rdg:_Hashtable_get_IsSynchronized_m1426775249
ONi:_UTF8Encoding_GetMaxCharCount_m3762459613
FOf:_ModuleBuilder_RegisterToken_m4166846047
_pd:__ZN5physx3Cct8SweptBoxD2Ev
g_b:__ZZ23InitPlayerLoopCallbacksvEN51PostLateUpdateUpdateCustomRenderTexturesRegistrator7ForwardEv
Ise:__ZN5physx2Cm12DelegateTaskINS_13PxsCCDContextEXadL_ZNS2_12postCCDSweepEPNS_10PxBaseTaskEEEED0Ev
Cth:_RawImage_OnPopulateMesh_m1115858855
Zej:__Z74RuntimeInvoker_MonoFileType_t221779374_IntPtr_t_MonoIOErrorU26_t1548853198PFvvEPK10MethodInfoPvPS4_
N$l:__ZN6il2cpp2vm13MetadataCache25GetStringLiteralFromIndexEi
o2f:_Hashtable_ToPrime_m33531354
AF:__ZN7mecanim9animation12EvaluateClipEPKNS0_4ClipEPKNS0_9ClipInputEPNS0_10ClipMemoryEPNS0_10ClipOutputE
XHk:_Collection_1_IsSynchronized_m1117613618_gshared
s7g:_KeyCollection_System_Collections_Generic_ICollectionU3CTKeyU3E_Remove_m2555909644_gshared
kCd:__ZN5physx3Cct9SweepTest15onObstacleAddedEjPKNS_17PxObstacleContextERKNS_6PxVec3ES7_f
Sff:__ZN20TextRenderingPrivate7GUIText18GetFontAndMaterialEv
vGb:__ZN15SerializeTraitsI13dynamic_arrayI5RectTIfELj4EEE19ResizeSTLStyleArrayERS3_i
$Id:__ZN5physx2Gu10SupportMapD2Ev
WSi:_TypeInitializationException__ctor_m3546444694
Uvc:__ZNK9Transform16GetLocalRotationEv
h6g:_Enumerator_System_Collections_IEnumerator_Reset_m4278714428_gshared
zhb:__ZN4PPtrI11LightProbesE8TransferI18StreamedBinaryReadILb0EEEEvRT_
B3:__ZN11UnityEngine15CloudWebService23WebRequestUploadHandler17ConsumeUploadDataEj
H0l:__ZNSt3__214__split_bufferI6pollfdRNS_9allocatorIS1_EEEC2EjjS4_
lch:_CrossAppDomainData_get_DomainID_m3516796532
ltj:__Z68RuntimeInvoker_Void_t1185182177_Single_t1397266774_SByte_t1669577662PFvvEPK10MethodInfoPvPS4_
iTd:__ZNK5physx15NpActorTemplateINS_18PxArticulationLinkEE22getClientBehaviorFlagsEv
Brg:_MemoryStream_set_Position_m3169779190
$9b:__ZN13RenderManager29SetCurrentCameraAndStackStateEP6CameraP25CameraStackRenderingState
wbk:__ZL77Physics_t2310948930_CustomAttributesCacheGenerator_Physics_Raycast_m630863594P21CustomAttributesCache
Qyf:_ExecuteEvents_get_scrollHandler_m2659345019
C1a:__ZNSt3__26__treeINS_12__value_typeIjN4core12basic_stringIcNS2_20StringStorageDefaultIcEEEEEENS_19__map_value_compareIjS7_NS_4lessIjEELb1EEE13stl_allocatorIS7_L18MemLabelIdentifier7ELi16EEE7destroyEPNS_11__tree_nodeIS7_PvEE
tfm:__ZN15dense_hashtableINSt3__24pairIK10KeyWrapperINS1_IP11Il2CppClassjEEES4_EES6_N6il2cpp8metadata14ArrayClassHashEN14dense_hash_mapIS6_S4_SB_NS6_14EqualsComparerINSA_17ArrayClassCompareEEENS0_9allocatorIS8_EEE9SelectKeyESF_SH_E12resize_deltaEjj
Ni:_JS_WebRequest_Release
jTd:__ZNK5physx15NpActorTemplateINS_18PxArticulationLinkEE12getAggregateEv
i2:__ZN11UnityEngine15CloudWebService14DataErrorEventD0Ev
ijm:__ZN6il2cpp6icalls8mscorlib6System4Type20internal_from_handleEi
VYj:__ZL72RequiredByNativeCodeAttribute_t4130846357_CustomAttributesCacheGeneratorP21CustomAttributesCache
t6f:_Boolean_System_IConvertible_ToUInt16_m3465173538_AdjustorThunk
o2c:__ZN14EmissionModule5ResetEv
Bdh:_Context__ctor_m254302079
Lse:__ZN5physx13PxsCCDContext12postCCDSweepEPNS_10PxBaseTaskE
Kmm:__ZN6il2cpp8metadata15GenericMetadata7InflateEPK19Il2CppGenericMethodPK20Il2CppGenericContext
kGh:_KeyGeneratedEventHandler_EndInvoke_m3057317531
Fgb:__ZN19ShaderPropertySheet16SetArrayPropertyEN9ShaderLab16FastPropertyNameENS_12PropertyTypeEPKvj
bvh:_Selectable_FindSelectable_m2348614027
a3b:__ZN22PerThreadPageAllocatorC2Ev
AFf:_FloatTween_get_duration_m1227071020
rnm:__ZN15dense_hashtableINSt3__24pairIK10KeyWrapperIP12Il2CppObjectEN6il2cpp2gc9CachedCCWEEES5_NS7_5utils11PointerHashIS3_EEN14dense_hash_mapIS5_S9_SD_NS5_14EqualsComparerINS0_8equal_toIS4_EEEENS0_9allocatorISA_EEE9SelectKeyESI_SK_E16reset_thresholdsEv
BHf:_DropdownItem_OnPointerEnter_m1492957598
lRe:__ZN5physx6shdfnd10Foundation19AlignCheckAllocator28deregisterAllocationListenerERNS_20PxAllocationListenerE
KSd:__ZN5physx2Sc21ArticulationJointCore12setChildPoseERKNS_11PxTransformE
fYf:_ParameterInfo_get_ParameterType_m4197803362
tJl:__ZL25UnresolvedVirtualCall_176P12Il2CppObject19Vector2_t2156229523PK10MethodInfo
vej:__Z91RuntimeInvoker_Void_t1185182177_Int32U26_t1369213839_Int32U26_t1369213839_Int32_t2950945753PFvvEPK10MethodInfoPvPS4_
mJc:__ZN8GUIState8EndOnGUIEv
w9e:_UNITY_TT_Get_VMetrics
kaj:__Z49RuntimeInvoker_Char_t3634460470_Int16_t2552820387PFvvEPK10MethodInfoPvPS4_
Zue:__ZN5physx33solveContactCoulombBlockWriteBackEPKNS_23PxcSolverConstraintDescEjRNS_16PxcSolverContextEPNS_25PxcThresholdStreamElementEjPi
l3i:_EqualityComparer_1__ctor_m2283513024_gshared
_ag:_SimpleEnumerator__cctor_m2844299657
Rug:_LocalDataStoreSlot__ctor_m4104083971
Hsk:_Array_qsort_TisVector3_t3722313464_m4117329442_gshared
SPk:_ReadOnlyCollection_1_System_Collections_Generic_IListU3CTU3E_RemoveAt_m3849058645_gshared
eFl:_AudioSource_ReadExtensionName_m725112169
mll:_X509CertificateEnumerator_System_Collections_IEnumerator_Reset_m2039524926
MCe:__ZN5physx9PxTaskMgr17submitUnnamedTaskERNS_6PxTaskENS_10PxTaskType4EnumE
kkj:__Z128RuntimeInvoker_Void_t1185182177_RuntimeObject_BooleanU26_t4125257963_SByte_t1669577662_Int32U26_t1369213839_Int32U26_t1369213839PFvvEPK10MethodInfoPvPS4_
MIa:__ZN7Texture21GetMasterTextureLimitEv
_9g:_Enumerator_Dispose_m3503748991_AdjustorThunk
Qbc:__Z12CanAddScriptR10GameObject17ScriptingClassPtrPS1_S2_
acm:__ZN6il2cpp2vm10Reflection12HasAttributeEP12Il2CppObjectP11Il2CppClass
Srj:__Z103RuntimeInvoker_Boolean_t97287965_RuntimeObject_Vector2_t2156229523_RuntimeObject_Vector3U26_t3464235976PFvvEPK10MethodInfoPvPS4_
PSk:_Comparison_1_BeginInvoke_m3263247262_gshared
yla:__ZN9ShaderLabL25StaticInitializeShaderLabEPv
Eqe:__ZNK5physx2Sq12BucketPruner5sweepERKNS0_9ShapeDataERKNS_6PxVec3ERfRNS0_14PrunerCallbackE
U:Math_max
blk:__ZL64HorizontalLayoutGroup_t2586782146_CustomAttributesCacheGeneratorP21CustomAttributesCache
RHl:__ZL24UnresolvedVirtualCall_92P12Il2CppObjectPK10MethodInfo
Ccm:_il2cpp_class_get_methods
iQl:_SpringJoint_set_spring_m3317999832
wvi:_HitInfo_SendMessage_m1343099429_AdjustorThunk
jJb:__Z18Transfer_BlittableI24GenerateTypeTreeTransferLb0EN4math12int2_storageEEvRK29SerializationCommandArgumentsR31RuntimeSerializationCommandInfo
jBl:_AesManaged_GenerateKey_m2004209814
f8h:_StackTrace_get_trace_m1194606084
WYh:_Single_CompareTo_m2785801815_AdjustorThunk
Npm:__ZN6il2cpp2os6Thread16GetCurrentThreadEv
Sqk:_Array_InternalArray__Insert_TisUILineInfo_t4195266810_m3191124053_gshared
Voc:__ZN10GameObject13ComponentPair15SetComponentPtrEPN5Unity9ComponentE
jNm:_glBlitFramebuffer__wrapper
qZe:__ZN5physx6shdfnd8internal8HashBaseINS0_4PairIKPKNS0_14NamedAllocatorEPKcEES6_NS0_4HashIS6_EENS1_11HashMapBaseIS6_S9_SC_NS0_20NonTrackingAllocatorEE6GetKeyESE_Lb1EE15reserveInternalEj
y2j:__ZL109SceneManager_t2787271929_CustomAttributesCacheGenerator_SceneManager_INTERNAL_CALL_GetActiveScene_m1427626561P21CustomAttributesCache
Jic:__Z13RegisterClassI10MeshFilterEvv
cxi:_Transform_INTERNAL_set_position_m3627767375
I1a:__ZN10TagManager8TransferI19StreamedBinaryWriteILb0EEEEvRT_
Dxb:__ZN11PreloadData23VirtualRedirectTransferER18StreamedBinaryReadILb0EE
okb:__ZN13sorted_vectorI4PPtrI11SpriteAtlasENSt3__24lessIS2_EE13stl_allocatorIS2_L18MemLabelIdentifier1ELi16EEE21sort_clear_duplicatesEv
Rqi:_PropertyNameUtils_PropertyNameFromString_Injected_m1259736140
uhk:__ZL60FontData_t746620069_CustomAttributesCacheGenerator_m_MinSizeP21CustomAttributesCache
e8f:_Char_System_IConvertible_ToDateTime_m3564102661
g6l:__ZN15dense_hashtableINSt3__24pairIK10KeyWrapperINS1_IPK9FieldInfoP11Il2CppClassEEEjEES9_17ReflectionMapHashIS8_EN14dense_hash_mapIS9_jSD_NS9_14EqualsComparerINS0_8equal_toIS8_EEEENS0_9allocatorISB_EEE9SelectKeyESI_SK_E16reset_thresholdsEv
Beg:_SyncHashtable_Clone_m3726939774
hjb:__ZN6Sprite17MainThreadCleanupEv
vNm:_glBlendFuncSeparate__wrapper
AW:__ZN10AudioMixer14UpdateMuteSoloEv
Nba:__Z17GetMonoManagerPtrv
rXj:__ZL85Locale_t4128636109_CustomAttributesCacheGenerator_Locale_GetText_m2640320736____args1P21CustomAttributesCache
w_d:__ZN5physx6shdfnd5ArrayINS_3Scb13MaterialEventENS0_19ReflectionAllocatorIS3_EEE15growAndPushBackERKS3_
V0a:__ZN9Transform35SetLocalPositionWithoutNotificationERKN4math7_float3Ey
$8j:__ZL87GUIUtility_t1868551600_CustomAttributesCacheGenerator_U3CguiIsExitingU3Ek__BackingFieldP21CustomAttributesCache
Tjj:__Z69RuntimeInvoker_UInt64_t4134040092_Int32_t2950945753_SByte_t1669577662PFvvEPK10MethodInfoPvPS4_
Oj:_JS_Eval_ClearTimeout
TSm:_glDepthFunc__wrapper
cuh:_Raycast2DCallback_Invoke_m1500574149
wNa:__ZN7ApiGLES16SetPatchVerticesEi
xql:_CharacterClass_Compile_m3296067317
eNd:__ZN5physx2Sc5Scene11onBodySleepEPNS0_7BodySimE
Erm:__ZN6il2cpp2gc16GarbageCollector16InvokeFinalizersEv
n7f:_Byte_System_IConvertible_ToInt64_m285584218_AdjustorThunk
Isi:_Rect_get_size_m477575021_AdjustorThunk
lUl:__ZN6il2cpp2vm5Class20FromGenericParameterEPK22Il2CppGenericParameter
FFi:_Array_IndexOf_TisVector3_t3722313464_m4284163268_gshared
Iqd:__ZL28GeomMTDCallback_PlaneCapsuleRN5physx6PxVec3ERfRKNS_10PxGeometryERKNS_11PxTransformES5_S8_
Mqa:__ZN15GlobalCallbacksC2Ev
Qgh:_MethodCall_System_Runtime_Remoting_Messaging_IInternalMessage_set_Uri_m1919576807
ced:__ZN7b2World10CreateBodyEPK9b2BodyDef
_2g:_Comparer_1_System_Collections_IComparer_Compare_m2016223770_gshared
FKi:_Encoding_GetBytes_m3823106599
imk:__ZL57BaseMeshEffect_t2440176439_CustomAttributesCacheGeneratorP21CustomAttributesCache
ijj:__Z74RuntimeInvoker_DateTime_t3738529785_DateTime_t3738529785_Int32_t2950945753PFvvEPK10MethodInfoPvPS4_
Aff:_UNITY_FT_New_Memory_Face
YZd:__ZNK5physx10NpMaterial18getDynamicFrictionEv
LDk:_Collection_1_System_Collections_IList_IndexOf_m3271188411_gshared
Edf:__ZN20TextRenderingPrivate21TextMeshGeneratorImpl5FlushEv
nrg:_MonoIO_GetFileStat_m678141354
RLb:__Z18Transfer_BlittableI19StreamedBinaryWriteILb0EELb0E5RectTIiEEvRK29SerializationCommandArgumentsR31RuntimeSerializationCommandInfo
fGf:__Z15CastclassSealedP12Il2CppObjectP11Il2CppClass
gic:__ZN15ApplicationInfo14GetSandboxTypeEv
T_d:__ZN5physx9NpPhysics16createConvexMeshERNS_13PxInputStreamE
kHb:__Z18Transfer_BlittableI17RemapPPtrTransferLb1EhEvRK29SerializationCommandArgumentsR31RuntimeSerializationCommandInfo
o6h:_Decimal_IsZero_m4250358244_AdjustorThunk
Dug:_UnmanagedMemoryStream_get_CanRead_m3770815400
$rm:__ZNSt3__26vectorIjNS_9allocatorIjEEE26__swap_out_circular_bufferERNS_14__split_bufferIjRS2_EE
Iac:__ZN16ReflectionProbes40UpdateRealtimeReflectionProbesTimeslicedEv
Qlm:__ZNSt3__26__treeINS_12__value_typeIP24Il2CppReflectionAssemblyPvEENS_19__map_value_compareIS3_S5_NS_4lessIS3_EELb1EEENS_9allocatorIS5_EEE16__insert_node_atEPNS_16__tree_node_baseIS4_EERSF_SF_
e6h:_Decimal_u64_m3374804932
rMd:__ZN5physx2Sq17SceneQueryManager8addShapeERKNS_7NpShapeERKNS_12PxRigidActorEbPNS_9PxBounds3E
nTi:_UInt16_System_IConvertible_ToInt32_m1950778303_AdjustorThunk
Sub:__ZNK30RuntimeInitializeOnLoadManager22GetTypeVirtualInternalEv
YYl:__ZN15dense_hashtableINSt3__24pairIK10KeyWrapperIN6il2cpp5utils13dynamic_arrayIPK10Il2CppTypeLj4EEEEPFvvEEESA_NS3_8metadata19Il2CppSignatureHashEN14dense_hash_mapISA_SD_SG_NSA_14EqualsComparerINSF_22Il2CppSignatureCompareEEENS0_9allocatorISE_EEE9SelectKeyESK_SM_E12resize_deltaEjj
Tlc:__ZN16ReflectionProbes15InitializeClassEv
DFj:__ZL71Enum_t4135868527_CustomAttributesCacheGenerator_Enum_Format_m2588135982P21CustomAttributesCache
Vcd:__ZNK12b2WheelJoint17GetReactionTorqueEf
o_l:__ZNK15dense_hashtableINSt3__24pairIK10KeyWrapperIPK11Il2CppClassEPKcEES6_N6il2cpp5utils11PointerHashIS3_EEN14dense_hash_mapIS6_S9_SE_NS6_14EqualsComparerINS0_8equal_toIS5_EEEENS0_9allocatorISA_EEE9SelectKeyESJ_SL_E12test_deletedEj
OGj:__ZL107ArrayReadOnlyList_1_t221793636_CustomAttributesCacheGenerator_ArrayReadOnlyList_1_GetEnumerator_m2012327150P21CustomAttributesCache
Gdk:__ZL127RectTransformUtility_t1743242446_CustomAttributesCacheGenerator_RectTransformUtility_INTERNAL_CALL_PixelAdjustPoint_m1064459754P21CustomAttributesCache
evk:_Dictionary_2_Do_ICollectionCopyTo_TisKeyValuePair_2_t3699644050_m4159638770_gshared
Lkm:__ZN6il2cpp2vm5Image9GetCorlibEv
rzi:_Vector3_get_left_m2428419009
PKl:__ZL25UnresolvedVirtualCall_252P12Il2CppObject19Vector4_t3319028937PK10MethodInfo
DK:__ZN8Animator13BatchedFKPassERK13dynamic_arrayIP14PlayableOutputLj4EE
XLj:__ZL50Pointer_t2088917139_CustomAttributesCacheGeneratorP21CustomAttributesCache
d2d:__ZNK5physx15NpActorTemplateINS_7PxClothEE14getOwnerClientEv
Lwb:__ZN16LightmapSettings11UnshareDataEv
Gue:__ZNK5physx2Gu29EPASupportMapPairRelativeImplINS0_8CapsuleVES2_E9doSupportERKNS_6shdfnd3aos5Vec3VERS6_S9_S9_
Dyf:_ExecuteEvents_Execute_m113814934
hna:__ZN13RuntimeStaticINSt3__23mapIN4core12basic_stringIcNS2_20StringStorageDefaultIcEEEES6_NS0_4lessIS6_EE13stl_allocatorINS0_4pairIKS6_S6_EEL18MemLabelIdentifier13ELi16EEEELb0EE13StaticDestroyEPv
fsm:__ZN14dense_hash_mapI10KeyWrapperIPK19Il2CppGenericMethodEP10MethodInfoN6il2cpp8metadata23Il2CppGenericMethodHashENS4_14EqualsComparerINS8_26Il2CppGenericMethodCompareEEENSt3__29allocatorINSD_4pairIKS4_S6_EEEEE13set_empty_keyERSG_
ssk:_Array_qsort_TisColor32_t2600501292_m1362211604_gshared
wQe:__ZN5physx10SubSortSAH5sort4EPjjRNS_6shdfnd5ArrayINS_11RTreeNodeNQENS2_19ReflectionAllocatorIS4_EEEERjjPS4_
f3g:_Enumerator_System_Collections_IEnumerator_get_Current_m2979767597_AdjustorThunk
oak:__ZL89ParticleSystem_t1800779281_CustomAttributesCacheGenerator_ParticleSystem_Clear_m381529807P21CustomAttributesCache
WCg:_MD5CryptoServiceProvider_ProcessFinalBlock_m2241588515
lwh:_ScrollRect_GetBounds_m449872505
Nk:_glIsVertexArray
_0f:_SmallXmlParser_Read_m3485223434
Cyl:_GUILayoutUtility_LayoutFreeGroup_m2955697397
_jg:_Int16_Parse_m2276856944
vXg:_InternalEnumerator_1__ctor_m3443175323_AdjustorThunk
Mha:__ZN5Unity9Component8TransferI18StreamedBinaryReadILb0EEEEvRT_
ALj:__ZL131CustomAttributeData_t1084486650_CustomAttributesCacheGenerator_CustomAttributeData_t1084486650____ConstructorArguments_PropertyInfoP21CustomAttributesCache
ia:invoke_fff
$Em:_mbsinit
uCi:_Array_InternalArray__ICollection_Remove_TisContactPoint2D_t3390240644_m284878234_gshared
RLm:b14
zYe:__ZN5physx2Sc7PhysicsC2ERKNS_17PxTolerancesScaleERKNS_14PxvOffsetTableE
s_e:__ZNSt3__26__sortIRNS_6__lessI24InterpolationDepthHandleS2_EEPS2_EEvT0_S6_T_
qhf:__ZN2UI6Canvas17MainThreadCleanupEv
Sqb:__ZNSt3__26vectorI14SubstanceInputNS_9allocatorIS1_EEE6assignINS_11__wrap_iterIPS1_EEEENS_9enable_ifIXaasr21__is_forward_iteratorIT_EE5valuesr16is_constructibleIS1_NS_15iterator_traitsISA_E9referenceEEE5valueEvE4typeESA_SA_
$Ka:__ZN6prcoreL12RemapGenericI17TexFormatARGB155517TexFormatRGBA8888EEvPKNS_9InnerInfoE
iWl:__ZN13Il2CppHashMapIPK19Il2CppGenericMethodPK26Il2CppGenericMethodIndicesN6il2cpp8metadata23Il2CppGenericMethodHashENS7_26Il2CppGenericMethodCompareENSt3__29allocatorINSA_4pairIK10KeyWrapperIS2_ES5_EEEEEC2EjRKS8_RKS9_
jUf:_TypeBuilder_HasElementTypeImpl_m1871001960
$Xh:_SecurityFrame__ctor_m2140076703_AdjustorThunk
K1i:_DefaultComparer_Equals_m2458578172_gshared
_Oa:__ZN7ApiGLES13CreateProgramEv
e4g:_Enumerator_VerifyState_m4003066746_gshared
$Ia:__ZN4crnd12crn_unpackerD2Ev
$k:_emscripten_glTexImage2D
Q1g:_Comparer_1_System_Collections_IComparer_Compare_m2537217645_gshared
haa:__ZN18ScriptingArguments9AddStringEPKc
txm:_setup_header
g7i:_KeyValuePair_2__ctor_m3953574590_AdjustorThunk
d9f:_Char_ToString_m3588025615
cDi:_SetPropertyUtility_SetStruct_TisAspectMode_t3417192999_m1565063249_gshared
lBk:_Collection_1_get_Count_m2853642267_gshared
sNk:_ReadOnlyCollection_1_System_Collections_IList_get_IsReadOnly_m375760151_gshared
Fue:__ZNK5physx2Gu29EPASupportMapPairRelativeImplINS0_8CapsuleVES2_E18doWarmStartSupportEiiRNS_6shdfnd3aos5Vec3VES7_S7_
qEh:_CryptoConvert_ToCapiKeyBlob_m3371450375
hKa:__ZL23stbir__resize_arbitraryPvPKviiiS_iiiffffPfiij14stbir_datatype12stbir_filterS4_10stbir_edgeS5_16stbir_colorspace
gTc:__ZN23ParticleSystemParticles13array_reserveEj
DJb:__Z18Transfer_BlittableI24GenerateTypeTreeTransferLb1E8Vector4fEvRK29SerializationCommandArgumentsR31RuntimeSerializationCommandInfo
VLm:b18
wTc:__ZNK24OptimizedPolynomialCurve26FindMinMaxDoubleIntegratedEv
kl:_pthread_detach
c0l:__ZN6il2cpp2vm19SocketPollingThread7RunLoopEv
hIf:_FontUpdateTracker_UntrackText_m1981515690
n4k:_List_1_System_Collections_ICollection_get_SyncRoot_m1937857346_gshared
umk:__ZL64AnalyticsEventTracker_t2285229262_CustomAttributesCacheGeneratorP21CustomAttributesCache
Ope:__ZN5physx11EdgeManager6resizeEj
Fpc:__ZN15DirectorManager20ScheduleGraphDestroyERK14HPlayableGraph
vSb:__ZNSt3__213__stable_sortIRN10vector_mapI17ScriptingClassPtrPKN5Unity4TypeENS_4lessIS2_EENS_9allocatorINS_4pairIS2_S6_EEEEE13value_compareENS_11__wrap_iterIPSB_EEEEvT0_SJ_T_NS_15iterator_traitsISJ_E15difference_typeEPNSM_10value_typeEi
$Ah:_SimpleCollator_FillSurrogateSortKeyRaw_m725998232
s5k:_List_1_AddEnumerable_m1284696147_gshared
kKh:_IPAddress_Equals_m1823478787
seh:_Context_CreateNewContext_m3053563976
F$j:__ZL83RectOffset_t1369453676_CustomAttributesCacheGenerator_RectOffset_set_top_m713260669P21CustomAttributesCache
Hwa:__ZN9ShaderLab25SerializedTextureProperty8TransferI24GenerateTypeTreeTransferEEvRT_
Luk:_Array_swap_TisVector2_t2156229523_TisVector2_t2156229523_m345092822_gshared
CAk:_Collection_1_get_Item_m1773274637_gshared
U9l:__ZN6il2cpp2gc19AppendOnlyGCHashMapINSt3__24pairIPK14Il2CppAssemblyP11Il2CppClassEEP24Il2CppReflectionAssembly17ReflectionMapHashIS9_ENS2_8equal_toIS9_EEEC2Ev
L7e:_tt_cmap14_char_next
oMb:__Z18Transfer_BlittableI19StreamedBinaryWriteILb0EELb0EdEvRK29SerializationCommandArgumentsR31RuntimeSerializationCommandInfo
Hce:__ZN5physx2Sc5Scene12removeStaticERNS0_10StaticCoreERNS_6shdfnd11InlineArrayIPKNS0_9ShapeCoreELj64ENS4_19ReflectionAllocatorIS8_EEEEb
T6k:_List_1__ctor_m404557453_gshared
Kwa:__ZN11NamedObject8TransferI18StreamedBinaryReadILb0EEEEvRT_
kSa:__ZNK17GPUSkinPoseBuffer12GetBoneCountEv
Yji:_InvokableCall_remove_Delegate_m1376110510
Edg:_Hashtable_Clear_m3112193608
wNi:_UTF8Encoding_InternalGetByteCount_m771565606
qkm:__ZNK15dense_hashtableINSt3__24pairIK10KeyWrapperIP14Il2CppIUnknownEjEES5_N6il2cpp5utils11PointerHashIS3_EEN14dense_hash_mapIS5_jSB_NS5_14EqualsComparerINS0_8equal_toIS4_EEEENS0_9allocatorIS7_EEE9SelectKeyESG_SI_E12test_deletedEj
rQc:__Z18Transfer_BlittableI8JSONReadLb1EyEvRK29SerializationCommandArgumentsR31RuntimeSerializationCommandInfo
z$k:_List_1_System_Collections_IList_Remove_m3654336679_gshared
M$j:__ZL51GUILayer_t2783472903_CustomAttributesCacheGeneratorP21CustomAttributesCache
jIj:__ZL56IDictionary_2_t3177279192_CustomAttributesCacheGeneratorP21CustomAttributesCache
fEi:_Array_InternalArray__IEnumerable_GetEnumerator_TisUInt64_t4134040092_m1382862496_gshared
Hl:_emscripten_glMatrixMode
Psh:_MaskableGraphic_UnityEngine_UI_IClippable_get_gameObject_m1739855597
ndi:_NumberFormatInfo_get_RawPercentGroupSizes_m97703232
mD:__ZN8Animator23VirtualRedirectTransferER18StreamedBinaryReadILb0EE
nei:_Guid__ctor_m3562600567_AdjustorThunk
G4:__ZN19CloudServiceHandler19StopEventDispatcherEv
mMe:__ZN5physx13GuMeshFactory17createHeightFieldERNS_13PxInputStreamE
Qfe:__ZN5physx2Sc10NPhaseCore25createShapeInstancePairLLERNS0_8ShapeSimES3_NS_7PxFlagsINS_10PxPairFlag4EnumEtEE
DSe:__ZN8Collider11PoseChangedEb
C1h:_DateTime_System_IConvertible_ToInt16_m3239820399
E1:__ZN11UnityEngine15CloudWebService14DataDispatcher16PrepareDataBlockERNS0_16SessionContainerE
HTa:__ZN18GfxFramebufferGLES5ClearE13GfxClearFlagsRK10ColorRGBAffib
Vge:__ZThn8_N5physx2Sc19ShapeInstancePairLL12onDeactivateEj
lrc:__Z21CalculateClosestPointRK8Vector3fRK4AABBRS_Rf
Dlh:_ObjectManager_DoFixups_m3038765937
QVi:_UIntPtr_ToString_m984583492_AdjustorThunk
ZQb:__ZL26Transfer_SimpleNativeClassI18StreamedBinaryReadILb0EE10RectOffsetLb0EEvRK29SerializationCommandArgumentsR31RuntimeSerializationCommandInfo
sWg:_InternalEnumerator_1_get_Current_m2316281569_gshared
R1b:__ZL12DepthPassJobPN21GfxDeviceAsyncCommand10ArgScratchEPKNS_3ArgE
Vua:__ZNSt3__26vectorIN9ShaderLab20SerializedSubProgram16TextureParameterENS_9allocatorIS3_EEE6assignINS_11__wrap_iterIPS3_EEEENS_9enable_ifIXaasr21__is_forward_iteratorIT_EE5valuesr16is_constructibleIS3_NS_15iterator_traitsISC_E9referenceEEE5valueEvE4typeESC_SC_
O9g:_Transform_1_EndInvoke_m1701794896_gshared
MLc:__ZN5Unity9rapidjson6WriterI16TempBufferWriterNS0_4UTF8IcEES4_13JSONAllocatorE11WriteDoubleEd
GRe:__ZN9Rigidbody16ApplyConstraintsEv
cPi:_Thread_SetCachedCurrentUICulture_m1729523031
olf:__Z55Register_UnityEngine_CanvasGroup_get_ignoreParentGroupsv
Fph:_InputField_get_minHeight_m2822964544
ijc:__Z13RegisterClassI19LowerResBlitTextureEvv
NJg:_ClientContext_set_ClientHelloProtocol_m4189379912
A$k:_List_1_System_Collections_Generic_ICollectionU3CTU3E_get_IsReadOnly_m1579067383_gshared
A_c:__ZN11MinMaxCurve5ResetE23ParticleSystemCurveModef
Qn:FUNCTION_TABLE_iiiiiiiiiiii
fTc:__ZNK14ParticleSystem27CalculateMaxActiveParticlesEv
W4k:_List_1_get_Item_m1686506901_gshared
t7g:_KeyCollection_System_Collections_Generic_IEnumerableU3CTKeyU3E_GetEnumerator_m1982109872_gshared
x8d:__ZN5physx2Sc17ParticleSystemSim8setFlagsEj
Y3a:__ZN16GraphicsSettingsD0Ev
Gec:__Z29StdTemplateConversionFunctionIshEbPvR14SafeBinaryRead
n:cttz_i8
E2e:_UNITY_FT_GlyphLoader_Add
oPe:__ZN5physx2Gu15EdgeListBuilder18CreateEdgesToFacesEjPKjPKt
tyd:__ZN5physx11PxMeshQuery5sweepERKNS_6PxVec3EfRKNS_10PxGeometryERKNS_11PxTransformEjPKNS_10PxTriangleERNS_10PxSweepHitENS_7PxFlagsINS_9PxHitFlag4EnumEtEEPKjfb
O3k:_List_1_Remove_m2502026699_gshared
AFl:_AudioListener_INTERNAL_CALL_ReadExtensionPropertyName_m330480156
xMj:__ZL62ActivationArguments_t4219999170_CustomAttributesCacheGeneratorP21CustomAttributesCache
Wqb:__ZN14SubstanceInput22CopyFromSubstanceInputERKS_
uig:_Convert_ToUInt16_m867476252
Em:_emscripten_glViewport
Khc:__Z21GenerateTilingAreaJobP22GenerateTilingAreaInfoj
Gtm:__ZN6il2cpp6icalls8mscorlib6System15MonoCustomAttrs17IsDefinedInternalEP12Il2CppObjectP20Il2CppReflectionType
kse:__ZN5physx6shdfnd5ArrayIPhNS0_19ReflectionAllocatorIS2_EEE8recreateEj
MVk:_Enumerator__ctor_m40451936_AdjustorThunk
epj:__Z53RuntimeInvoker_Vector3_t3722313464_Single_t1397266774PFvvEPK10MethodInfoPvPS4_
Hli:_Gradient_t3067099924_marshal_pinvoke_back
AG:__ZN7mecanim9animation16CopyMotionOutputEPKNS0_18AnimationNodeStateEPS1_bbRKNS_6bitsetILj83EEE
_Nj:__ZL115SynchronizationAttribute_t3946661254_CustomAttributesCacheGenerator_SynchronizationAttribute_IsContextOK_m324067792P21CustomAttributesCache
LNf:_CustomAttributeData_get_Constructor_m489601093
EGc:__Z40Register_UnityEngine_Light_set_intensityv
a4e:_cff_parse_font_bbox
TTe:__ZThn28_N14PhysicsManagerD0Ev
pyc:__Z35Application_Get_Custom_PropIsEditorv
Hzd:__Z14raycast_sphereRKN5physx10PxGeometryERKNS_11PxTransformERKNS_6PxVec3ES8_fNS_7PxFlagsINS_9PxHitFlag4EnumEtEEjPNS_12PxRaycastHitEbPFbRSD_PvESG_
htb:__ZN14PlayerSettings23VirtualRedirectTransferER18StreamedBinaryReadILb0EE
Rmk:__ZL105TrackableField_t1772682203_CustomAttributesCacheGenerator_TrackableField__ctor_m3758796351____validTypes0P21CustomAttributesCache
x8h:_Double_System_IConvertible_ToDateTime_m2414543049_AdjustorThunk
K7d:__ZN5physx2Sc18ParticleSystemCore15exportExtraDataERNS_22PxSerializationContextE
W8h:_Double_CompareTo_m3151899116
ACm:__ZN6il2cpp2os5Event5ResetEv
H8c:__ZL40InitializeParticleSystemScriptingClassesv
u7e:_tt_name_ascii_from_other
bEl:_ToggleGroup__ctor_m3308114662
vmm:__ZN6il2cpp8metadata15GenericMetadata17InflateParametersEPK13ParameterInfohPK20Il2CppGenericContextb
V1a:__ZN6Camera13AwakeFromLoadE17AwakeFromLoadMode
_tk:_Array_Sort_TisUILineInfo_t4195266810_m3737783007_gshared
kqi:_PlayableAsset_Internal_CreatePlayable_m2550417712
uG:__ZNK17AnimationPlayable27GetNextCompatibleDescendantEi
_He:__ZNK5physx2Cm12DelegateTaskINS_2Sc5SceneEXadL_ZNS3_23postIslandGenSecondPassEPNS_10PxBaseTaskEEEE7getNameEv
_Va:__ZN4PPtrI6SpriteE8TransferI18StreamedBinaryReadILb0EEEEvRT_
d6f:_Convert_ToInt16_m3324557887
Uil:_TlsStream_Write_m188217214
IOb:__ZN4PPtrI9Texture2DE8TransferI18StreamedBinaryReadILb1EEEEvRT_
Omj:__Z50RuntimeInvoker_Ray_t3785851493_Vector3_t3722313464PFvvEPK10MethodInfoPvPS4_
YVb:__Z25SetNeedToPerformRenderingb
K0c:__ZN12LightsModule8TransferI17RemapPPtrTransferEEvRT_
WGm:__ZN10__cxxabiv116__shim_type_infoD2Ev
tpl:_Alternation__ctor_m1629257642
dVi:_UInt64_System_IConvertible_ToInt32_m949522652_AdjustorThunk
g0a:__ZN10GameObjectD2Ev
e2b:__ZN14qsort_internal30FindAndMovePivotToLastPositionIP15RODataDepthPassi17ROSorterDepthPassEEvT_S4_T0_T1_
A4c:__ZN29InitialModulePropertyBindings13GetFloatValueERK14ParticleSystemi
ovg:_MethodAccessException__ctor_m3411913042
FGl:__ZL24UnresolvedVirtualCall_26P12Il2CppObjectS0_iiPK10MethodInfo
Ite:__ZN5physxL27PxcSweepAnyShapeHeightfieldERKNS_11PxsCCDShapeES2_PKNS_12PxsRigidBodyES5_RKNS_11PxTransformES8_fRNS_6PxVec3ESA_RNS_10PxcNpCacheERNS_18PxcNpThreadContextE
G4i:_EqualityComparer_1__ctor_m1767308726_gshared
yZi:_KeyValuePair_2_get_Key_m2106922848_gshared
R9b:__ZN12CullingGroup10SendEventsEPK17CullingGroupEventj
J0l:__ZNSt3__214__split_bufferI6pollfdRNS_9allocatorIS1_EEED2Ev
rdi:_NumberFormatInfo_get_PerMilleSymbol_m1360140831
WHg:_EncryptedData_get_EncryptionAlgorithm_m905084934
QDi:_Array_InternalArray__IEnumerable_GetEnumerator_TisCustomAttributeTypedArgument_t2723150157_m1333528454_gshared
dAf:_PointerInputModule__ctor_m3728889932
o7:__ZThn32_NK8Renderer8GetLayerEv
uGi:_Array_InternalArray__IndexOf_TisUInt64_t4134040092_m1206929132_gshared
Ooe:__ZN5physx3Scb5SceneD2Ev
sWk:_Enumerator_System_Collections_IEnumerator_Reset_m2915500989_gshared
f4e:_cff_parse_vsindex
DZf:_ResourceSet_System_Collections_IEnumerable_GetEnumerator_m2807499934
llm:__ZN30dense_hashtable_const_iteratorINSt3__24pairIK10KeyWrapperINS1_IPKcS4_EEEiEES6_24NamespaceAndNamePairHashN14dense_hash_mapIS6_iS9_NS6_14EqualsComparerI26NamespaceAndNamePairEqualsEENS0_9allocatorIS8_EEE9SelectKeyESD_SF_E30advance_past_empty_and_deletedEv
kkg:_Int32_ValidDigit_m1059003769
RRm:_emscripten_glTexParameterfv__wrapper
iyi:_UnitySynchronizationContext_Exec_m3359802660
sWj:__ZL54MemberFilter_t426314064_CustomAttributesCacheGeneratorP21CustomAttributesCache
Dqh:_LayoutGroup_get_rectTransform_m442863741
MDb:__Z18Transfer_BlittableI14SafeBinaryReadLb1E9BoundsIntEvRK29SerializationCommandArgumentsR31RuntimeSerializationCommandInfo
tdm:_il2cpp_method_get_param_count
qvc:__ZN10systeminfo19ISOToSystemLanguageERN4core12basic_stringIcNS0_20StringStorageDefaultIcEEEE
M8l:__ZNK15dense_hashtableINSt3__24pairIK10KeyWrapperINS1_IPK12PropertyInfoP11Il2CppClassEEEjEES9_17ReflectionMapHashIS8_EN14dense_hash_mapIS9_jSD_NS9_14EqualsComparerINS0_8equal_toIS8_EEEENS0_9allocatorISB_EEE9SelectKeyESI_SK_E3endEv
Lmd:__ZN11Rigidbody2D8TransferI19StreamedBinaryWriteILb0EEEEvRT_
ewk:_LayoutGroup_SetProperty_TisAxis_t3613393006_m3591044743_gshared
QRe:__Z16GetDynamicsScenev
$fe:__ZThn8_N5physx2Sc18TriggerInteraction7destroyEv
Dbk:__ZL94Physics_t2310948930_CustomAttributesCacheGenerator_Physics_Raycast_m3336206959____maxDistance2P21CustomAttributesCache
TFj:__ZL69RuntimeArray_CustomAttributesCacheGenerator_Array_SetValue_m282347242P21CustomAttributesCache
xbf:_ps_dimension_done
ehf:__Z46Register_UnityEngine_TextGenerator_Dispose_cppv
Zfj:__Z67RuntimeInvoker_GCHandle_t3351438187_RuntimeObject_Int32_t2950945753PFvvEPK10MethodInfoPvPS4_
$8h:_Double_Parse_m4153729520
pwl:_IndexedSet_1_AddUnique_m861843892_gshared
ix:__Z32TransferEnumWithNameForceIntSizeI14SafeBinaryReadN9Animation11CullingTypeEEvRT_RT0_PKc17TransferMetaFlags
Uqb:__ZN14SubstanceInputD2Ev
Vgb:__ZN16LightmapSettings8TransferI14SafeBinaryReadEEvRT_
gAa:__ZN17BufferManagerGLES13ReleaseBufferEP14DataBufferGLES
MIg:_CipherSuite_Write_m1172814058
xJd:__ZN5physx6shdfnd5ArrayIPvNS0_19ReflectionAllocatorINS_16NpConnectorArrayEEEE15growAndPushBackERKS2_
Otg:_SynchronizedWriter_Write_m301917713
qka:__ZN9profiling6MarkerC2EPKc13ProfilerGroupNS0_5FlagsE
Yee:__ZN5physx2Sc5Scene15prepareSimulateEv
t1g:__ZN21InterfaceFuncInvoker1Ii22UILineInfo_t4195266810E6InvokeEjP11Il2CppClassP12Il2CppObjectS0_
oQc:__Z18Transfer_BlittableI8JSONReadLb1EjEvRK29SerializationCommandArgumentsR31RuntimeSerializationCommandInfo
bLd:__ZN5physx6shdfnd5ArrayIPNS_2Sc11InteractionENS0_19ReflectionAllocatorIS4_EEE8recreateEj
JOf:_ConstructorBuilder_get_IsCompilerContext_m3364441562
Yii:_Debug_LogWarning_m3752629331
zTl:_MainModule_get_startSizeMultiplier_m1188945012_AdjustorThunk
cSk:_ReadOnlyCollection_1_System_Collections_Generic_IListU3CTU3E_RemoveAt_m4037795630_gshared
thj:__Z117RuntimeInvoker_Void_t1185182177_RuntimeObject_Int32_t2950945753_Int32_t2950945753_Int32_t2950945753_Int32_t2950945753PFvvEPK10MethodInfoPvPS4_
Jik:__ZL81U3CMouseDragOutsideRectU3Ec__Iterator1_t3909241878_CustomAttributesCacheGeneratorP21CustomAttributesCache
ZCf:_U3COnFinishSubmitU3Ec__Iterator0_Reset_m3632769946
Oq:stackSave
_3:__ZN5Unity9rapidjson15GenericDocumentINS0_4UTF8IcEE13JSONAllocatorNS0_12CrtAllocatorEE6StringEPKcjb
aFf:_ColorTween_get_targetColor_m1724075482_AdjustorThunk
Sbf:_ps_dimension_end
$Gc:__Z41Register_UnityEngine_Mesh_Internal_Createv
tCb:__ZN16MemoryFileSystem5TouchER13FileEntryData
cpb:__ZN14SpriteRenderer23VirtualRedirectTransferER24GenerateTypeTreeTransfer
tmm:__ZNK15dense_hashtableI10KeyWrapperIP18Il2CppGenericClassES3_N6il2cpp8metadata22Il2CppGenericClassHashEN14dense_hash_setIS3_S6_NS3_14EqualsComparerINS5_25Il2CppGenericClassCompareEEENSt3__29allocatorIS3_EEE8IdentityESA_SD_E12test_deletedERK30dense_hashtable_const_iteratorIS3_S3_S6_SF_SA_SD_E
Ihd:__ZNSt3__27__sort3IRN18Overlap2DQueryBase29ColliderHitsByDepthComparitorEPP10Collider2DEEjT0_S7_S7_T_
oVl:__ZN6il2cpp2vm5Class14GetNestedTypesEP11Il2CppClassPPv
Ugl:_WaypointCircuit_set_Length_m3598215014
I0e:__Z63Register_UnityEngine_Physics_INTERNAL_CALL_Internal_RaycastTestv
TWk:_Enumerator_Dispose_m2498245804_AdjustorThunk
Nfg:_Console_Open_m3077673205
tll:_X509StoreManager_get_CurrentUser_m4040993045
obc:__ZN6Camera9SetAspectEf
WFi:_Array_InternalArray__IndexOf_TisDateTime_t3738529785_m2463359116_gshared
Fa:invoke_viiffiii
Z0c:__ZN8UVModule8TransferI18StreamedBinaryReadILb0EEEEvRT_
pVg:_InternalEnumerator_1_MoveNext_m4138204635_gshared
_ak:__ZL113Physics2D_t1528932956_CustomAttributesCacheGenerator_Physics2D_INTERNAL_CALL_Internal_OverlapCircleAll_m991066286P21CustomAttributesCache
rTm:_emscripten_glBindVertexArray__wrapper
lpm:__ZN6il2cpp6icalls8mscorlib6System4Enum19get_underlying_typeEP20Il2CppReflectionType
frl:_Parser_IsECMAScript_m674158805
MQ:__ZN10ObjectPoolIN4FMOD3DSPENS0_4DSPIEE7GetFreeEi
b1a:__ZN9Transform37InitializeTransformHierarchyRecursiveER18TransformHierarchyRii
vTa:__ZN26SinglePassStereoSupportExt23SetupStereoMatrixParamsE21MonoOrStereoscopicEye24BuiltinShaderMatrixParamRK10Matrix4x4f
gtk:_Array_Resize_TisVector2_t2156229523_m1564542050_gshared
b9c:__ZN14ParticleSystem22UpdateAllTransformDataEv
WEm:_fscanf
Ouf:__ZNK25UnityWebRequestJavaScript16GetUploadedBytesEv
v$:__Z46AudioListener_CUSTOM_GetNumExtensionPropertiesP12Il2CppObject
QUe:__ZN14SphereCollider23VirtualRedirectTransferER24GenerateTypeTreeTransfer
h4c:__ZN27ColorModulePropertyBindings13AddPropertiesER10vector_mapIi22ParticleModulePropertyNSt3__24lessIiEENS2_9allocatorINS2_4pairIiS1_EEEEE
wOg:_SslClientStream_Finalize_m1251363641
Kaa:__Z14GetMonoManagerv
hGi:_Array_InternalArray__IndexOf_TisMonoResource_t4103430009_m1351751258_gshared
Stb:__ZN10VRSettings8TransferI19StreamedBinaryWriteILb0EEEEvRT_
bee:__ZN5physx2Sc9StaticSim21postActor2WorldChangeEv
Uai:_FieldAccessException__ctor_m3583219052
_5c:__ZL16ParticleGeomInitILb0EEvRK31ParticleSystemParticlesTempDatajRN4math8floatNx3ERK23ParticleSystemParticlesS5_S5_RKNS3_7_float4EPKfSB_SD_SB_RKNS3_5_int4EbSB_
GFc:__Z57Register_UnityEngine_Transform_INTERNAL_set_localPositionv
s3j:__ZL105RectTransform_t3704657025_CustomAttributesCacheGenerator_RectTransform_INTERNAL_get_anchorMax_m1239315619P21CustomAttributesCache
kEa:__ZN13GfxDeviceGLES26SetRandomWriteTargetBufferEi15ComputeBufferID
Fs:__ZNK4PPtrI4MeshEptEv
UBc:__Z38Register_UnityEngine_Input_GetButtonUpv
btk:_Array_Resize_TisUICharInfo_t75501106_m3903846016_gshared
lOk:_ReadOnlyCollection_1_System_Collections_Generic_ICollectionU3CTU3E_get_IsReadOnly_m3887826072_gshared
D8l:__ZNK15dense_hashtableINSt3__24pairIK10KeyWrapperINS1_IPK12PropertyInfoP11Il2CppClassEEEjEES9_17ReflectionMapHashIS8_EN14dense_hash_mapIS9_jSD_NS9_14EqualsComparerINS0_8equal_toIS8_EEEENS0_9allocatorISB_EEE9SelectKeyESI_SK_E8min_sizeEjj
WZb:__ZZ23InitPlayerLoopCallbacksvEN49EarlyUpdateResetFrameStatsAfterPresentRegistrator7ForwardEv
cWd:__ZN5physx6shdfnd4sortIPvNS0_4LessIS2_EENS0_19ReflectionAllocatorINS_2Cm5BlockIhLj256EEEEEEEvPT_jRKT0_RKT1_j
tFm:_poll
nOk:_ReadOnlyCollection_1_System_Collections_IEnumerable_GetEnumerator_m1671097018_gshared
DVi:_UInt64_ToString_m1529093114_AdjustorThunk
_jk:__ZL85Selectable_t3250028441_CustomAttributesCacheGenerator_Selectable_IsPressed_m907486548P21CustomAttributesCache
__f:_TypeLibImportClassAttribute__ctor_m2302178978
JBh:_Escape_t3294788190_marshal_pinvoke
Zoh:_InputField_OnUpdateSelected_m1118869681
bNe:__ZN5physx20InternalTriangleMesh7releaseEv
nse:__ZN5physx6shdfnd5ArrayINS_16PxsCCDBlockArrayINS_13PxsCCDOverlapELi128EE9BlockInfoENS0_19ReflectionAllocatorIS5_EEE15growAndPushBackERKS5_
qMd:__ZNK5physx7NpShape8getFlagsEv
fmh:_SerializationException__ctor_m3131447373
jJa:__ZN4crnd12crn_unpacker11unpack_dxt1EPPhjjj
Wuc:__ZNK11ICallString6ToUTF8Ev
TAj:__Z39RuntimeInvoker_MonoResource_t4103430009PFvvEPK10MethodInfoPvPS4_
rUl:__ZN15dense_hashtableINSt3__24pairIK10KeyWrapperIPK22Il2CppGenericParameterEP11Il2CppClassEES6_N6il2cpp5utils11PointerHashIS4_EEN14dense_hash_mapIS6_S9_SE_NS6_14EqualsComparerINS0_8equal_toIS5_EEEENS0_9allocatorISA_EEE9SelectKeyESJ_SL_E15insert_noresizeERKSA_
k9g:_Transform_1_Invoke_m2468053724_gshared
igj:__Z51RuntimeInvoker_Void_t1185182177_TimeSpan_t881159249PFvvEPK10MethodInfoPvPS4_
f2b:__ZNSt3__211__sift_downIR17ROSorterDepthPassP15RODataDepthPassEEvT0_S5_T_NS_15iterator_traitsIS5_E15difference_typeES5_
Lbe:__ZN5physx19NpRigidBodyTemplateINS_14PxRigidDynamicEE25setMassSpaceInertiaTensorERKNS_6PxVec3E
Q3d:__ZNK5physx7NpCloth16getContactOffsetEv
hyc:__ZNSt3__214__split_bufferIPN9BlobWrite11TypeContextENS_9allocatorIS3_EEE10push_frontERKS3_
I2f:_ArgumentException__ctor_m3200406061
XK:__ZN8Animator17ApplyOnAnimatorIKEiRNS_11AnimatorJobE
_ca:__ZN12FileAccessor4ReadEyyPvPy
dSb:__Z29Transfer_Blittable_ArrayFieldI18StreamedBinaryReadILb0EE11QuaternionfEvRT_R9ArrayInfoRK23StaticTransferFieldInfo
O6k:_List_1_set_Capacity_m2777925136_gshared
_uc:__Z21GetSceneHierarchyPathPK6Object
$ad:__ZN11UnityEngine9Analytics18RenderingInfoEvent13SetFrameStatsERK13dynamic_arrayIjLj4EEjjj
Rac:__ZN13RenderTexture9SetHeightEi
LE:__ZN7mecanim9animation17ClearMotionOutputEPNS0_18AnimationNodeStateE
yJg:_CipherSuiteCollection_get_IsFixedSize_m3127823890
_7a:__ZN16LevelGameManager8TransferI24GenerateTypeTreeTransferEEvRT_
n0g:_InternalEnumerator_1_System_Collections_IEnumerator_get_Current_m3537550566_gshared
suh:_Scrollbar_UpdateVisuals_m2492252165
jkl:_PKCS12_get_Keys_m2165478388
Dhm:__ZN6il2cpp6icalls8mscorlib6System2IO6MonoIO17GetFileAttributesEP12Il2CppStringPi
lCg:_HMACMD5__ctor_m3008609295
q3h:_DateTime__ParseAmPm_m3478436123
W3h:_DateTime_ToString_m2992030064_AdjustorThunk
n8e:_tt_cmap8_char_index
Bli:_Gizmos_INTERNAL_CALL_DrawLine_m3022186612
Iaa:__Z24scripting_class_get_name17ScriptingClassPtr
xsg:_Stream_WriteByte_m1519852120
AEl:_VerticalLayoutGroup_CalculateLayoutInputHorizontal_m1404590745
Rna:__ZN13RuntimeStaticI15GUIEventManagerLb0EE13StaticDestroyEPv
rwg:_ShortComparer_Compare_m1881262465
DFb:__Z29Transfer_Blittable_ArrayFieldI14SafeBinaryReadjEvRT_R9ArrayInfoRK23StaticTransferFieldInfo
Nld:__ZN16CircleCollider2D13PrepareShapesER13dynamic_arrayIP7b2ShapeLj4EERK10Matrix4x4f
_e:_emscripten_set_keydown_callback
aKi:_EncoderReplacementFallback__ctor_m1483565116
YQh:_Interpreter_IsWordChar_m2858055765
t_c:__ZN18ColorBySpeedModule8TransferI14SafeBinaryReadEEvRT_
gda:__ZN12FileAccessorC2Ev
vzj:__Z96RuntimeInvoker_Void_t1185182177_BooleanU5BU5DU26_t3454195888_Int32_t2950945753_Int32_t2950945753PFvvEPK10MethodInfoPvPS4_
zal:_U3CSpawnWavesU3Ec__Iterator0_Dispose_m2179831459
E4i:_EqualityComparer_1_System_Collections_IEqualityComparer_Equals_m3855544238_gshared
VQd:__ZN5physx2Sc15ArticulationSim12applyImpulseERNS0_8BodyCoreERKNS_9PxcFsDataERKNS_6PxVec3ES9_
zZh:_String_System_IConvertible_ToDouble_m3740733360
fXc:__Z15UpdateRandomTplIL27ParticleSystemCurveEvalMode0EEvRK11MinMaxCurveS3_S3_R5RandNR23ParticleSystemParticlesjjRKN4math8float3x3ERKNS8_7_float4E
PI:__ZThn152_NK26AnimatorControllerPlayable25GetStateMachineBehavioursEv
MSe:__ZN5Unity5Joint18SetConnectedAnchorERK8Vector3f
kwl:_EventFunction_1_Invoke_m2429482587_gshared
r2a:__ZN6Camera8TransferI19StreamedBinaryWriteILb0EEEEvRT_
$md:__ZN23ColliderTilingExtensionC2Ev
e9:__ZN14StackAllocator10ReallocateEPvji
O2l:__ZN6il2cpp2vm7Runtime12GetConfigDirEv
zEl:_VerticalLayoutGroup__ctor_m321345421
Vu:__ZN4PPtrI13MonoBehaviourE8TransferI18StreamedBinaryReadILb0EEEEvRT_
P3c:__ZN16CustomDataModuleD2Ev
KVk:_Enumerator_MoveNext_m1177880931_AdjustorThunk
oQd:__ZNK5physx14NpArticulation26getInternalDriveIterationsEv
Uxh:_Slider_UpdateVisuals_m3662961057
x8j:__ZL82Event_t2956885303_CustomAttributesCacheGenerator_Event_get_commandName_m4275147343P21CustomAttributesCache
OLl:_TextGenerator_Populate_m194003733
CZj:__ZL111ScriptableObject_t2528358522_CustomAttributesCacheGenerator_ScriptableObject_CreateInstanceFromType_m1997111014P21CustomAttributesCache
MPf:_DerivedType_get_FullName_m1025358827
rAg:_CryptoConfig_MapNameToOID_m2044758263
l_c:__ZN14VelocityModule8TransferI14SafeBinaryReadEEvRT_
pik:__ZL70InputField_t3762917431_CustomAttributesCacheGenerator_m_OnValueChangedP21CustomAttributesCache
mUb:__Z39WriteQueueForTransferSignatureIntoCacheRK31TransferFunctionScriptingTraitsRK24TransferRequestSignature17ScriptingClassPtrR23CachedSerializationDataRb
e2d:__ZN5physx15NpActorTemplateINS_7PxClothEE22setClientBehaviorFlagsENS_7PxFlagsINS_25PxActorClientBehaviorFlag4EnumEhEE
pLi:_Encoding_get_UTF8UnmarkedUnsafe_m320312322
lPi:_Thread_Thread_free_internal_m333849022
Qu:__ZN18AnimatorController19TransferRuntimeDataI18StreamedBinaryReadILb0EEEEvRT_
rml:_CostDelegate_BeginInvoke_m2828452701
apf:__ZN22BaseUnityConnectClient30OnEnteringStatePausedOrStoppedEv
xkd:__ZN10ClipperLib7Clipper18SwapPositionsInAELEPNS_5TEdgeES2_
xGk:_Collection_1_ConvertItem_m1556170494_gshared
ZE:__ZN7mecanim5human12HumanPoseAddERNS0_9HumanPoseERKS1_S4_
Q1h:_DateTime_ToUniversalTime_m1945318289
Jdl:_AfterburnerPhysicsForce_OnEnable_m3667628658
Z9f:_ArrayList_ToArray_m3827492363
P6c:__Z20UpdateWholeSheet2TplIL27ParticleSystemCurveEvalMode2ELS0_2EEvfRK11MinMaxCurveS3_RK23ParticleSystemParticlesPf
kyh:_Slider_get_stepSize_m1423227661
yVi:_UInt64_Parse_m819899889
OUh:_SymmetricAlgorithm_set_IV_m3196220308
cSf:_GenericTypeParameterBuilder_GetHashCode_m852224381
Gig:_Convert_ToUInt32_m1453583008
Pbi:_CompareInfo_Compare_m894311506
L0a:__Z24MergeTransformComponentsR9TransformS0_b
pYl:__ZNK15dense_hashtableI10KeyWrapperIPK19Il2CppGenericMethodES4_N6il2cpp8metadata23Il2CppGenericMethodHashEN14dense_hash_setIS4_S7_NS4_14EqualsComparerINS6_26Il2CppGenericMethodCompareEEENSt3__29allocatorIS4_EEE8IdentityESB_SE_E10test_emptyEj
Rvj:__Z67RuntimeInvoker_ParticleCollisionEvent_t4055032941_Int32_t2950945753PFvvEPK10MethodInfoPvPS4_
z0g:_InternalEnumerator_1_System_Collections_IEnumerator_get_Current_m3982010935_AdjustorThunk
VLd:__ZThn24_N5physx2Sc20ArticulationJointSimD0Ev
Owf:_EventSystem_UpdateModules_m3643806022
Brm:__ZN6il2cpp2gc16GarbageCollector10StartWorldEv
BUe:__ZN14PhysicsManager32AddToTriggerStayStatesIfRequiredEPK9Rigidbody
Lgd:__ZN15b2CircleContactD0Ev
_Nl:_AnimationOffsetPlayable__cctor_m1029460816
RZj:__ZL86Camera_t4157153871_CustomAttributesCacheGenerator_Camera_get_targetTexture_m2278634983P21CustomAttributesCache
ebk:__ZL54Collision2D_t2842956331_CustomAttributesCacheGeneratorP21CustomAttributesCache
LWh:_Evidence_get_SyncRoot_m2835084965
$Fd:__ZN5physx14PxsAABBManager12createBPElemEv
bDi:_SetPropertyUtility_SetStruct_TisTouchScreenKeyboardType_t1530597702_m2455393348_gshared
F0i:_DefaultComparer__ctor_m2280347240_gshared
Q0d:__ZThn12_N5physx7NpShape14onRefCountZeroEv
hQj:__ZL59ICryptoTransform_t2733259762_CustomAttributesCacheGeneratorP21CustomAttributesCache
Vqd:__ZL26GeomMTDCallback_ConvexMeshRN5physx6PxVec3ERfRKNS_10PxGeometryERKNS_11PxTransformES5_S8_
Itm:__ZN6il2cpp2vm13ComObjectBase19GetRuntimeClassNameEPP15Il2CppHString__
hRb:__Z35Transfer_Blittable_FixedBufferFieldI18StreamedBinaryReadILb0EEyEvRK29SerializationCommandArgumentsR31RuntimeSerializationCommandInfo
uWd:__ZN5physx15NpActorTemplateINS_18PxArticulationLinkEE22setClientBehaviorFlagsENS_7PxFlagsINS_25PxActorClientBehaviorFlag4EnumEhEE
Lk:_emscripten_glVertexAttribPointer
uHm:__ZNSt11logic_errorD0Ev
F5a:__ZNK20IntermediateRenderer12GetSceneMaskEv
$Wb:__ZN14PreloadManager26UpdatePreloadingSingleStepENS_21UpdatePreloadingFlagsEi
Rwl:_TweenRunner_1__ctor_m340723704_gshared
_wh:_ScrollRect_SetLayoutHorizontal_m3078869633
qIe:__ZN18ScBeforeSolverTask11runInternalEv
yAh:_SimpleCollator__ctor_m1587210019
tDc:__Z57Register_UnityEngine_RectTransform_INTERNAL_set_anchorMinv
DId:__ZL33GeomOverlapCallback_CapsuleConvexRKN5physx10PxGeometryERKNS_11PxTransformES2_S5_PNS_2Gu12TriggerCacheE
Cig:_Convert_ToUInt16_m1480956416
IKa:__ZN6prcoreL25inner_stretch_i8_bilinearEPKNS_9InnerInfoE
Rxb:__ZL30RegisterFilteredObjectCallbackPP12Il2CppObjectiPv
DFl:_AudioListenerExtension_get_audioListener_m3597041395
ARk:_ReadOnlyCollection_1_System_Collections_Generic_IListU3CTU3E_RemoveAt_m3317217538_gshared
W7j:__ZL54AudioSource_t3935305588_CustomAttributesCacheGeneratorP21CustomAttributesCache
rXb:__Z19InitializeGfxDevicev
_1:__ZN11UnityEngine15CloudWebService16SessionContainer24GetSessionHeaderJsonDataERKN4core12basic_stringIcNS2_20StringStorageDefaultIcEEEERNS2_13StringBuilderE
pPf:_DerivedType_GetEvent_m4157575360
Dna:__ZN13RuntimeStaticI21AssetReferenceStorageLb0EE13StaticDestroyEPv
iNe:__ZN5physx20InternalTriangleMesh9loadRTreeERNS_13PxInputStreamEj
KGf:_Image_get_sprite_m1811690853
Wce:__ZN5physx19NpRigidBodyTemplateINS_14PxRigidDynamicEE25setCMassLocalPoseInternalERKNS_11PxTransformE
Ncg:_Comparer__ctor_m2831654082
Kde:__ZNK5physx15NpActorTemplateINS_13PxRigidStaticEE14getOwnerClientEv
hrk:_Array_InternalArray__set_Item_TisKeyValuePair_2_t2530217319_m258011711_gshared
ttj:__Z72RuntimeInvoker_Bounds_t2266837910_RuntimeObject_Matrix4x4U26_t3606180965PFvvEPK10MethodInfoPvPS4_
wpm:__ZN6il2cpp6icalls8mscorlib6System9AppDomain22InternalGetProcessGuidEP12Il2CppString
at:__ZNK25RuntimeAnimatorController30GetAnimationClipOverrideVectorEv
d9d:__ZN5physx2Sc18ParticleSystemCore16releaseParticlesEv
Hte:__ZNK5physx2Gu29EPASupportMapPairRelativeImplINS0_8CapsuleVENS0_4BoxVEE6getDirEv
vzd:__ZN5physx2Gu20intersectTriangleBoxERKNS_6shdfnd3aos5Vec3VES5_S5_S5_S5_
EUj:__ZL79Convert_t2465617642_CustomAttributesCacheGenerator_Convert_ToUInt32_m3188121845P21CustomAttributesCache
hbj:__Z48RuntimeInvoker_RuntimeObject_Decimal_t2948259380PFvvEPK10MethodInfoPvPS4_
BPi:_ThreadStart_EndInvoke_m3768045394
fZa:__ZNK17FileSystemHandler10IsReadOnlyERK13FileEntryData
u1l:__ZNSt3__214__split_bufferIP9FieldInfoRNS_9allocatorIS2_EEEC2EjjS5_
q1h:_DateTime__cctor_m1880035693
yyg:_StreamingContext__ctor_m2604757771_AdjustorThunk
_Jb:__Z18Transfer_BlittableI24GenerateTypeTreeTransferLb1EjEvRK29SerializationCommandArgumentsR31RuntimeSerializationCommandInfo
l7k:_List_1_AddCollection_m1469681717_gshared
h8l:__ZNK15dense_hashtableINSt3__24pairIK10KeyWrapperINS1_IPK11Il2CppImageP11Il2CppClassEEEjEES9_17ReflectionMapHashIS8_EN14dense_hash_mapIS9_jSD_NS9_14EqualsComparerINS0_8equal_toIS8_EEEENS0_9allocatorISB_EEE9SelectKeyESI_SK_E10test_emptyERK30dense_hashtable_const_iteratorISB_S9_SD_SM_SI_SK_E
krj:__Z103RuntimeInvoker_Boolean_t97287965_Ray_t3785851493_Single_t1397266774_Int32_t2950945753_Int32_t2950945753PFvvEPK10MethodInfoPvPS4_
dLj:__ZL68AssemblyCopyrightAttribute_t836190902_CustomAttributesCacheGeneratorP21CustomAttributesCache
Zjc:__ZNK28RectTransformPropertyBinding9BindValueER6ObjectRKN11UnityEngine9Animation14GenericBindingERNS3_10BoundCurveE
Kia:__ZN11ColorRGBA328TransferI14SafeBinaryReadEEvRT_
KBk:_Collection_1_Add_m1736908447_gshared
u4e:_cff_vstore_done
WXe:__ZN5physx6shdfnd5ArrayIPvNS0_19ReflectionAllocatorINS_24NpPtrTableStorageManager8PtrBlockILi4EEEEEE15growAndPushBackERKS2_
vmj:__Z68RuntimeInvoker_Void_t1185182177_UInt16_t2177724958_SByte_t1669577662PFvvEPK10MethodInfoPvPS4_
zTg:_InternalEnumerator_1_get_Current_m3008260692_AdjustorThunk
KCg:_MACTripleDES_HashFinal_m3613553534
UUi:_UInt64_System_IConvertible_ToChar_m2074245892
dKa:__Z11IsHDRFormat13TextureFormat
ANi:_UTF8Encoding_InternalGetBytes_m1965760031
Dg:_emscripten_glClearDepth
aoc:__ZNK8GUILayer22GetTypeVirtualInternalEv
$hb:__ZN14SafeBinaryRead21TransferSTLStyleArrayINSt3__26vectorIN15QualitySettings14QualitySettingENS1_9allocatorIS4_EEEEEEvRT_17TransferMetaFlags
sul:_UnityAction_1__ctor_m3007623985_gshared
a7g:_KeyCollection__ctor_m2388548663_gshared
ewj:__Z56RuntimeInvoker_Boolean_t97287965_ILTokenInfo_t2325775114PFvvEPK10MethodInfoPvPS4_
Hsb:__ZNSt3__26vectorINS_4pairIPKN5Unity4TypeE7Hash128EENS_9allocatorIS7_EEE8__appendEj
GGh:_ContentInfo__ctor_m1888388023
x4e:_cff_font_load
aqm:__GLOBAL__sub_I_LibraryLoader_cpp
gwc:__Z13IsPathCreatedRKN4core12basic_stringIcNS_20StringStorageDefaultIcEEEE
bhk:__ZL99Dropdown_t2274391225_CustomAttributesCacheGenerator_Dropdown_DelayedDestroyDropdownList_m2082128994P21CustomAttributesCache
bwe:__ZN5physx35solveContactPreBlock_ConcludeStaticEPKNS_23PxcSolverConstraintDescEjRNS_16PxcSolverContextE
_ii:_Debug_LogWarningFormat_m2535776735
nKa:__ZL22stbir__encode_scanlineP11stbir__infoiPvPfiii
k_f:_ExternalException__ctor_m2877839282
p1e:__ZN20QuadTreeNodeRenderer13StaticDestroyEPv
W2:__ZN11UnityEngine15CloudWebService20WebRequestRestClient5AbortEv
rpl:_Regex_Matches_m2080913806
gkc:__ZN9Transform12CleanupClassEv
Evi:_Sprite_get_rect_m2575211689
RKd:__ZN5physx6shdfnd5ArrayIPvNS0_15InlineAllocatorILj256ENS0_19ReflectionAllocatorINS_2Cm5BlockIS2_Lj32EEEEEEEE15growAndPushBackERKS2_
qHe:__ZN5physx18PxsSolverStartTask13setupDescTaskEv
Dff:_UNITY_FT_Set_Pixel_Sizes
RLf:_OperatingSystem_Clone_m1122165140
Axk:_GameObject_AddComponent_TisRuntimeObject_m3469369570_gshared
Qva:__ZNSt3__26vectorIN9ShaderLab19SerializedSubShaderENS_9allocatorIS2_EEE26__swap_out_circular_bufferERNS_14__split_bufferIS2_RS4_EE
CK:__ZN11UnityEngine9Animation33SetGenericTransformPropertyValuesERKNS0_30AnimatorGenericBindingConstantERKN7mecanim10ValueArrayEP9Transformy
kTj:__ZL59AttributeTargets_t1784037988_CustomAttributesCacheGeneratorP21CustomAttributesCache
AB:__ZN11UnityEngine9Animation28AnimationClipBindingConstant8TransferI24GenerateTypeTreeTransferEEvRT_
vpd:__ZN5physx3Cct13BoxController6resizeEf
V1k:_List_1_RemoveAll_m3165362277_gshared
VRi:_Type_type_is_subtype_of_m1406623598
lEi:_Array_InternalArray__IEnumerable_GetEnumerator_TisRaycastResult_t3360306849_m3650537473_gshared
WIe:__ZN5physx6shdfnd5ArrayINS_2Cm12DelegateTaskINS_2Sc5SceneEXadL_ZNS5_19updateCCDSinglePassEPNS_10PxBaseTaskEEEEENS0_19ReflectionAllocatorIS8_EEE8recreateEj
$Ni:_Thread_get_CurrentThread_m4142136012
naf:_Dual_Project
B2b:__ZNSt3__27__sort4IRNS_6__lessI11CulledLightS2_EEPS2_EEjT0_S6_S6_S6_T_
R3l:__ZN6il2cpp2vm14TypeNameParser26ParseArrayModifierOptionalEv
D9:__Z26scripting_object_get_class18ScriptingObjectPtr
Ggm:__ZN6il2cpp6icalls8mscorlib6System10Reflection8Assembly13get_code_baseEP24Il2CppReflectionAssemblyb
svb:__ZNSt3__26vectorIN4core12basic_stringIcNS1_20StringStorageDefaultIcEEEE13stl_allocatorIS5_L18MemLabelIdentifier13ELi16EEE7reserveEj
SWd:__ZN5physx34NpShapeGetScRigidObjectFromScbSLOWERKNS_3Scb5ShapeE
zBg:_DSASignatureDeformatter__ctor_m2889130126
MOh:_X509ChainElementCollection_Clear_m2271223414
Ljc:__ZNK28MonoBehaviourPropertyBinding15GenerateBindingERKN4core12basic_stringIcNS0_20StringStorageDefaultIcEEEEbRN11UnityEngine9Animation14GenericBindingE
Uti:_RectTransform_INTERNAL_set_pivot_m1160676233
O7k:_List_1_set_Item_m35836043_gshared
Ijk:__ZL70ScrollRect_t4137855814_CustomAttributesCacheGenerator_m_OnValueChangedP21CustomAttributesCache
DOh:_X509ChainElementCollection__ctor_m3424079155
Ynk:__ZL59MobileControlRig_t1964600252_CustomAttributesCacheGeneratorP21CustomAttributesCache
zml:_LinkStack_Push_m3081279930
Wgl:_WaypointCircuit_Awake_m1281391516
krb:__ZN14SubstanceValue8TransferI18StreamedBinaryReadILb0EEEEvRT_
p5g:_Enumerator_MoveNext_m1107569389_gshared
JOd:__ZNK5physx21PxsBodyTransformVault12getTransformERKNS_11PxsBodyCoreE
dBj:__Z41RuntimeInvoker_ContactPoint2D_t3390240644PFvvEPK10MethodInfoPvPS4_
v1l:__ZNSt3__26vectorIP9FieldInfoNS_9allocatorIS2_EEE26__swap_out_circular_bufferERNS_14__split_bufferIS2_RS4_EE
fwl:_UnityEvent_3_GetDelegate_m1156357290_gshared
Jrm:__ZN6il2cpp6icalls8mscorlib6System11Environment15internalGetHomeEv
aXg:_InternalEnumerator_1__ctor_m4200721464_gshared
Sni:_Matrix4x4_GetHashCode_m4034747639_AdjustorThunk
nZf:_ResourceCacheItem_t51292791_marshal_pinvoke_cleanup
U6:__ZNK5Unity9Component7GetNameEv
Z1l:__ZNSt3__214__split_bufferIN6il2cpp6icalls8mscorlib6System12PropertyPairERNS_9allocatorIS5_EEEC2EjjS8_
qok:__ZL89Explosive_t792321375_CustomAttributesCacheGenerator_Explosive_OnCollisionEnter_m842056390P21CustomAttributesCache
RUh:_SymmetricAlgorithm_get_KeySize_m4185004893
U$k:_List_1_GetEnumerator_m232588170_gshared
qrd:__ZN44ConvexVsHeightfieldContactGenerationCallback7onEventEjPj
sii:_Native__cctor_m1435623442
e6k:_List_1_System_Collections_IList_Remove_m1070694895_gshared
Nyl:_LayoutCache__ctor_m3885940174
Dib:__ZN13ScreenManagerD0Ev
n1l:__ZN6il2cpp6icalls8mscorlib6SystemL16CheckMemberMatchI9FieldInfoNS_5utils10functional6FilterINSt3__212basic_stringIcNS8_11char_traitsIcEENS8_9allocatorIcEEEENS5_13VmStringUtils23CaseInsensitiveComparerEEEEEbPKT_PK11Il2CppClassSN_iRKT0_
SNl:_AnimationMotionXToDeltaPlayable_GetHandle_m1319190040_AdjustorThunk
Qgl:_TimedObjectDestructor_DestroyNow_m1302389985
lcd:__ZNK11b2RopeJoint16GetReactionForceEf
PL:__ZN7mecanim8skeleton26SkeletonPoseComputeGlobalQEPKNS0_8SkeletonEPKNS0_13SkeletonPoseTIN4math4trsXEEEPS7_ii
jil:_TlsServerSettings__ctor_m373357120
TUi:_UInt64_System_IConvertible_ToByte_m1501504925_AdjustorThunk
HLl:_TextGenerator_Invalidate_m1072346986
w5c:__ZN14ParticleSystem40OnTrailGeometryJobsScheduledRenderThreadERK8JobFence
kMg:_TlsClientHello_ProcessAsTls1_m2549285167
qCj:__Z74RuntimeInvoker_Boolean_t97287965_UIVertex_t4057497605_UIVertex_t4057497605PFvvEPK10MethodInfoPvPS4_
hue:__ZN5physx2Gu19_gjkRelativeRayCastINS0_9TriangleVENS0_8CapsuleVEEEbRT_RT0_RKNS_6shdfnd3aos15PsMatTransformVERKNS9_6FloatVERKNS9_5Vec3VESI_RSD_RSG_SK_f
Hvh:_ScrollRect_set_decelerationRate_m723367336
U1c:__ZN13TriggerModule8TransferI19StreamedBinaryWriteILb0EEEEvRT_
pL:__ZN9BlobWrite8TransferI22OffsetPtrArrayTransferIiEEEvRT_PKc17TransferMetaFlags
E0h:_EncoderExceptionFallback_Equals_m2760188920
mIb:__Z18Transfer_BlittableI17RemapPPtrTransferLb1EjEvRK29SerializationCommandArgumentsR31RuntimeSerializationCommandInfo
gDg:_RC2CryptoServiceProvider_get_EffectiveKeySize_m3835262416
sPd:__ZN5physx6shdfnd5ArrayIPvNS0_15InlineAllocatorILj256ENS0_19ReflectionAllocatorINS_11NpAggregateEEEEEE15growAndPushBackERKS2_
sV:__ZN4FMOD6System7releaseEv
hqe:__ZN5physx6shdfnd8PoolBaseINS_2Sc18TriggerInteractionENS0_19ReflectionAllocatorIS3_EEE15disposeElementsEv
YLb:__Z18Transfer_BlittableI19StreamedBinaryWriteILb0EELb1E8BitFieldEvRK29SerializationCommandArgumentsR31RuntimeSerializationCommandInfo
A6f:_Boolean_CompareTo_m3665076258
UZh:_String_Split_m3580120853
MFh:_PrivateKeyInfo__ctor_m2811023496
Dca:__Z18PathToAbsolutePathRKN4core12basic_stringIcNS_20StringStorageDefaultIcEEEE
MTf:_PropertyBuilder_GetCustomAttributes_m2917594003
Izl:_GUILayoutUtility_LayoutFromEditorWindow_m2914699782
aEg:_BigInteger_SetBit_m1723423691
cz:__ZN13AnimationClip23VirtualRedirectTransferER17RemapPPtrTransfer
Puj:__Z78RuntimeInvoker_RuntimeObject_ObjectU26_t2146539884_RuntimeObject_RuntimeObjectPFvvEPK10MethodInfoPvPS4_
bIj:__ZL65X509ExtensionCollection_t609554708_CustomAttributesCacheGeneratorP21CustomAttributesCache
Gnf:__ZN21UnityAnalyticsManager15ThreadedCleanupEv
lrd:__ZL31PointInConvexPolygon2D_OutCodesPKfjffffRh
wae:__ZN5physx22NpParticleBaseTemplateINS_16PxParticleSystemENS_16NpParticleSystemEE18setDynamicFrictionEf
RJa:__ZL13BlitImageImplR14ImageReferenceiiRKS_NS_10ColorSpaceENS_8BlitModeEb
Lpc:__ZN15DirectorManager17AcquireOutputNodeEv
YXc:__ZL15AccumulateNoiseILb1ELi1EEN4math8floatNx2ERKNS0_8floatNx3ERKfiS6_S6_
Ork:_Array_InternalArray__set_Item_TisColor32_t2600501292_m1891325855_gshared
_La:__ZN6prcoreL17RemapGenericFloatI18TexFormatRGBAFloat17TexFormatRGBFloatEEvPKNS_9InnerInfoE
Dxk:_GameObject_GetComponentInChildren_TisRuntimeObject_m1310240902_gshared
FSd:__ZN5physx2Sc21ArticulationJointCore21setInternalComplianceEf
I$e:__ZN9Rigidbody12MoveRotationERK11Quaternionf
_Qe:__ZNK5physx6shdfnd10Foundation13getErrorLevelEv
e5j:__ZL69PersistentCall_t3407714124_CustomAttributesCacheGenerator_m_ArgumentsP21CustomAttributesCache
MSa:__ZN16GeometryJobTasks20ScheduleGeometryJobsER9GfxDevicePFvP15GeometryJobDataEPK22GeometryJobInstructionjb
yMg:_TlsServerCertificateRequest_ProcessAsSsl3_m1084200341
xT:__ZN12AudioManager29ShutdownReinitializeAndReloadEv
I8a:__ZN16ReflectionProbes28GetMinBakedCubemapResolutionEv
eKe:__ZN5physx2Cm12DelegateTaskINS_2Sc5SceneEXadL_ZNS3_15postNarrowPhaseEPNS_10PxBaseTaskEEEE11runInternalEv
qTg:_InternalEnumerator_1__ctor_m1196506529_gshared
_Ze:__Z20ConvertContactToMonoP9Collision
DWh:_PermissionSet__ctor_m2328457660
MZc:__ZN17RemapPPtrTransfer8TransferI22ParticleSystemRendererEEvRT_PKc17TransferMetaFlags
T9g:_Enumerator__ctor_m1849900510_gshared
Ssm:__GLOBAL__sub_I_String_cpp
oUl:__ZN15dense_hashtableINSt3__24pairIK10KeyWrapperIPK22Il2CppGenericParameterEP11Il2CppClassEES6_N6il2cpp5utils11PointerHashIS4_EEN14dense_hash_mapIS6_S9_SE_NS6_14EqualsComparerINS0_8equal_toIS5_EEEENS0_9allocatorISA_EEE9SelectKeyESJ_SL_E6insertERKSA_
gph:_InputField_GenerateCaret_m1459647218
IZj:__ZL49Camera_t4157153871_CustomAttributesCacheGeneratorP21CustomAttributesCache
E3j:__ZL101SpriteAtlasManager_t3158462485_CustomAttributesCacheGenerator_SpriteAtlasManager_Register_m2413332465P21CustomAttributesCache
bkl:_X509CertificateEnumerator__ctor_m85694331
MFa:__ZN14DataBufferGLES16RecreateWithDataEjPKv
xea:__Z29GetGlobalAllowNameConversionsv
krd:__ZL17transformVerticesRfS_S_S_PfjPKN5physx6PxVec3EPKhRKNS1_7PxMat33E
eZe:__ZNK5physx2Gu15HeightFieldUtil31getFaceIndexAtShapePointNoTest2Ejff
sJi:_Array_InternalArray__Insert_TisTableRange_t3332867892_m558285859_gshared
vcc:__ZN8Material8SetColorEN9ShaderLab16FastPropertyNameERK10ColorRGBAf
Kek:__ZL77ExecuteEvents_t3484638744_CustomAttributesCacheGenerator_U3CU3Ef__mgU24cacheFP21CustomAttributesCache
BDe:__ZN5physx6shdfnd5ArrayIPNS_14PxLightCpuTaskENS0_13TempAllocatorEE6resizeEjRKS3_
VGh:_StrongName_get_TokenAlgorithm_m1794722022
tXk:_Enumerator_System_Collections_IEnumerator_Reset_m3754523291_gshared
DRm:_glUniform3uiv__wrapper
vTj:__ZL77Convert_t2465617642_CustomAttributesCacheGenerator_Convert_ToByte_m2375887898P21CustomAttributesCache
qX:__ZN11AudioSource23VirtualRedirectTransferER18StreamedBinaryReadILb0EE
tOh:_X509CertificateEnumerator__ctor_m943731472
j4c:__ZN27ColorModulePropertyBindings13SetFloatValueER14ParticleSystemif
Tri:_RangeInt_get_end_m4128831787
ire:__ZNK5physx2Sq10AABBPruner5sweepERKNS0_9ShapeDataERKNS_6PxVec3ERfRNS0_14PrunerCallbackE
hkl:_PKCS12_get_IterationCount_m3005687235
DMb:__ZN10RectOffset8TransferI19StreamedBinaryWriteILb0EEEEvRT_
LIm:dynCall_iiifiii
Maa:__ZL41AssemblyNameMatchesWithOrWithoutExtensionPKcS0_
X4k:_List_1_set_Item_m2082115010_gshared
HKi:_Encoding_GetBytes_m3735967069
Obd:__ZN23ColliderTilingExtension5ResetEv
g4f:_Array_Initialize_m3004991267
mPa:__ZN14GfxContextGLES43AddRenderSurfaceToDeferredFBOInvalidateListEPK17RenderSurfaceGLES
Ose:__ZN5physx17PxsCCDAdvanceTask11runInternalEv
cAa:__ZN11NamedObject23VirtualRedirectTransferER14SafeBinaryRead
ezh:_Text_get_resizeTextMinSize_m1002355407
Uhf:__ZN2UI11CompareFuncEPNS_6CanvasES1_
YWa:__ZN23PreloadManagerOperation6IsDoneEv
T3f:_Array_CreateInstance_m1027597705
F0k:_List_1_GrowIfNeeded_m3796726_gshared
p7l:__ZNK15dense_hashtableINSt3__24pairIK10KeyWrapperINS1_IPK10MethodInfoP11Il2CppClassEEEjEES9_17ReflectionMapHashIS8_EN14dense_hash_mapIS9_jSD_NS9_14EqualsComparerINS0_8equal_toIS8_EEEENS0_9allocatorISB_EEE9SelectKeyESI_SK_E8min_sizeEjj
dvh:_Selectable_get_navigation_m3508916916
fnd:__ZN10Effector2D10EndContactEP9b2Contact
itm:__ZN6il2cpp5utils11StringUtils11Utf16ToUtf8ERKNSt3__212basic_stringIDsNS2_11char_traitsIDsEENS2_9allocatorIDsEEEE
AGg:_MD4Managed_Decode_m4273685594
wij:__Z50RuntimeInvoker_Int64_t3736567304_Int16_t2552820387PFvvEPK10MethodInfoPvPS4_
DBd:__ZN5physx3Cct26CharacterControllerManagerD2Ev
Knj:__Z57RuntimeInvoker_Quaternion_t2301928331_Vector3_t3722313464PFvvEPK10MethodInfoPvPS4_
$wb:__ZN21LightProbeProxyVolume18HasHardwareSupportEv
Pgd:__ZNK20b2SeparationFunction17FindMinSeparationEPiS0_f
DKa:__ZN6prcoreL31inner_stretch_argb8888_bilinearEPKNS_9InnerInfoE
_Nb:__Z18Transfer_BlittableI18StreamedBinaryReadILb1EELb1E8BitFieldEvRK29SerializationCommandArgumentsR31RuntimeSerializationCommandInfo
rha:__ZNK4PPtrI11LightProbesEcvPS0_Ev
W8e:_UNITY_FT_Outline_Decompose
Hmg:_Int64_System_IConvertible_ToChar_m1509243576_AdjustorThunk
njl:_GeneralNames_get_IPAddresses_m4242915644
i7h:_Decimal_op_Implicit_m3873897383
wVk:_Enumerator_Dispose_m3500272053_AdjustorThunk
Kxm:_GC_init_size_map
pse:__ZN5physx6shdfnd8internal8HashBaseINS0_4PairIKNS3_IPKNS_12PxsRigidCoreEPKNS_12PxsShapeCoreEEEPNS_11PxsCCDShapeEEESA_NS0_4HashISA_EENS1_11HashMapBaseISA_SD_SG_NS0_9AllocatorEE6GetKeyESI_Lb1EE15reserveInternalEj
Y2a:__Z20scripting_object_new17ScriptingClassPtr
gKm:dynCall_iiiiifi
nGj:__ZL69RuntimeArray_CustomAttributesCacheGenerator_Array_Reverse_m3714848183P21CustomAttributesCache
ZFh:_KeyGeneratedEventHandler_Invoke_m2527485594
Moj:__Z52RuntimeInvoker_Vector4_t3319028937_Color_t2555686324PFvvEPK10MethodInfoPvPS4_
qLf:_Image_get_layoutPriority_m1290204116
r6l:__ZN24dense_hashtable_iteratorINSt3__24pairIK10KeyWrapperINS1_IPK9FieldInfoP11Il2CppClassEEEjEES9_17ReflectionMapHashIS8_EN14dense_hash_mapIS9_jSD_NS9_14EqualsComparerINS0_8equal_toIS8_EEEENS0_9allocatorISB_EEE9SelectKeyESI_SK_E30advance_past_empty_and_deletedEv
qrl:_Repetition_get_Expression_m2673886232
Yme:__ZN5physx2Sc5Scene21setDominanceGroupPairEhhRKNS_20PxDominanceGroupPairE
q5h:_Decimal__ctor_m1925875020_AdjustorThunk
tlh:_SerializationCallbacks__ctor_m3863304525
dXa:__ZN23PreloadManagerOperation21MustCompleteNextFrameEv
wPj:__ZL59SerializationInfo_t950877179_CustomAttributesCacheGeneratorP21CustomAttributesCache
Glj:__Z44RuntimeInvoker_X509KeyUsageFlags_t1431795504PFvvEPK10MethodInfoPvPS4_
m1c:__ZN16CustomDataModule8TransferI18StreamedBinaryReadILb0EEEEvRT_
P:Math_exp
Agi:_Vector3_Min_m1803158933
kq:FUNCTION_TABLE_iiifi
fpm:__ZN6il2cpp2os5posix13PosixAutoLockD2Ev
ond:__ZN13BoxCollider2D15InitializeClassEv
uil:_TlsServerSettings_set_CertificateTypes_m2047242411
Dcm:_il2cpp_class_get_name
OAl:_SymmetricTransform_OFB_m3690147804
w$g:_InternalEnumerator_1_MoveNext_m3713722659_AdjustorThunk
U1e:_cff_get_advances
ITb:__ZN13MonoBehaviour9SetScriptERK4PPtrI10MonoScriptE18ScriptingObjectPtr
CRl:_RaycastHit2D_get_collider_m1549426026
vHb:__Z18Transfer_BlittableI17RemapPPtrTransferLb0E8Vector2fEvRK29SerializationCommandArgumentsR31RuntimeSerializationCommandInfo
ikm:__ZNSt3__218uninitialized_copyIPNS_4pairIK10KeyWrapperIP14Il2CppIUnknownEjEES8_EET0_T_SA_S9_
tMh:_X500DistinguishedName_GetSeparator_m1336760642
Qzj:__Z77RuntimeInvoker_Void_t1185182177_Vector2U5BU5DU26_t476646542_Int32_t2950945753PFvvEPK10MethodInfoPvPS4_
xee:__ZN5physx7NpScene12loadFromDescERKNS_11PxSceneDescE
nHh:_PKCS12_get_RNG_m2649456600
pYa:__ZNK10FileSystem16LastErrorMessageEv
Wqk:_Array_InternalArray__Insert_TisVector3_t3722313464_m3862657277_gshared
R3j:__ZL104NativeClassAttribute_t2601352714_CustomAttributesCacheGenerator_U3CQualifiedNativeNameU3Ek__BackingFieldP21CustomAttributesCache
dXh:_SecurityException__ctor_m1631242336
sWl:__ZN15dense_hashtableINSt3__24pairIK10KeyWrapperIPK11Il2CppClassEPKcEES6_N6il2cpp5utils11PointerHashIS3_EEN14dense_hash_mapIS6_S9_SE_NS6_14EqualsComparerINS0_8equal_toIS5_EEEENS0_9allocatorISA_EEE9SelectKeyESJ_SL_E14squash_deletedEv
Pxf:_EventSystem_Update_m1662072334
Ctc:__ZN11TimeManager16HasFixedTimeStepEv
rvf:__ZN22UnityWebRequestManager10InitializeEv
oTl:_MainModule_set_startSpeed_m3763022313
ZSb:__ZN13MonoBehaviour13AwakeFromLoadE17AwakeFromLoadMode
TJj:__ZL51FileMode_t1183438340_CustomAttributesCacheGeneratorP21CustomAttributesCache
fIb:__ZL26Transfer_SimpleNativeClassI17RemapPPtrTransfer8GradientLb1EEvRK29SerializationCommandArgumentsR31RuntimeSerializationCommandInfo
rxf:_RaycasterManager_RemoveRaycasters_m3057093063
Xqc:__ZN12CachedWriter9InitWriteER15CacheWriterBase
Apc:__Z21UnsignedInt64ToStringy
Tth:_GetRaycastNonAllocCallback_BeginInvoke_m3984885848
qVg:_InternalEnumerator_1_MoveNext_m4138204635_AdjustorThunk
Bnl:_PatternCompiler_BeginLink_m1295557963
w1a:__ZN14SafeBinaryRead21TransferSTLStyleArrayI13dynamic_arrayI17SortingLayerEntryLj4EEEEvRT_17TransferMetaFlags
lQj:__ZL46MD5_t3177620429_CustomAttributesCacheGeneratorP21CustomAttributesCache
Wme:__ZN5physx14PxsAABBManager15createAggregateEPvb
Qql:_Group_GetAnchorInfo_m3730312864
Ehk:__ZL50Graphic_t1660335611_CustomAttributesCacheGeneratorP21CustomAttributesCache
Nok:__ZL118U3CFOVKickUpU3Ec__Iterator0_t3738408313_CustomAttributesCacheGenerator_U3CFOVKickUpU3Ec__Iterator0_Dispose_m2383907888P21CustomAttributesCache
D7g:_KeyCollection_System_Collections_Generic_ICollectionU3CTKeyU3E_Add_m454648927_gshared
mRi:_TimeSpan_op_LessThanOrEqual_m300470010
hOm:_emscripten_glTexCoordPointer__wrapper
Geh:_ContextAttribute_Freeze_m3288175579
UFc:__Z66Register_UnityEngine_Transform_INTERNAL_CALL_InverseTransformPointv
FXl:__ZNSt3__218uninitialized_fillIPNS_4pairIK10KeyWrapperIPK19Il2CppGenericMethodEPK26Il2CppGenericMethodIndicesEESB_EEvT_SD_RKT0_
Bpa:__ZZN15DirectorManager15InitializeClassEvEN41FixedUpdateDirectorFixedUpdateRegistrator7ForwardEv
Arg:_MemoryStream_get_Position_m3733941202
pb:invoke_iiiiifiiiif
O$j:__ZL96TouchScreenKeyboard_t731888065_CustomAttributesCacheGenerator_TouchScreenKeyboard_Open_m43950298P21CustomAttributesCache
Tgm:__ZNSt3__26vectorIcNS_9allocatorIcEEE8allocateEj
FEl:_AudioClipPlayable_Equals_m3705880618
rKf:_HorizontalOrVerticalLayoutGroup_set_childControlWidth_m3261460516
ieg:_Slot_t3975888750_marshal_pinvoke
aTm:_glLinkProgram__wrapper
Xzb:__ZN18ScriptingArguments8AddInt64Ex
lLa:__ZN6prcoreL12RemapGenericI17TexFormatARGB888815TexFormatBGR888EEvPKNS_9InnerInfoE
oad:__Z73Register_UnityEngine_ParticleCollisionEvent_InstanceIDToColliderComponentv
CAb:__ZN12HandlerChain4LockER13FileEntryData12FileLockMode
Ydi:_TextInfo_get_ListSeparator_m1628160079
Bek:__ZL77ExecuteEvents_t3484638744_CustomAttributesCacheGenerator_U3CU3Ef__mgU24cache6P21CustomAttributesCache
wWc:__Z20UpdateCustomCurveTplIL27ParticleSystemCurveEvalMode1EEvRK11MinMaxCurveR23ParticleSystemParticlesiijjRKN4math5_int4E
zxh:_Selectable_OnCanvasGroupChanged_m472903475
iOi:_EventWaitHandle_Reset_m3348053200
mah:_Enumerator_get_Current_m2897627569_gshared
Ysf:__ZN28UnityConnectScriptingClasses23CallSessionStateChangedEixxbP21ScriptingExceptionPtr
L0d:__ZN5physx7NpShape8requiresERNS_23PxProcessPxBaseCallbackE
Ajm:__ZN6il2cpp6icalls8mscorlib6System13Globalization11CultureInfo35construct_internal_locale_from_nameEP17Il2CppCultureInfoP12Il2CppString
nKb:__ZL22Transfer_ManagedObjectI24GenerateTypeTreeTransferLb1EEvRK29SerializationCommandArgumentsR31RuntimeSerializationCommandInfo
faj:__Z100RuntimeInvoker_Boolean_t97287965_RuntimeObject_Int32_t2950945753_RuntimeObject_UInt16U26_t2814738322PFvvEPK10MethodInfoPvPS4_
kAj:__Z56RuntimeInvoker_ILTokenInfo_t2325775114_Int32_t2950945753PFvvEPK10MethodInfoPvPS4_
VBg:_HMAC_get_BlockSizeValue_m455678067
f0b:__ZN15RenderNodeQueueC2E10MemLabelId
wsk:_Array_qsort_TisParticleCollisionEvent_t4055032941_m191896654_gshared
iZf:_ResourceEnumerator_FillCache_m1661715061
yxj:__Z60RuntimeInvoker_Int32_t2950945753_ResourceCacheItem_t51292791PFvvEPK10MethodInfoPvPS4_
xPk:_ReadOnlyCollection_1_System_Collections_IList_IndexOf_m3664838805_gshared
xRj:__ZL72SecuritySafeCriticalAttribute_t3505979402_CustomAttributesCacheGeneratorP21CustomAttributesCache
Tk:_emscripten_set_main_loop_timing
ogi:_Bounds_get_min_m3755135869
vig:_Convert_ToUInt16_m3523269149
agi:_Bounds_get_center_m1418449258
fkm:__ZN30dense_hashtable_const_iteratorINSt3__24pairIK10KeyWrapperIP14Il2CppIUnknownEjEES5_N6il2cpp5utils11PointerHashIS3_EEN14dense_hash_mapIS5_jSB_NS5_14EqualsComparerINS0_8equal_toIS4_EEEENS0_9allocatorIS7_EEE9SelectKeyESG_SI_E30advance_past_empty_and_deletedEv
CSd:__ZN5physx2Sc21ArticulationJointCore22setTangentialStiffnessEf
Oyf:_ExecuteEvents_get_endDragHandler_m2879610446
RZe:__ZN14CompletionTask22ProcessAllPhysicsTasksEv
ccc:__ZN14ImageReference10FlipImageYEv
CQh:_Interpreter_GetLastDefined_m4107643411
z0c:__ZN21InheritVelocityModule8TransferI17RemapPPtrTransferEEvRT_
hal:_fileController_Start_m509063755
n2a:__Z32TransferEnumWithNameForceIntSizeI14SafeBinaryRead13TargetEyeMaskEvRT_RT0_PKc17TransferMetaFlags
qJc:__Z14GetDefaultSkini
JQ:__ZN4FMOD3DSP9setBypassEb
sYc:__Z9StartConeILN11ShapeModule14MultiModeValueE1EEvRS0_R23ParticleSystemParticlesRK19ParticleSystemStateRK27ParticleSystemEmissionStateRKN4math8float3x3ERKNSB_8float4x4Ejbj
Kfc:__Z19NormalizeWheelInputf
WIf:_Graphic_DoMeshGeneration_m3548487693
Hec:__Z29StdTemplateConversionFunctionIsaEbPvR14SafeBinaryRead
RI:__ZNK4PPtrI13MonoBehaviourEcvPS0_Ev
Pol:_Repetition__ctor_m1672362629
pSc:__Z29Transfer_Blittable_ArrayFieldI8JSONReadhEvRT_R9ArrayInfoRK23StaticTransferFieldInfo
gYh:_SecurityFrame_ToString_m339310712_AdjustorThunk
dUf:_TypeBuilder_create_runtime_class_m2581270900
uTg:_InternalEnumerator_1_get_Current_m3008260692_gshared
k5d:__ZN5physx2Sc9ClothCore17addCollisionPlaneERKNS_21PxClothCollisionPlaneE
A3a:__ZN22RenderingCommandBuffer20CleanupCommandBufferEv
k7h:_Decimal_op_Implicit_m2299919277
iGa:__ZN4gles18CreateStencilStateER15DeviceStateGLESRK15GfxStencilState
eNc:__Z18Transfer_BlittableI9JSONWriteLb1EtEvRK29SerializationCommandArgumentsR31RuntimeSerializationCommandInfo
wug:_UnexceptionalStreamReader_ReadToEnd_m920589220
M1h:_DateTime_System_IConvertible_ToType_m1242864300
r_h:_String_IndexOf_m1298810678
ml:___syscall85
F8j:__ZL85GUI_t1624858472_CustomAttributesCacheGenerator_GUI_set_nextScrollStepTime_m1026410471P21CustomAttributesCache
vMe:__ZNK5physx13PxHeightField8isKindOfEPKc
Zxk:_Mesh_GetAllocArrayFromChannel_TisVector3_t3722313464_m2332439905_gshared
k0b:__ZNSt3__26__sortIRPFbP10GUIElementS2_EPS2_EEvT0_S7_T_
goc:__ZN16GraphicsSettings12CleanupClassEv
$Of:_ConstructorBuilder_GetILGenerator_m1750792206
cKi:_EncoderFallback_get_ReplacementFallback_m818398284
Ypm:__ZN6il2cpp2os6Thread19DetachCurrentThreadEv
iyf:_EventTrigger_OnBeginDrag_m4203438710
KUl:__ZN6il2cpp2vmL21SetupInterfacesLockedEP11Il2CppClassRKNS_2os12FastAutoLockE
PCb:__ZN11MonoManager23VirtualRedirectTransferER24GenerateTypeTreeTransfer
YJe:__ZNK5physx2Sc18ParticleSystemCore16getInternalFlagsEv
k0c:__ZN24GenerateTypeTreeTransfer8TransferI13dynamic_arrayIN8UVModule10SpriteDataELj4EEEEvRT_PKc17TransferMetaFlags
Wuk:_Dictionary_2_Do_CopyTo_TisRuntimeObject_TisRuntimeObject_m2344529027_gshared
QJ:__ZN23AnimationPlayableOutput17SetSourcePlayableEP8Playable
z5c:__ZL24BuildParticleLineSegmentILb1EEvjRPhRKN4math8float4x4EPK15LineBuilderDataRKfSA_11ColorRGBA32
zrm:__ZN6il2cpp2gc16GarbageCollector22MakeDescriptorForArrayEv
NQi:_TimeSpan_CompareTo_m3633415627_AdjustorThunk
mBj:__Z37RuntimeInvoker_UILineInfo_t4195266810PFvvEPK10MethodInfoPvPS4_
yii:_CullingGroup_Dispose_m782801025
t$i:_Dictionary_2_System_Collections_IDictionary_GetEnumerator_m529247385_gshared
iAd:__ZN16ControllerFilter9preFilterERKN5physx12PxFilterDataEPKNS0_7PxShapeEPKNS0_12PxRigidActorERNS0_7PxFlagsINS0_9PxHitFlag4EnumEtEE
W1:__ZN11UnityEngine15CloudWebService14DataDispatcher15SetupWebRequestEv
Wrj:__Z64RuntimeInvoker_Boolean_t97287965_RuntimeObject_Int16_t2552820387PFvvEPK10MethodInfoPvPS4_
mEk:_Collection_1_ConvertItem_m492501417_gshared
jqf:__ZN11UnityEngine15PlatformWrapper13GetShaderCapsEv
hye:__ZN16MBPOS_TmpBuffers16allocateSleepingEjj
eQ:__ZN8Animator7GetBoolEiRb
Mak:__ZL82Physics2D_t1528932956_CustomAttributesCacheGenerator_Physics2D_Raycast_m1377762210P21CustomAttributesCache
WEh:_KeyPairPersistence_get_MachinePath_m3812267291
Bfg:_Stack_Peek_m2216191248
wxl:_ListPool_1_U3Cs_ListPoolU3Em__0_m657844629_gshared
z1h:_DateTime_System_IConvertible_ToDecimal_m1044850612_AdjustorThunk
Qoc:__ZN21FixedBehaviourManager6UpdateEv
Ovc:__ZN9Transform9SetParentEPS_NS_15SetParentOptionE
Sxk:_GameObject_GetComponentsInChildren_TisRuntimeObject_m2621777305_gshared
h1c:__ZN15CollisionModule8TransferI18StreamedBinaryReadILb0EEEEvRT_
dOl:_AnimatorControllerPlayable_SetHandle_m2260644454_AdjustorThunk
vga:__ZN19ShaderPropertySheet8SetFloatEN9ShaderLab16FastPropertyNameEfNS_8SetFlagsE
$Ol:_Physics_Raycast_m952690504
Svb:__ZN19RuntimeSceneManager24BeginIntegrateMainThreadEP10UnityScene
pQd:__ZN5physx14NpArticulation26setExternalDriveIterationsEj
Ord:__ZN16RayRTreeCallbackILi0ELb0EED0Ev
qMg:_TlsServerCertificate_ProcessAsSsl3_m1306583193
FDe:__ZN5physx20PxsParticleSystemSim23scheduleCollisionUpdateERNS_10PxBaseTaskE
Iqm:__ZNSt3__2plIcNS_11char_traitsIcEENS_9allocatorIcEEEENS_12basic_stringIT_T0_T1_EERKS9_S6_
xtg:_StringReader_CheckObjectDisposedException_m3796163530
w9k:_List_1_Remove_m2092443302_gshared
rva:__ZN9ShaderLab20SerializedSubProgramaSERKS0_
dIm:_roundf
XYi:_Dictionary_2_pick_value_m4268517353_gshared
t7f:_Byte_System_IConvertible_ToSingle_m324484566_AdjustorThunk
puj:__Z42RuntimeInvoker_RequirementType_t3584265503PFvvEPK10MethodInfoPvPS4_
X6h:_Decimal_op_Explicit_m2848387298
e7i:_KeyValuePair_2_ToString_m1238786018_gshared
_Cd:__ZN5physx15PxBoxControllerD0Ev
uD:__ZN8Animator15SetPrepareStageEv
QP:__ZN8AnimatorC2E10MemLabelId18ObjectCreationMode
LUl:__ZN6il2cpp2vmL24SetupTypeHierarchyLockedEP11Il2CppClassRKNS_2os12FastAutoLockE
Sfc:__ZL11TextHandleriPK23EmscriptenKeyboardEventPv
j5b:__Z20CalculateLightMatrixRK15SharedLightDataP10Matrix4x4f
Pef:_destroy_face
TOm:_glBlendEquationSeparate__wrapper
xDd:__ZN5physx19PxAllocatorCallbackD2Ev
ezm:__ZN6il2cpp6icalls8mscorlib6System8Security12Cryptography24RNGCryptoServiceProvider13RngInitializeEP11Il2CppArray
UYj:__ZL68UsedByNativeCodeAttribute_t1703770351_CustomAttributesCacheGeneratorP21CustomAttributesCache
D3c:__ZN21RotationBySpeedModuleD0Ev
Y9d:__ZNK5physx15NpActorTemplateINS_16PxParticleSystemEE17getDominanceGroupEv
zX:__ZN20SoundChannelInstance7setMuteEb
maj:__Z81RuntimeInvoker_Void_t1185182177_RuntimeObject_Int32_t2950945753_Int32_t2950945753PFvvEPK10MethodInfoPvPS4_
G8a:__ZN4PPtrI5LightE8TransferI19StreamedBinaryWriteILb0EEEEvRT_
wBd:__ZN5physx3Cct26CharacterControllerManager21createObstacleContextEv
gIi:_Array_InternalArray__ICollection_Add_TisVector2_t2156229523_m4029235359_gshared
o0k:_List_1__cctor_m972674764_gshared
iyg:_NumberFormatter_NumberToString_m3906556024
ZOb:__Z19TransferField_ArrayI18StreamedBinaryReadILb1EE27Converter_SimpleNativeClassI17AnimationCurveTplIfEEEvRK23StaticTransferFieldInfoR31RuntimeSerializationCommandInfoRT0_
gsg:_NullStream_Flush_m3382897993
Pnd:__ZN7b2World18SetContactListenerEP17b2ContactListener
g7c:__Z19UpdateSingleRow2TplIL27ParticleSystemCurveEvalMode1ELS0_1EEvfRK11MinMaxCurveS3_RK23ParticleSystemParticlesPfbiii
ihd:__ZN14PhysicsQuery2D11LinecastAllERK8Vector2fS2_RKN10Collider2D13ContactFilterEPKS3_bP13dynamic_arrayI12RaycastHit2DLj4EE
LHa:__ZN18GfxFramebufferGLES22MakeCurrentFramebufferENS_7BuiltinE
sum:__ZN6il2cpp2vm12MarshalAlloc4FreeEPv
Jge:__ZN5physx6shdfnd5ArrayIPNS_2Sc19ShapeInstancePairLLENS0_19ReflectionAllocatorIS4_EEE15growAndPushBackERKS4_
Wia:__ZN12CachedReader4ReadEPvj
sxe:__ZN5physx21MBPPostUpdateWorkTaskD0Ev
LYf:_TypeFilter_EndInvoke_m998903841
bGd:__ZN5physx14PxsAABBManager19createAggregateElemEv
DUd:__ZN5physx2Sc8BodyCore24clearSpatialAccelerationEbb
B$i:_KeyValuePair_2__ctor_m1794021352_gshared
EBh:_SimpleCollator_MatchesForwardCore_m850743967
jrb:__ZN14SubstanceInput8TransferI18StreamedBinaryReadILb0EEEEvRT_
mWc:__ZNK14RotationModule6UpdateERK27ParticleSystemReadOnlyStateRK19ParticleSystemStateR23ParticleSystemParticlesRKN4math7_float4Ejj
jma:__ZN19RuntimeSceneManagerD2Ev
v5j:__ZL77DeallocateOnJobCompletionAttribute_t3131681843_CustomAttributesCacheGeneratorP21CustomAttributesCache
_xa:__ZN13dynamic_arrayIPN9ShaderLab4PassELj4EE9push_backERKS2_
obi:_CCGregorianCalendar_GetMonth_m1547203696
k3:__ZN11UnityEngine15CloudWebService25WebRequestDownloadHandler17OnCompleteContentEv
CKa:__ZN6prcore17GetIntegerBlitterE13TextureFormatS0_N14ImageReference8BlitModeE
jxm:_GC_print_block_descr
Cge:__ZN5physx10PxsContext20createContactManagerERKNS_24PxvManagerDescRigidRigidEPNS_18PxsMaterialManagerE
Kzk:_Collection_1_IndexOf_m934463944_gshared
Pid:__ZN13BoxCollider2DD0Ev
I7l:__ZN6il2cpp2gc19AppendOnlyGCHashMapINSt3__24pairIPK11Il2CppImageP11Il2CppClassEEP22Il2CppReflectionModule17ReflectionMapHashIS9_ENS2_8equal_toIS9_EEE11TryGetValueERKS9_PSB_
Pee:__ZN5physx2Cm12DelegateTaskINS_7NpSceneEXadL_ZNS2_12executeSolveEPNS_10PxBaseTaskEEEED0Ev
vsd:__ZN5physx2GuL18gPCMHullPrefetchCBEjPKNS_6PxVec3E
yKd:__ZN5physx2Sc5Scene31removeActiveBreakableConstraintEPNS0_13ConstraintSimE
LJj:__ZL51Directory_t828876208_CustomAttributesCacheGeneratorP21CustomAttributesCache
L4f:_SimpleEnumerator_Reset_m2182001888
Pwj:__Z86RuntimeInvoker_Int32_t2950945753_Vector2_t2156229523_Vector2_t2156229523_RuntimeObjectPFvvEPK10MethodInfoPvPS4_
lyc:__ZN9BlobWrite14ReduceCopyImplERK14ReduceCopyDataj
Lka:__ZNSt3__26__treeI19RepeatingLogMessageNS_4lessIS1_EE13stl_allocatorIS1_L18MemLabelIdentifier73ELi16EEE12__find_equalIS1_EERPNS_16__tree_node_baseIPvEESD_RKT_
k$:__ZN11AudioSource18IsPlayingScriptingEv
OEh:_KeyBuilder_IV_m2230195376
KBl:_AnalyticsEventParamListContainer_get_parameters_m4180299006
Scd:__ZNK12b2WheelJoint10GetAnchorAEv
Zke:__ZN5physx6shdfnd5ArrayINS_12PxActorShapeENS0_19ReflectionAllocatorIS2_EEE15growAndPushBackERKS2_
h_a:__ZN25MultiBlocksMemoryFileData17AdjustBlocksCountEj
Sgm:__ZNSt3__214__split_bufferIN6il2cpp2vm22EmbeddedResourceRecordERNS_9allocatorIS3_EEED2Ev
lkd:__ZN10ClipperLib14PointInPolygonERKNS_8IntPointEPNS_5OutPtE
idf:__ZN13TextRendering4Font8TransferI24GenerateTypeTreeTransferEEvRT_
IDa:__ZN9GfxDevice15EndProfileEventEPN9profiling6MarkerE
Mzc:__Z27CullingGroup_CUSTOM_DisposeP12Il2CppObject
t6c:__Z18UpdateSingleRowTplIL27ParticleSystemCurveEvalMode0EEvfRK11MinMaxCurveS3_RK23ParticleSystemParticlesPfbiii
Btf:__ZNSt3__26vectorIP19BaseConnectSettings13stl_allocatorIS2_L18MemLabelIdentifier6ELi16EEE21__push_back_slow_pathIKS2_EEvRT_
R$b:__ZN13ComputeShader15SetTextureParamEjRKN9ShaderLab16FastPropertyNameE9TextureID16TextureDimension
W1g:_Comparer_1__ctor_m319670016_gshared
lZd:__ZN5physx2Sc14ConstraintCore8setFlagsENS_7PxFlagsINS_16PxConstraintFlag4EnumEtEE
vn:_glStencilMask
Z_g:_InternalEnumerator_1_System_Collections_IEnumerator_get_Current_m2499755184_gshared
pLe:__ZNK5physx2Sc15ClothFabricCore20getNbParticleIndicesEv
Mfc:__ZN15GUIEventManager10QueueEventERK10InputEvent
cZf:_ResourceReader_ReadNonPredefinedValue_m2638853518
$Ak:_Collection_1_Clear_m1300437781_gshared
bWl:_AnalyticsEvent_OnValidationFailed_m2609604624
q9j:__ZL62EventType_t3528516131_CustomAttributesCacheGenerator_mouseMoveP21CustomAttributesCache
UZf:_DecimalConstantAttribute__ctor_m3583301917
vB:__ZN24GenerateTypeTreeTransfer21TransferSTLStyleArrayINSt3__26vectorI24CompressedAnimationCurve13stl_allocatorIS3_L18MemLabelIdentifier26ELi16EEEEEEvRT_17TransferMetaFlags
znj:__Z116RuntimeInvoker_Vector3_t3722313464_Vector3_t3722313464_Vector3_t3722313464_Vector3U26_t3464235976_Single_t1397266774PFvvEPK10MethodInfoPvPS4_
ODk:_Collection_1_System_Collections_ICollection_get_IsSynchronized_m1640823718_gshared
Lwm:_GC_push_conditional_with_exclusions
M3g:_Enumerator_System_Collections_IDictionaryEnumerator_get_Entry_m2772123357_AdjustorThunk
jG:__ZN21AnimationPosePlayableD0Ev
POk:_ReadOnlyCollection_1_System_Collections_Generic_ICollectionU3CTU3E_get_IsReadOnly_m183501310_gshared
oM:__ZN12_GLOBAL__N_121ProcessAnimationBeginER35AnimationPlayableEvaluationConstantR32AnimationPlayableEvaluationInputR33AnimationPlayableEvaluationOutput
HTj:__ZL80Convert_t2465617642_CustomAttributesCacheGenerator_Convert_ToDecimal_m2858622624P21CustomAttributesCache
Fsl:_UriParser_InitializeAndValidate_m2008117311
pwm:_GC_make_disappearing_links_disappear
hFm:_strrchr
Xhi:_Component_GetComponentInParent_m779177818
QJd:__ZN5physx2Sc7BodySim6wakeUpEv
vZi:_Dictionary_2_System_Collections_ICollection_get_SyncRoot_m2069913662_gshared
ZBf:_UIBehaviour_IsDestroyed_m3033055982
Upk:__ZL81TimedObjectDestructor_t3438860414_CustomAttributesCacheGenerator_m_DetachChildrenP21CustomAttributesCache
sge:__ZN5physx6shdfnd8PoolBaseINS_2Gu30LargePersistentContactManifoldENS0_19ReflectionAllocatorIS3_EEE17releaseEmptySlabsEv
lKd:__ZN5physx2Sc21ConstraintInteraction7destroyEv
SUe:__ZN14SphereCollider6CreateEPK9Rigidbody
Zxi:_Enumerator_Reset_m39541243
aDc:__Z33Register_UnityEngine_Random_Rangev
hGc:__Z27Object_CUSTOM_DestroyObjectP12Il2CppObjectf
Hnh:_InputField_get_readOnly_m3111985574
Pue:__ZN5physx13PxsSolverCoreD2Ev
T8a:__ZN14RenderSettings27UpdateIndirectSpecularColorEv
Lmi:_Logger_get_logHandler_m1335645353
Itb:__ZN14PlayerSettings8TransferI18StreamedBinaryReadILb0EEEEvRT_
F1l:__ZN6il2cpp6icalls8mscorlib6System8MonoType16GetMethodsByNameEP20Il2CppReflectionTypeP12Il2CppStringibS5_
Crj:__Z143RuntimeInvoker_Void_t1185182177_RuntimeObject_Single_t1397266774_Vector3U26_t3464235976_Single_t1397266774_Single_t1397266774_Int32_t2950945753PFvvEPK10MethodInfoPvPS4_
NOj:__ZL73ObjRef_t2141158884_CustomAttributesCacheGenerator_U3CU3Ef__switchU24map26P21CustomAttributesCache
zfk:__ZL102PointerEventData_t3807901092_CustomAttributesCacheGenerator_PointerEventData_set_pointerId_m1888344330P21CustomAttributesCache
N7j:__ZL88AudioClip_t3680889665_CustomAttributesCacheGenerator_AudioClip_get_ambisonic_m3815052287P21CustomAttributesCache
Yhe:__ZNK5physx7NpScene16getNbConstraintsEv
brh:_U3CDelayedSetDirtyU3Ec__Iterator0__ctor_m3936335621
V3d:__ZN5physx7NpCloth14setWakeCounterEf
zha:__ZN4PPtrI10GameObjectE8TransferI14SafeBinaryReadEEvRT_
L5j:__ZL106PlayableAsset_t3219022681_CustomAttributesCacheGenerator_PlayableAsset_Internal_CreatePlayable_m2550417712P21CustomAttributesCache
BOi:_Monitor_Monitor_wait_m3706677354
GDg:_RijndaelTransform__cctor_m2439033240
tXe:__ZN5physx7profile11EventBufferINS_24PxDefaultContextProviderENS_6shdfnd6MutexTINS0_26WrapperReflectionAllocatorIhEEEENS0_14ScopedLockImplIS7_EENS_24PxProfileNullEventFilterEE17doAddProfileEventINS0_10StartEventEEEvtRKT_
QGj:__ZL175U3CGetEnumeratorU3Ec__Iterator0_t1202911786_CustomAttributesCacheGenerator_U3CGetEnumeratorU3Ec__Iterator0_System_Collections_Generic_IEnumeratorU3CTU3E_get_Current_m322251035P21CustomAttributesCache
tGl:__ZL24UnresolvedVirtualCall_14P12Il2CppObject25RSAParameters_t1728406613PK10MethodInfo
Fbf:_ps_hints_t2mask
hwk:_LayoutGroup_SetProperty_TisVector2_t2156229523_m2721164497_gshared
cCi:_Array_InternalArray__ICollection_Remove_TisMonoResource_t4103430009_m238733686_gshared
Vng:_IntPtr_ToString_m1831665121
uyh:_Slider_Set_m1476104429
IKf:_Image_set_fillClockwise_m2210525152
Bnb:__ZN10BlendShape8TransferI19StreamedBinaryWriteILb0EEEEvRT_
K_e:__ZN14PhysicsManagerC2E10MemLabelId18ObjectCreationMode
eel:_U3COnCollisionEnterU3Ec__Iterator0__ctor_m4036841794
GMe:__ZNK5physx2Gu11HeightField17getReferenceCountEv
nR:__Z32TransferEnumWithNameForceIntSizeI14SafeBinaryReadN10SampleClip8LoadTypeEEvRT_RT0_PKc17TransferMetaFlags
Mng:__Z21il2cpp_codegen_sizeofP11Il2CppClass
vOa:__Z19GetTimeSinceStartupv
gLf:_Image_AddQuad_m2161647989
Yab:__ZN7Texture23VirtualRedirectTransferER17RemapPPtrTransfer
dxf:_BaseInputModule_DeactivateModule_m856719157
mqm:__ZN6il2cpp2os10ThreadImpl11SetPriorityENS0_14ThreadPriorityE
iXk:_Enumerator_System_Collections_IEnumerator_Reset_m2953002685_gshared
dcj:__Z50RuntimeInvoker_Int64_t3736567304_Int32_t2950945753PFvvEPK10MethodInfoPvPS4_
Exk:_Object_FindObjectOfType_TisRuntimeObject_m2612646359_gshared
$af:_TT_Load_Composite_Glyph
bhl:_WaypointCircuit_OnDrawGizmosSelected_m4093697193
Hob:__Z33MultiplyMatrixArrayWithBase4x4REFPK10Matrix4x4fS1_S1_PS_j
LDa:__ZN9GfxDevice16DeleteTimerQueryEP13GfxTimerQuery
x8k:_List_1_Insert_m1695211546_gshared
cnj:__Z49RuntimeInvoker_Void_t1185182177_Color_t2555686324PFvvEPK10MethodInfoPvPS4_
Nbb:__ZN9ShaderLab11shaderprops9GetTexEnvEPK19ShaderPropertySheetS3_NS_16FastPropertyNameE16TextureDimensionb
Y1k:_List_1_Sort_m3232912161_gshared
U6g:_KeyCollection_System_Collections_ICollection_CopyTo_m1760651091_gshared
U2b:__ZN29RenderNodeQueuePrepareContextC2Ev
fdm:_il2cpp_gc_disable
Dwa:__ZN9ShaderLab20SerializedSubProgram16TextureParameter8TransferI24GenerateTypeTreeTransferEEvRT_
BBg:_DSASignatureDeformatter_SetKey_m2999549245
Ezm:__ZN6il2cpp2os11MutexHandle4WaitEb
WAa:__ZN9GfxDevice19SaveStereoConstantsEv
Sel:_CameraRefocus_SetFocusPoint_m3379167348
Dzm:__ZN6il2cpp2os11MutexHandle4WaitEj
Vwc:__ZL34GetComponentsImplementationRecurseILb1ELi1ELi1EEbR10GameObjectbRK17CompareParametersRK39GetComponentsImplementation_ReturnValue
ndj:__Z114RuntimeInvoker_Boolean_t97287965_RuntimeObject_RuntimeObject_Int32_t2950945753_Int32_t2950945753_Int32_t2950945753PFvvEPK10MethodInfoPvPS4_
rOf:_AssemblyBuilder_GetTypes_m3415680380
vMa:__ZN6prcoreL17RemapGenericFloatI15TexFormatRGHalf18TexFormatARGBFloatEEvPKNS_9InnerInfoE
DBl:_AnalyticsEventParam_get_groupID_m569309506
Z7h:_StackFrame_GetMethod_m1395840764
eab:__ZNK13RenderTexture13GetDataHeightEv
eQa:__ZN7ApiGLES15BindVertexArrayEN2gl6HandleILNS0_10ObjectTypeE3EEE
mWb:__Z18SimulateMouseInputi
g$b:__ZN13RenderManager23AddRemoveCamerasDelayedEv
jOc:__ZN9JSONWrite8TransferI13dynamic_arrayIdLj8EEEEvRT_PKc17TransferMetaFlags
_Wa:__ZN23PreloadManagerOperation11GetPriorityEv
tqh:_LayoutElement_OnEnable_m1760066426
Lnf:__ZN11UnityEngine9Analytics15AnalyticsConfigC2Ev
_Lf:_OverflowException__ctor_m4029085969
Hje:__ZN5physx2Sq17SceneQueryManager11shiftOriginERKNS_6PxVec3E
NFk:_Collection_1_CheckWritable_m899405946_gshared
k6h:_Decimal_Compare_m3062820418
QRh:_IntervalCollection_GetMetaCollection_m4029522214
WZe:__ZNK5Unity5Joint16GetCurrentForcesER8Vector3fS2_
dyf:_EventTrigger_OnDeselect_m1919608102
zLl:_TextGenerator_get_characterCount_m864136654
Cfi:_AsyncOperation_t1445031843_marshal_pinvoke_cleanup
oQi:_TimeSpan__ctor_m2047388489_AdjustorThunk
Qac:__ZN13RenderTexture8SetWidthEi
Wjc:__ZNK28RectTransformPropertyBinding12SetPPtrValueERKN11UnityEngine9Animation10BoundCurveEi
xYb:__ZN18FrameTimingManager18GetVSyncsPerSecondEv
n3c:__ZN11ColorModuleD0Ev
Nnb:__ZN10MeshFilterD0Ev
bbf:_UNITY_FT_GlyphLoader_CheckSubGlyphs
PSg:_InternalEnumerator_1__ctor_m1341209356_AdjustorThunk
d5b:__Z25SetupObjectBakedOcclusionbRK15SharedLightDataRK26SharedLightmapSettingsDataRK15LightmapIndicesR17ShaderPassContext
To:FUNCTION_TABLE_fiffifi
hCk:_Collection_1_System_Collections_ICollection_CopyTo_m1516601228_gshared
lDk:_Collection_1_CopyTo_m4278237485_gshared
zjg:_Int16_System_IConvertible_ToDouble_m1661805412
Ygh:_MethodCall_get_Uri_m1720935531
U$d:__ZNK5physx9NpFactory11getNbShapesEv
dQl:_SphereCollider_INTERNAL_get_center_m2092209095
kGl:__ZL23UnresolvedVirtualCall_5P12Il2CppObjectsPK10MethodInfo
WN:__ZN4PPtrI6AvatarE8TransferI19StreamedBinaryWriteILb0EEEEvRT_
gZk:_List_1_Insert_m4050947056_gshared
Dga:__ZN9ShaderLab16FastPropertyName4InitEPKc
edd:__ZN11b2GearJointD0Ev
Imj:__Z48RuntimeInvoker_OperatingSystemFamily_t1868066375PFvvEPK10MethodInfoPvPS4_
DSj:__ZL61Thread_t2300836069_CustomAttributesCacheGenerator_local_slotsP21CustomAttributesCache
ejc:__Z13RegisterClassIN2UI13RectTransformEEvv
xo:FUNCTION_TABLE_iiiii
O5j:__ZL56PlayableGraph_t3515989261_CustomAttributesCacheGeneratorP21CustomAttributesCache
Qmc:__ZL31MeshRendererTransformChangedJobP13BoundsJobDatajPK23TransformAccessReadOnlyPKyj
Rpf:__ZN11UnityEngine15PlatformWrapper19GetPhysicalMemoryMBEv
c8f:_Char_System_IConvertible_ToByte_m2347554595_AdjustorThunk
y8l:__ZNK15dense_hashtableINSt3__24pairIK10KeyWrapperINS1_IPK12PropertyInfoP11Il2CppClassEEEjEES9_17ReflectionMapHashIS8_EN14dense_hash_mapIS9_jSD_NS9_14EqualsComparerINS0_8equal_toIS8_EEEENS0_9allocatorISB_EEE9SelectKeyESI_SK_E12test_deletedERK30dense_hashtable_const_iteratorISB_S9_SD_SM_SI_SK_E
x4j:__ZL59TooltipAttribute_t3957072629_CustomAttributesCacheGeneratorP21CustomAttributesCache
Tjb:__ZN10VertexData8TransferI17RemapPPtrTransferEEvRT_
Y6c:__Z20UpdateWholeSheet2TplIL27ParticleSystemCurveEvalMode0ELS0_2EEvfRK11MinMaxCurveS3_RK23ParticleSystemParticlesPf
JWl:__ZN15dense_hashtableINSt3__24pairIK10KeyWrapperIPK11Il2CppClassEPKcEES6_N6il2cpp5utils11PointerHashIS3_EEN14dense_hash_mapIS6_S9_SE_NS6_14EqualsComparerINS0_8equal_toIS5_EEEENS0_9allocatorISA_EEE9SelectKeyESJ_SL_E13set_empty_keyERKSA_
s$h:_String_CreateString_m860434552
Xpa:__Z18GetDirectorManagerv
iah:_Enumerator_System_Collections_IEnumerator_Reset_m278261807_AdjustorThunk
QBk:_Collection_1_GetEnumerator_m1824095167_gshared
uMj:__ZL107CriticalFinalizerObject_t701527852_CustomAttributesCacheGenerator_CriticalFinalizerObject__ctor_m3245424448P21CustomAttributesCache
nmg:_Int32_Equals_m2976157357_AdjustorThunk
jFc:__Z38Transform_CUSTOM_INTERNAL_get_rotationP12Il2CppObjectP11Quaternionf
B2j:__ZL99SceneManager_t2787271929_CustomAttributesCacheGenerator_SceneManager_LoadScene_m2298600132____mode1P21CustomAttributesCache
Jem:__ZNK15dense_hashtableINSt3__24pairIK10KeyWrapperIP11Il2CppClassES4_EES5_N6il2cpp8metadata16SZArrayClassHashEN14dense_hash_mapIS5_S4_SA_NS5_14EqualsComparerINS9_19SZArrayClassCompareEEENS0_9allocatorIS7_EEE9SelectKeyESE_SG_E3endEv
uid:__ZN16b2StackAllocator4FreeEPv
hih:_SoapAttribute_get_XmlNamespace_m859394681
x7l:__ZNK15dense_hashtableINSt3__24pairIK10KeyWrapperINS1_IPK10MethodInfoP11Il2CppClassEEEjEES9_17ReflectionMapHashIS8_EN14dense_hash_mapIS9_jSD_NS9_14EqualsComparerINS0_8equal_toIS8_EEEENS0_9allocatorISB_EEE9SelectKeyESI_SK_E5beginEv
hml:_X509ExtensionCollection_System_Collections_IEnumerable_GetEnumerator_m1475785462
NFa:__ZN7ApiGLES19UploadBufferSubDataEjN2gl12BufferTargetEllPKv
BOl:_SkeletonBone_t4134054672_marshal_pinvoke_cleanup
_re:__ZN5physx2Sc5Scene17createClothSolverEv
hsa:__ZNSt3__216__rotate_forwardINS_11__wrap_iterIPN4core12basic_stringIcNS2_20StringStorageDefaultIcEEEEEEEET_S9_S9_S9_
Dyi:_Vector2_GetHashCode_m3916089713
Una:__ZdaPv
$7d:__ZNK5physx15PxsParticleData16getMaxParticlesVEv
mvi:_SendMouseEvents_HitTestLegacyGUI_m579942228
Nt:__ZN7mecanim12statemachine20StateMachineConstant8TransferI14SafeBinaryReadEEvRT_
pxg:_MulticastDelegate_Equals_m2502840627
SUh:_SymmetricAlgorithm_set_KeySize_m3805756466
JWe:__ZThn116_N5physx7profile8ZoneImplINS_28PxProfileNameProviderForwardEE12removeClientERNS_19PxProfileZoneClientE
Wmk:__ZL70ValueProperty_t1868393739_CustomAttributesCacheGenerator_m_CustomValueP21CustomAttributesCache
wxe:__ZN15MBP_PairManager17removeMarkedPairsEPK10MBP_ObjectPN5physx16PxsBroadPhaseMBPERK8BitArrayS8_
z7f:_Byte_System_IConvertible_ToUInt32_m1049546902_AdjustorThunk
ACf:_U3CDelayUpdateU3Ec__Iterator0_System_Collections_IEnumerator_get_Current_m2906633870
jmj:__Z53RuntimeInvoker_Double_t594665363_Interval_t1802865632PFvvEPK10MethodInfoPvPS4_
sYb:__Z21InitializeBatchedJobsv
zMl:_CanvasGroup_get_blocksRaycasts_m1805542303
ATh:_SHA1Internal_ProcessBlock_m1991889327
hFb:__Z19TransferField_ArrayI14SafeBinaryRead27Converter_SimpleNativeClassI8GUIStyleEEvRK23StaticTransferFieldInfoR31RuntimeSerializationCommandInfoRT0_
RSb:__ZN9TextAsset23VirtualRedirectTransferER19StreamedBinaryWriteILb0EE
Pjm:__ZN15dense_hashtableINSt3__24pairIK10KeyWrapperIP14Il2CppIUnknownEjEES5_N6il2cpp5utils11PointerHashIS3_EEN14dense_hash_mapIS5_jSB_NS5_14EqualsComparerINS0_8equal_toIS4_EEEENS0_9allocatorIS7_EEE9SelectKeyESG_SI_ED2Ev
stk:_Array_Sort_TisRuntimeObject_TisRuntimeObject_m1685639929_gshared
VPi:_TimerCallback_Invoke_m1938221087
fTl:_MainModule_get_startLifetime_m2343501481
o8a:__ZN14RenderSettings5ResetEv
Ghc:__ZN6Sprite9BindAtlasERK4PPtrI11SpriteAtlasE
TKc:__ZN5Unity9rapidjson12GenericValueINS0_4UTF8IcEE13JSONAllocatorE10FindMemberIS4_EENS0_21GenericMemberIteratorILb0ES3_S4_EERKNS1_IS3_T_EE
r$d:__ZN5physx9NpPhysics33unregisterDeletionListenerObjectsERNS_18PxDeletionListenerEPKPKNS_6PxBaseEj
fXg:_InternalEnumerator_1_System_Collections_IEnumerator_get_Current_m3892960115_AdjustorThunk
T5d:__ZNK5physx2Sc9ClothCore22getAngularInertiaScaleEv
IAl:_SymmetricTransform_Finalize_m4129642865
TPh:_CaptureCollection_CopyTo_m3566922817
qWf:_MonoEventInfo_t346866618_marshal_pinvoke_cleanup
fCg:_HMAC_HashCore_m3684104066
rLc:__ZN5Unity9rapidjson13GenericReaderINS0_4UTF8IcEES3_13JSONAllocatorE11ParseNumberILj1ENS0_25GenericInsituStringStreamIS3_EENS0_15GenericDocumentIS3_S4_S4_EEEEvRT0_RT1_
Sv:__ZN19StreamedBinaryWriteILb0EE21TransferSTLStyleArrayI22OffsetPtrArrayTransferIN7mecanim8skeleton19SkeletonMaskElementEEEEvRT_17TransferMetaFlags
aTd:__ZN5physx20NpRigidActorTemplateINS_18PxArticulationLinkEE12setActorFlagENS_11PxActorFlag4EnumEb
gpb:__ZN14SpriteRenderer14OnChangeSpriteEv
UEk:_Collection_1_RemoveItem_m2911050674_gshared
daj:__Z79RuntimeInvoker_UInt16_t2177724958_RuntimeObject_Int32_t2950945753_RuntimeObjectPFvvEPK10MethodInfoPvPS4_
gqm:__ZN6il2cpp2os10ThreadImplD2Ev
Sdd:__ZN12b2MouseJoint23InitVelocityConstraintsERK12b2SolverData
mMc:__ZN8Gradient8TransferI9JSONWriteEEvRT_
veh:_ContextCallbackObject__ctor_m3499682402
_Fl:_AudioSource_set_clip_m31653938
gak:__ZL81TextEditor_t2759855366_CustomAttributesCacheGenerator_TextEditor__ctor_m242049450P21CustomAttributesCache
Yfg:_Convert_ToBoolean_m2833621053
GWa:__ZNK12TLSAllocatorI14StackAllocatorE22GetAllocatedMemorySizeEv
zw:__ZN7mecanim6memory16ChainedAllocator8AllocateEjj
NXj:__ZL62WebHeaderCollection_t1942268960_CustomAttributesCacheGeneratorP21CustomAttributesCache
$uc:__Z32GetSceneHierarchyPathDescriptivePK6Object
H3i:_EqualityComparer_1_System_Collections_IEqualityComparer_GetHashCode_m2138064395_gshared
yY:__ZNK7WeakPtrI20SoundChannelInstanceE10SharedData9GetRawPtrEv
nAb:__ZN12HandlerChain4NameEv
tFf:_FloatTween_t1274330004_marshal_pinvoke
bbd:__ZN11UnityEngine9Analytics18RenderingInfoEventD0Ev
Mjg:_Int16_System_IConvertible_ToType_m3672347013_AdjustorThunk
Fpg:_EndOfStreamException__ctor_m1590165188
Jn:FUNCTION_TABLE_fiiiiiifiiiiiif
SXh:_SecurityException_ToString_m3228070608
wlg:_Int16_ToString_m2013897809
LGe:__ZN5physx37setupFinalizeSolverConstraintsCoulombERNS_13PxcNpWorkUnitERKNS_2Gu13ContactBufferERKNS_27PxcCorrelationBufferCoulombERKNS_11PxTransformESB_bPhRKNS_13PxcSolverBodyESF_RKNS_17PxcSolverBodyDataESI_ffjffff
UXh:_String_Substring_m2848979100
$lf:__Z44Register_UnityEngine_CanvasRenderer_get_cullv
MTl:__ZN15dense_hashtableINSt3__24pairIK10KeyWrapperIPK22Il2CppGenericParameterEP11Il2CppClassEES6_N6il2cpp5utils11PointerHashIS4_EEN14dense_hash_mapIS6_S9_SE_NS6_14EqualsComparerINS0_8equal_toIS5_EEEENS0_9allocatorISA_EEE9SelectKeyESJ_SL_ED2Ev
Ixk:_ScriptableObject_CreateInstance_TisRuntimeObject_m1552711675_gshared
PXh:_SecurityException_get_PermissionType_m2237538728
LHl:__ZL24UnresolvedVirtualCall_86P12Il2CppObjectxS0_xPK10MethodInfo
hfc:__Z29StdTemplateConversionFunctionIbbEbPvR14SafeBinaryRead
H1j:__ZL83Texture_t3661962703_CustomAttributesCacheGenerator_Texture_get_wrapMode_m2187367613P21CustomAttributesCache
upf:__ZN11UnityEngine7Connect17XRDeviceInfoEvent12XRDeviceInfoD2Ev
jDb:__Z44InitializeTransferFunctionScriptingTraitsForI17RemapPPtrTransferEvR31TransferFunctionScriptingTraits
hij:__Z54RuntimeInvoker_DateTime_t3738529785_Single_t1397266774PFvvEPK10MethodInfoPvPS4_
Nqb:__ZNSt3__26vectorI17SubstanceEnumItemNS_9allocatorIS1_EEE6assignINS_11__wrap_iterIPS1_EEEENS_9enable_ifIXaasr21__is_forward_iteratorIT_EE5valuesr16is_constructibleIS1_NS_15iterator_traitsISA_E9referenceEEE5valueEvE4typeESA_SA_
Njc:__ZNSt3__26vectorI16MessageForwarder13stl_allocatorIS1_L18MemLabelIdentifier7ELi8EEE6resizeEj
_Nh:_X509Chain_SelectBestFromCollection_m1068759221
RAl:_SymmetricTransform_TransformBlock_m851059707
lVc:__Z19UpdateProceduralTplIL27ParticleSystemCurveEvalMode4EEvRK20DualMinMaxPolyCurvesR23ParticleSystemParticlesPfRKN4math7_float4E
KJk:_Collection_1_System_Collections_IList_get_IsReadOnly_m2978442176_gshared
pyk:_Enumerator_System_Collections_IEnumerator_Reset_m2261065994_AdjustorThunk
kwh:_ScrollRect_get_verticalNormalizedPosition_m3693218937
xwe:__ZN5physx31ComputeCreatedDeletedPairsListsEPKjS1_jRPNS_17PxcBroadPhasePairERjS5_S4_S5_S5_RNS_14SapPairManagerE
Qvb:__ZN18LoadSceneOperation21MustCompleteNextFrameEv
wyh:_Slider_UpdateDrag_m1102107039
tXf:_MonoMethodInfo_get_method_info_m88651774
AX:__ZNK12AudioManager16GetAudioListenerEv
Jlg:_Int32_System_IConvertible_ToDateTime_m1824716955
BZi:_Dictionary_2_System_Collections_Generic_ICollectionU3CSystem_Collections_Generic_KeyValuePairU3CTKeyU2CTValueU3EU3E_CopyTo_m331407443_gshared
Wyg:_RuntimeTypeHandle__ctor_m3315980708_AdjustorThunk
aRj:__ZL69IIdentityPermissionFactory_t3268650966_CustomAttributesCacheGeneratorP21CustomAttributesCache
eMl:_Canvas_set_overrideSorting_m4088794420
xli:_GameObject_BroadcastMessage_m217296818
vac:__ZNSt3__26vectorI11CameraStackNS_9allocatorIS1_EEE8__appendEj
p1i:_DefaultComparer_Equals_m2585095694_gshared
Abd:__ZNK11Rigidbody2D20GetAttachedCollidersER13dynamic_arrayIP10Collider2DLj4EE
zBe:__ZN5physx2Gu16pcmContactBoxBoxERKNS0_13GeometryUnionES3_RKNS_11PxTransformES6_RKfRNS0_5CacheERNS0_13ContactBufferE
Kmi:_Logger_set_filterLogType_m3622751173
Mvl:_UnityEvent_1_GetDelegate_m25714567_gshared
RE:__ZN7mecanim9animation12GetHumanPoseERKNS0_18ClipMuscleConstantEPKNS0_10ValueDeltaERNS_5human9HumanPoseE
vnf:__ZN11UnityEngine9Analytics15UserCustomEvent12CustomParams6InsertEPKcRNS1_11CustomValueE
HG:__ZN22AnimationMixerPlayable17ProcessRootMotionEP35AnimationPlayableEvaluationConstantP32AnimationPlayableEvaluationInputP33AnimationPlayableEvaluationOutput
$_i:_Dictionary_2__ctor_m518943619_gshared
IMb:__Z29Transfer_Blittable_ArrayFieldI19StreamedBinaryWriteILb0EEjEvRT_R9ArrayInfoRK23StaticTransferFieldInfo
Jca:__Z13GetFileSystemv
Hnc:__ZZL23RegisterLightPropertiesR22GenericPropertyBindingEN29Wrapper_LightColorTemperature13SetFloatValueEPvf
Xma:__ZNK5Unity4Type21FindAllDerivedClassesER13dynamic_arrayIPKS0_Lj4EENS0_17TypeFilterOptionsE
Qna:__ZN13RuntimeStaticI15GUIEventManagerLb0EE16StaticInitializeEPv
aqb:__ZN14SafeBinaryRead8TransferIfEEvRT_PKc17TransferMetaFlags
nRb:__ZL12InvokeMethodI18StreamedBinaryReadILb0EEEvRK29SerializationCommandArgumentsR31RuntimeSerializationCommandInfo
KVe:__ZN15RaycastCallback14processTouchesEPKN5physx12PxRaycastHitEj
vWi:_Version_CompareTo_m3146217210
Ged:__ZN24RigidbodyMovementState2D21ResetAngularMoveStateEv
jTl:_MainModule_GetStartLifetimeMultiplier_m2481667184
kpb:__ZThn32_N14SpriteRenderer15AddAsRenderNodeER15RenderNodeQueueRK20DeprecatedSourceData
$_c:__Z32TransferEnumWithNameForceIntSizeI14SafeBinaryReadN15CollisionModule4ModeEEvRT_RT0_PKc17TransferMetaFlags
qIi:_Array_InternalArray__ICollection_CopyTo_TisKeyValuePair_2_t71524366_m1056941380_gshared
TNe:__ZN5physx2Gu5RTree15exportExtraDataERNS_22PxSerializationContextE
IRi:_Type_get_IsClass_m589177581
URi:_Type_get_IsSystemType_m624798880
z1:__ZN11UnityEngine15CloudWebService14DataDispatcher19OnDataBlockConsumedEv
DCb:__ZN19ShaderPropertySheet9SetMatrixEN9ShaderLab16FastPropertyNameERK10Matrix4x4fNS_8SetFlagsE
Yfb:__Z29GetTextureSizeAllowedMultiple13TextureFormat
hre:__ZNK5physx2Sq10AABBPruner7overlapERKNS0_9ShapeDataERNS0_14PrunerCallbackE
c6h:_Decimal_Subtract_m835601464
PZb:__ZZ23InitPlayerLoopCallbacksvEN52InitializationAsyncUploadTimeSlicedUpdateRegistrator7ForwardEv
tlj:__Z73RuntimeInvoker_Boolean_t97287965_RuntimeObject_IPv6AddressU26_t3285609463PFvvEPK10MethodInfoPvPS4_
mri:_Quaternion_Internal_ToEulerRad_m1503250752
mPh:_X509ExtensionCollection_get_IsSynchronized_m2607599544
jpc:__ZN21IntermediateRenderers3AddEP20IntermediateRenderer
LAc:__Z46Register_UnityEngine_Gizmos_INTERNAL_set_colorv
tge:__ZN5physx6shdfnd5ArrayIPvNS0_19ReflectionAllocatorINS_2Gu30LargePersistentContactManifoldEEEE4copyINS0_15InlineAllocatorILj256ES6_EEEEvRKNS1_IS2_T_EE
a3j:__ZL93Transform_t3600365921_CustomAttributesCacheGenerator_Transform_LookAt_m3639503211____worldUp1P21CustomAttributesCache
LDj:__ZL62ComVisibleAttribute_t1362837655_CustomAttributesCacheGeneratorP21CustomAttributesCache
l2k:_List_1_System_Collections_IEnumerable_GetEnumerator_m1824431956_gshared
Qti:_RectTransform_INTERNAL_set_sizeDelta_m188783163
Qg:_glCheckFramebufferStatus
Kym:__ZN6il2cpp2os11EventHandle4WaitEv
LPg:_U3CGetEnumeratorU3Ec__Iterator0_System_Collections_Generic_IEnumeratorU3CTU3E_get_Current_m9057020_gshared
SRl:_CustomEventData__ctor_m4146403782
C4:__ZN19CloudServiceHandler20StartEventDispatcherERKN11UnityEngine15CloudWebService18CloudServiceConfigERNS1_23WebRequestRestHeaderMapE
uJf:_GraphicRaycaster__ctor_m646559428
jJe:__ZN5physx2Cm12DelegateTaskINS_2Sc5SceneEXadL_ZNS3_19updateCCDSinglePassEPNS_10PxBaseTaskEEEE11runInternalEv
xIg:_CipherSuite_get_CipherAlgorithmType_m137858741
nDd:__ZN5physx6string9sprintf_sEPcjPKcz
Ydd:__ZNK15b2DistanceJoint17GetReactionTorqueEf
NQe:__ZThn8_N5physx19TriangleMeshBuilderD1Ev
Wbg:_BitArrayEnumerator_get_Current_m4220391712
JMf:__Z37il2cpp_codegen_get_executing_assemblyPK10MethodInfo
GJh:_HttpWebRequest_GetServicePoint_m2640244283
oui:_Transform_get_parent_m835071599
SAk:_Collection_1_System_Collections_IList_Remove_m3686118478_gshared
rwd:__ZN5physx2Gu16intersectRayAABBERKNS_6PxVec3ES3_S3_S3_RfS4_
Nzb:__ZN9Transform23VirtualRedirectTransferER17RemapPPtrTransfer
eKh:_IPAddress_get_ScopeId_m4237202723
nw:__ZN4core8hash_mapIN11UnityEngine9Animation14GenericBindingENS2_10BoundIndexENS2_25GenericBindingHashFunctorENS2_30GenericBindingValueArrayUniqueEE4growEi
cE:__ZN21AnimationClipPlayable7SetTimeEd
Tol:_ExpressionCollection_get_Item_m3510736379
h3k:_List_1_System_Collections_ICollection_CopyTo_m533028599_gshared
whk:__ZL62FontData_t746620069_CustomAttributesCacheGenerator_m_AlignmentP21CustomAttributesCache
YAf:_StandaloneInputModule_get_inputActionsPerSecond_m3946624274
FNi:_UTF8Encoding_InternalGetCharCount_m82458470
Ryi:_Vector2__cctor_m2108982652
xpj:__Z72RuntimeInvoker_Boolean_t97287965_Vector4_t3319028937_Vector4_t3319028937PFvvEPK10MethodInfoPvPS4_
snc:__ZZL23RegisterLightPropertiesR22GenericPropertyBindingEN22Wrapper_LightIntensity13GetFloatValueEPv
mw:__ZN4core8hash_mapIN11UnityEngine9Animation14GenericBindingENS2_10BoundIndexENS2_25GenericBindingHashFunctorENS2_30GenericBindingValueArrayUniqueEE4growEv
K_g:_InternalEnumerator_1_MoveNext_m2734554195_AdjustorThunk
TGe:__ZN5physx30setupFinalizeSolverConstraintsERNS_13PxcNpWorkUnitERKNS_2Gu13ContactBufferERKNS_20PxcCorrelationBufferERKNS_11PxTransformESB_bPhRKNS_13PxcSolverBodyESF_RKNS_17PxcSolverBodyDataESI_ffffff
Sjm:__ZN14dense_hash_mapI10KeyWrapperIP14Il2CppIUnknownEjN6il2cpp5utils11PointerHashIS1_EENS3_14EqualsComparerINSt3__28equal_toIS2_EEEENS9_9allocatorINS9_4pairIKS3_jEEEEE15set_deleted_keyERSF_
ina:__ZN22BuiltinResourceManager16StaticInitializeEPv
OC:__ZN7mecanim4hand8HandPose8TransferI19StreamedBinaryWriteILb0EEEEvRT_
gYd:__ZN5physx7NpScene17releaseBatchQueryEPNS_12PxBatchQueryE
Mfm:__ZN6il2cpp2gc9AllocatorIP12Il2CppThreadE10deallocateEPvj
Afd:__ZN24b2ChainAndCapsuleContact8EvaluateEP10b2ManifoldRK11b2TransformS4_
bam:__ZN13Il2CppHashMapIPK14Il2CppAssemblyPK22Il2CppMonoAssemblyNameN6il2cpp5utils11PointerHashIS1_EENSt3__28equal_toIS2_EENSA_9allocatorINSA_4pairIK10KeyWrapperIS2_ES5_EEEEEC2EjRKS9_RKSC_
kGe:__ZN5physx26solveVBlockDefaultFrictionEPNS_13PxsSolverCoreEfjjPNS_13PxcSolverBodyEPNS_17PxcSolverBodyDataEjjPNS_25PxcArticulationSolverDescEjPNS_23PxcSolverConstraintDescEjS9_jRNS_6shdfnd5ArrayINS_24PxsConstraintBatchHeaderENSA_19ReflectionAllocatorISC_EEEESG_PNS_2Cm13SpatialVectorEPNS_25PxcThresholdStreamElementEjRj
t2f:_DelegatePInvokeWrapper_AppDomainInitializer_t682969308
gjd:__ZN13BoxCollider2D13PrepareShapesER13dynamic_arrayIP7b2ShapeLj4EERK10Matrix4x4f
wWd:__ZN5physx15NpActorTemplateINS_18PxArticulationLinkEE17resolveReferencesERNS_24PxDeserializationContextE
Cz:__ZN14AnimationEvent8TransferI14SafeBinaryReadEEvRT_
Qba:__ZN8Remapper6RemoveEi
mvl:_UnityEvent_1__ctor_m3777630589_gshared
One:__ZN5physx19NpRigidBodyTemplateINS_18PxArticulationLinkEE9visualizeERNS_2Cm12RenderOutputEPNS_7NpSceneE
sve:__ZN5physx11writeBack1DERKNS_23PxcSolverConstraintDescERNS_16PxcSolverContextERNS_17PxcSolverBodyDataES6_
GKi:_Encoding_GetBytes_m3148649984
zff:__ZL36CleanupTextRenderingScriptingClassesv
Trd:__ZThn4_N16RayRTreeCallbackILi0ELb0EED0Ev
Nac:__ZN15ReflectionProbe17UseRendererResultEP13ProbeRenderer
VGc:__Z34Mesh_CUSTOM_SetArrayForChannelImplP12Il2CppObject30InternalScriptingShaderChannel34InternalScriptingVertexChannelTypeiP11Il2CppArrayi
Haa:__Z32scripting_class_get_nested_types17ScriptingClassPtrRNSt3__26vectorIS_13stl_allocatorIS_L18MemLabelIdentifier1ELi16EEEE
HMl:_CanvasRenderer_INTERNAL_CALL_EnableRectClipping_m3318097918
ZUi:_UInt64_System_IConvertible_ToDecimal_m806594027_AdjustorThunk
H3g:_Enumerator_System_Collections_IEnumerator_get_Current_m361750367_AdjustorThunk
Tvl:_UnityEvent_1_GetDelegate_m274387680_gshared
P4g:_Enumerator_get_CurrentValue_m3103267885_gshared
q$k:_List_1__ctor_m3395838871_gshared
rci:_CultureInfo_get_Parent_m672689885
Q0j:__ZL93AnimationCurve_t3046754366_CustomAttributesCacheGenerator_AnimationCurve_Evaluate_m2125563588P21CustomAttributesCache
Gme:__ZNK5physx2Sc5Scene20getNbParticleSystemsEv
r1i:_DefaultComparer_GetHashCode_m2651362016_gshared
Djl:_PKCS12__ctor_m1854440921
Rsk:_Array_Resize_TisCustomAttributeNamedArgument_t287865710_m885566878_gshared
Ypk:__ZL96WaypointCircuit_t445075330_CustomAttributesCacheGenerator_WaypointCircuit_set_Length_m3598215014P21CustomAttributesCache
ljj:__Z85RuntimeInvoker_RuntimeObject_RuntimeObject_SByte_t1669577662_ExceptionU26_t3600731591PFvvEPK10MethodInfoPvPS4_
X$i:_DefaultComparer__ctor_m2556554241_gshared
rO:__ZN11UnityEngine9Animation28GenericAnimationBindingCache25RegisterIAnimationBindingEPKN5Unity4TypeEiP17IAnimationBinding
nqe:__ZN5physx2Gu17GetGeomSweepFuncsEv
dMd:__ZN5physx6shdfnd8PoolBaseINS_15PxsArticulationENS0_16AlignedAllocatorILj64ENS0_9AllocatorEEEE17releaseEmptySlabsEv
zpg:_DirectoryInfo__ctor_m481305441
PIm:dynCall_viiffiii
nPh:_X509ExtensionCollection_get_SyncRoot_m2667861032
CUl:__ZN6il2cpp2vm5Class15GetElementClassEP11Il2CppClass
ela:__ZN10MemoryPoolC2E10MemLabelIdbPKciii
w7d:__ZN5physx22NpParticleBaseTemplateINS_15PxParticleFluidENS_15NpParticleFluidEE23setParticleReadDataFlagENS_22PxParticleReadDataFlag4EnumEb
vGk:_Collection_1_SetItem_m941095285_gshared
dnf:__ZN14UnityAnalytics25UnregisterGlobalCallbacksEv
n9b:__Z40ProcessCameraIndexListIsNodeVisibleInOutRK22SceneCullingParametersPK9SceneNodePK4AABBR9IndexList
Mzl:_GUIScrollGroup_SetHorizontal_m291416666
m5a:__ZN16GraphicsSettings8TransferI17RemapPPtrTransferEEvRT_
Gjf:__ZN2UI6Canvas13UpdateBatchesEb
WLh:_X509BasicConstraintsExtension_Decode_m120598446
NJ:__ZNK23AnimationPlayableOutput11DerivesFromE17ScriptingClassPtr
Yeb:__ZN7Texture19SupportsAsyncUploadI19StreamedBinaryWriteILb0EEEEbRT_
ipj:__Z49RuntimeInvoker_Boolean_t97287965_Rect_t2360479859PFvvEPK10MethodInfoPvPS4_
ENm:_glGetShaderInfoLog__wrapper
P2j:__ZL101Transform_t3600365921_CustomAttributesCacheGenerator_Transform_INTERNAL_get_localRotation_m1111330565P21CustomAttributesCache
_0d:__ZN5physx2Gu5Debug9visualizeERKNS_13PxBoxGeometryERNS_2Cm12RenderOutputERKNS5_8Matrix34ERKNS_9PxBounds3Eyfj
Sij:__Z51RuntimeInvoker_UInt32_t2560061978_Int16_t2552820387PFvvEPK10MethodInfoPvPS4_
JAa:__ZNK13GfxDeviceGLES12GetWireframeEv
ZAl:_DelegatePInvokeWrapper_Action_t1264377477
oqd:__ZN5physx6shdfnd5ArrayIPKvNS0_19ReflectionAllocatorIS3_EEE6resizeEjRKS3_
Kqf:__ZN11UnityEngine7Connect13ConfigHandler12GetListenersERKN4core12basic_stringIcNS2_20StringStorageDefaultIcEEEE
rCa:__ZN9GfxDevice18AllocRenderSurfaceEb
W7f:_Char__cctor_m2787437263
ZGe:__ZN5physx31setupFinalizeSolverConstraints4EPNS_21PxcSolverContact4DescERNS_18PxcNpThreadContextEPhffRKNS_6shdfnd3aos5Vec4VES9_S9_S9_
Hie:__ZN5physx7NpScene5flushEb
zhc:__ZN10TagManager32GetSortingLayerUniqueIDFromValueEi
mpf:__ZN11UnityEngine7Connect15DeviceInfoEvent7GFXInfoD2Ev
lCf:_AspectRatioFitter_get_rectTransform_m2996235303
uaa:__ZL27CleanupCoreScriptingClassesv
Uci:_DateTimeFormatInfo_get_IsReadOnly_m1173781646
pdi:_NumberFormatInfo_get_PercentPositivePattern_m1800841633
l7c:__Z19UpdateSingleRow2TplIL27ParticleSystemCurveEvalMode2ELS0_1EEvfRK11MinMaxCurveS3_RK23ParticleSystemParticlesPfbiii
Xqd:__ZN5physx2Gu13GeometryUnion3setERKNS_10PxGeometryE
Y4g:_Enumerator_VerifyCurrent_m3071620407_AdjustorThunk
gBd:__ZThn8_N5physx3Cct17CapsuleController15getPxControllerEv
K2g:_Comparer_1_System_Collections_IComparer_Compare_m1313384821_gshared
vrh:_LayoutRebuilder_GetHashCode_m1943075341
eSf:_GenericTypeParameterBuilder_MakeGenericType_m3048165991
zCc:__Z26AnimationCurve_CUSTOM_InitP12Il2CppObjectP11Il2CppArray
xRm:_glUniform1uiv__wrapper
Jfd:__ZNK14b2PolygonShape5CloneEP16b2BlockAllocator
O9l:__ZN6il2cpp2vm10Reflection7IsEventEP12Il2CppObject
ZBm:__ZNSt3__26__treeINS_12__value_typeIPFvvEPK10MethodInfoEENS_19__map_value_compareIS3_S7_NS_4lessIS3_EELb1EEENS_9allocatorIS7_EEE16__insert_node_atEPNS_16__tree_node_baseIPvEERSI_SI_
h9:__ZN17PersistentManager26GetStreamNameSpaceInternalEi
wR:__ZN4FMOD6System11createSoundEPKcjP22FMOD_CREATESOUNDEXINFOPPNS_5SoundE
sp:FUNCTION_TABLE_iiifiiii
O_g:_InternalEnumerator_1_System_Collections_IEnumerator_Reset_m1451164462_AdjustorThunk
w1e:__ZN13SpeedTreeWind20AdvanceWithoutUpdateEd
kKk:_ReadOnlyCollection_1_System_Collections_Generic_ICollectionU3CTU3E_Add_m1422506275_gshared
y1h:_DateTime_System_IConvertible_ToDecimal_m1044850612
Y_k:_List_1_IndexOf_m2206067159_gshared
KNh:_X509Store_get_Factory_m3282910266
bXe:__ZThn128_N5physx7profile8ZoneImplINS_28PxProfileNameProviderForwardEED1Ev
Jla:__ZN9ShaderLab19CommonPropertyNames13StaticCleanupEPv
iba:__Z31scripting_method_get_returntype18ScriptingMethodPtr
Dre:__ZN5physx2Sq17AABBTreeUpdateMap10invalidateEjjRNS0_8AABBTreeE
BHl:__ZL24UnresolvedVirtualCall_76P12Il2CppObjectPK10MethodInfo
rhb:__ZN15SerializeTraitsI12LightmapDataE8TransferI24GenerateTypeTreeTransferEEvRS0_RT_
nWh:_SecurityElement_AddAttribute_m311510562
iTl:_MainModule_get_startLifetimeMultiplier_m1798732576
mGe:__ZN5physx28solveParallelDefaultFrictionERNS_18PxsDynamicsContextEjjPNS_13PxcSolverBodyEPNS_17PxcSolverBodyDataEjjPNS_25PxcArticulationSolverDescEjPNS_23PxcSolverConstraintDescEjS9_jPiSA_SA_SA_SA_SA_PNS_25PxcThresholdStreamElementEjSA_PNS_2Cm13SpatialVectorEPKPNS_11PxsBodyCoreERNSD_10BitMapBaseINS_6shdfnd9AllocatorEEEPKPNS_15PxsArticulationEjPViRNSL_5ArrayINS_24PxsConstraintBatchHeaderENSL_19ReflectionAllocatorISW_EEEES10_RNSV_IjNSX_IjEEEES13_PPNS_12PxsRigidBodyEj
KNm:_glStencilOpSeparate__wrapper
Jsc:__ZN4Mesh5SetUvEiPKfjj
sib:__ZN7Texture13SetAnisoLimitENS_20AnisotropicFilteringE
wZ:__ZN11AudioModule16SetListenerPauseEb
d5f:_Attribute_IsDefined_m4069052474
Ki:_emscripten_glCompressedTexSubImage2D
bPa:__ZN13GfxDeviceGLES22MemoryBarrierImmediateEyN2gl17MemoryBarrierTypeE
Lm:_abort
Oph:_U3CCaretBlinkU3Ec__Iterator0_Dispose_m860898205
JMa:__ZN6prcoreL26RemapGenericFloatToIntegerI18TexFormatARGBFloat17TexFormatARGB8888EEvPKNS_9InnerInfoE
I8k:_List_1_set_Capacity_m1977188119_gshared
ahl:_WaypointCircuit_DrawGizmos_m3455125382
Mwc:__Z46GetShaderModelNumericValueFromRequirementsMask18ShaderRequirements
fNi:_UTF7Encoding_InternalGetBytes_m797138468
i5e:_cff_ps_has_glyph_names
pcl:_VirtualAxis_set_matchWithInputManager_m970412838
SQe:__ZN5physx15writeWordBufferEPKtjbRNS_14PxOutputStreamE
sNl:_Animation_Play_m2798573761
F$i:_Dictionary_2_Resize_m3287623642_gshared
nvm:_GC_write
SFj:__ZL69RuntimeArray_CustomAttributesCacheGenerator_Array_SetValue_m394135409P21CustomAttributesCache
aDg:_RC2_Create_m2516417038
UO:__ZN13ProduceHelperI9AnimationLb0EE7ProduceE10MemLabelId18ObjectCreationMode
pgl:_TimedObjectActivator__ctor_m2167871267
yCg:_HMACSHA512_set_ProduceLegacyHmacValues_m3961135292
kYi:_Dictionary_2_Remove_m4193450060_gshared
u0c:__ZN10SizeModule8TransferI17RemapPPtrTransferEEvRT_
GDh:_ASN1_get_Tag_m1032367219
_Cl:_StandardEventPayload_set_name_m549984672
Rfh:_ConstructionCallDictionary__ctor_m2541174073
Udh:_RemotingServices_IsTransparentProxy_m1535738947
Hrk:_Array_InternalArray__set_Item_TisMark_t3471605523_m1299772331_gshared
FKc:__Z44Register_UnityEngine_GUIStyle_SetDefaultFontv
dqm:__GLOBAL__sub_I_ThreadImpl_cpp
gNb:__Z18Transfer_BlittableI18StreamedBinaryReadILb1EELb1EiEvRK29SerializationCommandArgumentsR31RuntimeSerializationCommandInfo
nL:__ZN9BlobWrite8TransferI22OffsetPtrArrayTransferIKN4math7_float3EEEEvRT_PKc17TransferMetaFlags
vob:__ZN16MeshSkinningData14GetBoneWeightsEi
tdj:__Z173RuntimeInvoker_Int32_t2950945753_RuntimeObject_Int32_t2950945753_Int32_t2950945753_Int32_t2950945753_RuntimeObject_Int32_t2950945753_SByte_t1669577662_ContextU26_t3937453398PFvvEPK10MethodInfoPvPS4_
k1k:_List_1__ctor_m2576108087_gshared
C8l:__ZN15dense_hashtableINSt3__24pairIK10KeyWrapperINS1_IPK12PropertyInfoP11Il2CppClassEEEjEES9_17ReflectionMapHashIS8_EN14dense_hash_mapIS9_jSD_NS9_14EqualsComparerINS0_8equal_toIS8_EEEENS0_9allocatorISB_EEE9SelectKeyESI_SK_E12maybe_shrinkEv
SJd:__ZN5physx2Sc7BodySim37checkSleepReadinessBesidesWakeCounterEv
_jl:_X509Certificate_get_DSA_m565099499
HNb:__Z18Transfer_BlittableI18StreamedBinaryReadILb1EELb1EsEvRK29SerializationCommandArgumentsR31RuntimeSerializationCommandInfo
XLi:_StringBuilder_Remove_m940064945
WAg:_DESCryptoServiceProvider_GenerateIV_m683687014
y5i:_GenericComparer_1__ctor_m1900257738_gshared
f7c:__Z19UpdateSingleRow2TplIL27ParticleSystemCurveEvalMode1ELS0_2EEvfRK11MinMaxCurveS3_RK23ParticleSystemParticlesPfbiii
wib:__ZL21SetAnisoLimitEnumImplN7Texture20AnisotropicFilteringEb
Zof:__ZN22BaseUnityConnectClient17OnEnterStateReadyEv
Eae:__ZNK5physx22NpParticleBaseTemplateINS_16PxParticleSystemENS_16NpParticleSystemEE15getMaxParticlesEv
wXd:__ZN5physx2Sc16ArticulationCore14setWakeCounterEf
Rfe:__ZN5physx2Sc10NPhaseCore24createTriggerInteractionERNS0_8ShapeSimES3_NS_7PxFlagsINS_10PxPairFlag4EnumEtEE
mzh:_Text_get_fontSize_m1677872538
pBg:_DSACryptoServiceProvider_get_PublicOnly_m3933928860
dYj:__ZL63X509ChainStatusFlags_t1026973125_CustomAttributesCacheGeneratorP21CustomAttributesCache
x3a:__ZN14GrowableBufferD2Ev
yBc:__Z29Input_CUSTOM_GetMouseButtonUpi
Wsd:__ZN5physx2Gu12selectNormalEhff
fpl:_BackslashNumber__ctor_m3802423446
d2l:__ZN6il2cpp6icalls8mscorlib6System8MonoType16InternalGetEventEP20Il2CppReflectionTypeP12Il2CppStringi
ysl:_UriScheme_t722425697_marshal_pinvoke_back
a7e:_UNITY_tt_face_load_maxp
OBc:__Z46Input_CUSTOM_INTERNAL_set_compositionCursorPosRK13Vector2fIcall
XD:__ZN7mecanim5human12FullBodyMaskEv
e9d:__ZN5physx3Scb14ParticleSystem16releaseParticlesEjRKNS_16PxStrideIteratorIKjEE
pmk:__ZL62Shadow_t773074319_CustomAttributesCacheGenerator_m_EffectColorP21CustomAttributesCache
lCh:_BigInteger_ToString_m3475000413
Ppb:__ZN19ShaderPropertySheet11ComputeHashEv
qYl:__ZN30dense_hashtable_const_iteratorI10KeyWrapperIPK19Il2CppGenericMethodES4_N6il2cpp8metadata23Il2CppGenericMethodHashEN14dense_hash_setIS4_S7_NS4_14EqualsComparerINS6_26Il2CppGenericMethodCompareEEENSt3__29allocatorIS4_EEE8IdentityESB_SE_EppEv
Qle:__ZN5physx2Sc5Scene21processLostTouchPairsEv
ogd:__ZN12b2EPCollider24ComputePolygonSeparationEv
DOb:__ZN4PPtrI6ObjectE8TransferI18StreamedBinaryReadILb1EEEEvRT_
V2:__ZN11UnityEngine15CloudWebService20WebRequestRestClient6IsDoneEv
mql:_Group__ctor_m2980794822
xil:_X509CertificateCollection_get_Item_m1033426577
ntl:_CachedInvokableCall_1_Invoke_m502907382_gshared
Hj:_llvm_fabs_f32
y2:__ZN11UnityEngine15CloudWebService16SessionContainer16GetJsonDataBlockEjRKN4core12basic_stringIcNS2_20StringStorageDefaultIcEEEERS6_PjSA_
lKl:__ZL25UnresolvedVirtualCall_222P12Il2CppObjectiiPK10MethodInfo
PTe:__ZThn28_N14PhysicsManager7onSleepEPPN5physx7PxActorEj
CDh:_ASN1_Decode_m1695284166
Rz:__ZN7mecanim9animation18ClipMuscleConstant8TransferI14SafeBinaryReadEEvRT_
zam:__ZN15dense_hashtableINSt3__24pairIK10KeyWrapperIPK14Il2CppAssemblyEPK22Il2CppMonoAssemblyNameEES6_N6il2cpp5utils11PointerHashIS4_EEN14dense_hash_mapIS6_SA_SF_NS6_14EqualsComparerINS0_8equal_toIS5_EEEENS0_9allocatorISB_EEE9SelectKeyESK_SM_E13set_empty_keyERKSB_
fAe:__ZN5physx22PxcContactConvexConvexERKNS_2Gu13GeometryUnionES3_RKNS_11PxTransformES6_RKfRNS_10PxcNpCacheERNS0_13ContactBufferE
J9h:_Enum_ToString_m3248653065
msd:__ZNK5physx2Gu11ConvexHullV12HillClimbingERKNS_6shdfnd3aos5Vec3VE
Kfe:__ZNK5physx2Sc17ParticleSystemSim7getCoreEv
x9:__ZN14SafeBinaryReadD2Ev
fDi:_SetPropertyUtility_SetStruct_TisFillMethod_t1167457570_m4164776730_gshared
U8d:__ZN5physx2Sc18ParticleSystemCore10setDampingEf
Zic:__Z13RegisterClassI7TextureEvv
pXk:_Enumerator_MoveNext_m3859993671_gshared
XOb:__ZN8Gradient8TransferI18StreamedBinaryReadILb1EEEEvRT_
iFg:_SequentialSearchPrimeGeneratorBase_IsPrimeAcceptable_m1127740833
HPh:_Capture__ctor_m3103117740
ukb:__ZN4core8hash_mapINS_12basic_stringIcNS_20StringStorageDefaultIcEEEE13dynamic_arrayI4PPtrI6SpriteELj4EENS_4hashIS4_EENSt3__28equal_toIS4_EEEixERKS4_
rcj:__Z113RuntimeInvoker_Void_t1185182177_RuntimeObject_Int64_t3736567304_RuntimeObject_Int64_t3736567304_Int64_t3736567304PFvvEPK10MethodInfoPvPS4_
$Pg:_U3CGetEnumeratorU3Ec__Iterator0_Reset_m1192421843_gshared
CGd:__ZN5physx2Sc10NPhaseCore16deleteFilterPairEPNS0_10FilterPairE
Y2c:__ZN14ParticleSystem15ThreadedCleanupEv
Uri:_RangeInt_get_end_m4128831787_AdjustorThunk
mjm:__ZN6il2cpp6icalls8mscorlib6System4Type15MakeGenericTypeEP20Il2CppReflectionTypeP11Il2CppArray
GYe:_PxCreateBasePhysics
hk:_SDL_PauseAudio
Kdg:_Hashtable_Clone_m3078962909
Ncm:_il2cpp_class_from_type
g3l:__ZN6il2cpp2os4File11GetStdErrorEv
iUj:__ZL77Convert_t2465617642_CustomAttributesCacheGenerator_Convert_ToSByte_m516918950P21CustomAttributesCache
CKd:__ZN5physx2Sc5Scene28addActiveBreakableConstraintEPNS0_13ConstraintSimE
Ila:__ZN9ShaderLab19CommonPropertyNames16StaticInitializeEPv
zdl:_TouchPad_OnEnable_m2477527909
AZd:__ZN5physx6shdfnd8PoolBaseINS_16NpParticleSystemENS0_19ReflectionAllocatorIS2_EEE15disposeElementsEv
Vxb:__ZN13MemoryManager31DisallowAllocationsOnThisThreadEv
H1g:_Comparer_1__cctor_m2517796511_gshared
sN:__ZN7mecanim9animation18CreateAvatarOutputEPKNS0_14AvatarConstantEbbRNS_6memory9AllocatorE
xXe:__ZN5physx7profile11EventBufferINS_24PxDefaultContextProviderENS_6shdfnd6MutexTINS0_26WrapperReflectionAllocatorIhEEEENS0_14ScopedLockImplIS7_EENS_24PxProfileNullEventFilterEE10eventValueEtyx
wfl:_U3CFOVKickUpU3Ec__Iterator0_MoveNext_m1410072633
q3f:_Array_GetLongLength_m561139708
eYc:__Z14UpdateSpeedTplIL27ParticleSystemCurveEvalMode1EEvRK11MinMaxCurveR23ParticleSystemParticlesjj
cyh:_Slider_set_maxValue_m2251404465
Nyh:_SpriteState_get_pressedSprite_m3868967445_AdjustorThunk
sX:__ZN11AudioSource23VirtualRedirectTransferER24GenerateTypeTreeTransfer
csc:__ZN7Texture11SetWrapModeE15TextureWrapMode
_Ed:__ZThn12_NK5physx3Ext5JointINS_15PxDistanceJointENS_30PxDistanceJointGeneratedValuesEE19updatePvdPropertiesERNS_8debugger4comm13PvdDataStreamEPKNS_12PxConstraintENS_15PxPvdUpdateType4EnumE
Wnf:__ZN14UnityAnalytics15SendCustomEventERN11UnityEngine9Analytics15UserCustomEventE
Rkb:__ZN14Texture2DArray23VirtualRedirectTransferER14SafeBinaryRead
tvg:_MissingMemberException__ctor_m1220732369
v4b:__ZNK6Camera21CalculateCanDoShadowsEv
pke:__ZNK5physx2Sc5Scene17getBroadPhaseCapsERNS_16PxBroadPhaseCapsE
Zsj:__Z52RuntimeInvoker_Void_t1185182177_Int32U26_t1369213839PFvvEPK10MethodInfoPvPS4_
oWd:__ZN5physx9NpFactory14onActorReleaseEPNS_7PxActorE
jfi:_Application_InvokeOnBeforeRender_m2875673833
Rpm:__ZN6il2cpp2os6Thread12SetStackSizeEj
EMd:__ZN5physx2Sc5Actor15onElementAttachERNS0_7ElementE
Osh:_MaskableGraphic_RecalculateMasking_m183336762
Hwk:_Array_InternalArray__get_Item_TisRuntimeObject_m3347010206_gshared
tUf:_TypeBuilder_IsSubclassOf_m3458909121
Zrc:__ZNK8Renderer16IsVisibleInSceneEv
DNf:_Default_check_arguments_with_score_m3467814020
X8:__Z13VFormatBufferPciPKcz
F8d:__ZN5physx2Sc18ParticleSystemCore23setSimulationFilterDataERKNS_12PxFilterDataE
bQb:__Z18Transfer_BlittableI18StreamedBinaryReadILb0EELb1EhEvRK29SerializationCommandArgumentsR31RuntimeSerializationCommandInfo
b0f:_X509Certificate__cctor_m198658613
lfj:__Z43RuntimeInvoker_MethodAttributes_t2366443849PFvvEPK10MethodInfoPvPS4_
uqi:_PlayableHandle_Equals_m1666612586_AdjustorThunk
NMa:__ZN6prcoreL27StretchGenericFloatBilinearI15TexFormatRFloatEEvPKNS_9InnerInfoE
Vel:_CurveControlledBob_DoHeadBob_m1767624672
xqe:__ZN5physx6shdfnd8internal8HashBaseINS0_4PairIKNS_2Sq13PrunerPayloadEjEES5_NS0_4HashIS5_EENS1_11HashMapBaseIS5_jS9_NS0_9AllocatorEE6GetKeyESB_Lb1EE15reserveInternalEj
MXj:__ZL139ServicePointManager_t170559685_CustomAttributesCacheGenerator_ServicePointManager_t170559685____CheckCertificateRevocationList_PropertyInfoP21CustomAttributesCache
V9h:_Enum_ToObject_m1628250250
KG:__Z24ProcessAnimationMixBeginP35AnimationPlayableEvaluationConstantP32AnimationPlayableEvaluationInputP33AnimationPlayableEvaluationOutput
otg:_StreamWriter_LowLevelWrite_m1081676583
QJa:__Z14PadImageBorderR14ImageReferenceii
Hel:_AutoMobileShaderSwitch_OnEnable_m892129171
c7l:__ZN15dense_hashtableINSt3__24pairIK10KeyWrapperINS1_IPK10MethodInfoP11Il2CppClassEEEjEES9_17ReflectionMapHashIS8_EN14dense_hash_mapIS9_jSD_NS9_14EqualsComparerINS0_8equal_toIS8_EEEENS0_9allocatorISB_EEE9SelectKeyESI_SK_E4findERSA_
A$l:__ZN6il2cpp2vm13MetadataCache28GetFieldDefaultValueForFieldEPK9FieldInfo
DFi:_Array_IndexOf_TisUIVertex_t4057497605_m3336763564_gshared
fDk:__ZN21InterfaceFuncInvoker1I22OrderBlock_t1585977831iE6InvokeEjP11Il2CppClassP12Il2CppObjecti
mH:__ZN27AnimationLayerMixerPlayableD2Ev
EEf:_ColorBlock_Equals_m518833916_AdjustorThunk
iue:__ZN5physx2Gu22gjkRelativePenetrationINS0_9TriangleVENS0_8CapsuleVEEEjRKT_RKT0_RKNS_6shdfnd3aos15PsMatTransformVERKNSB_6FloatVERNSB_5Vec3VESJ_SJ_RSF_PhSL_Rh
bBm:__ZN6il2cpp2os9FastMutexC2Ev
URe:__ZN9Rigidbody14SetIsKinematicEb
CGl:__ZL24UnresolvedVirtualCall_23P12Il2CppObjectS0_PK10MethodInfo
b5j:__ZL66PersistentCall_t3407714124_CustomAttributesCacheGenerator_m_TargetP21CustomAttributesCache
DT:__ZN12AudioManager39HandlePendingAudioConfigurationCallbackEv
fl:_emscripten_glIsFramebuffer
cGh:_RSAManaged_EncryptValue_m799827583
Dda:__ZN12_GLOBAL__N_16qAtan2Eff
y$e:__Z13RegisterClassI9RigidbodyEvv
H9i:__Z61RuntimeInvoker_UInt32_t2560061978_RuntimeObject_RuntimeObjectPFvvEPK10MethodInfoPvPS4_
sPi:_ThreadAbortException__ctor_m1955533141
jl:_JS_Sound_SetLoopPoints
uoa:__ZN15dense_hashtableINSt3__24pairIKyP17VertexDeclarationEEy14GfxGenericHashIyEN14GfxDoubleCacheIyS4_S7_NS0_8equal_toIyEEN31GfxDoubleCacheConcurrencyPolicy11LocklessGetE42GfxDoubleCacheDefaultEmptyDeletedGeneratorIyEE9SelectKeyESA_13stl_allocatorIS5_L18MemLabelIdentifier24ELi16EEE14squash_deletedEv
GY:__ZN12AudioManager17ShouldSourcePauseEb
Ozm:__ZN6il2cpp2vm26MetadataAllocGenericMethodEv
nCi:_Array_InternalArray__ICollection_Remove_TisUInt16_t2177724958_m1766181761_gshared
NSa:__ZN19ConstantBuffersGLES12RecordRenderEv
$pe:__ZN5physx13ActorAABBTaskD2Ev
Vvl:_UnityEvent_1__ctor_m3675246889_gshared
cOc:__ZN9JSONWrite8TransferI10RectOffsetEEvRT_PKc17TransferMetaFlags
vJa:__ZN4crnd12symbol_codec11decode_bitsEj
Xvj:__Z59RuntimeInvoker_Boolean_t97287965_KeyValuePair_2_t3842366416PFvvEPK10MethodInfoPvPS4_
bHg:_EncryptedPrivateKeyInfo__ctor_m3415744930
Kgd:__ZN15b2CircleContact8EvaluateEP10b2ManifoldRK11b2TransformS4_
oLh:_AsnEncodedData__ctor_m3792312694
iBl:_AesManaged_GenerateIV_m1368817386
Poc:__ZN21FixedBehaviourManagerD0Ev
Xdl:_U3CStartU3Ec__Iterator0__ctor_m4022356384
cjc:__Z13RegisterClassI15QualitySettingsEvv
HT:__ZN4FMOD6System12createReverbEPPNS_6ReverbE
Tsm:__ZN6il2cpp2vm6String21InitializeEmptyStringEP11Il2CppClass
dH:__ZN7mecanim19ValueArrayBlendNodeILb1EEEvRKNS_10ValueArrayERKNS_14ValueArrayMaskERS1_RS4_RNS_16ValueArrayWeightEf
Yzg:_CodeAccessPermission_GetHashCode_m880096813
Xxb:__Z16MarkDependenciesR27GarbageCollectorThreadStatej
LMf:_AssemblyConfigurationAttribute__ctor_m3236176989
Fxl:_ObjectPool_1_get_countInactive_m526975942_gshared
$ih:_RemotingServices_DisposeIdentity_m2605848806
Pda:__ZNK9Transform11GetPositionEv
fZd:__ZN5physx12NpConstraint8requiresERNS_23PxProcessPxBaseCallbackE
j9c:__ZNSt3__211__sift_downIRNS_4lessI23TransformAccessReadOnlyEEPS2_EEvT0_S6_T_NS_15iterator_traitsIS6_E15difference_typeES6_
kgi:_Bounds_set_size_m4127623202
cjg:_GuidParser_Reset_m2640004655
p6a:__ZN23SharedMeshRenderingData18UnloadVertexStreamEi
gCd:__ZN5physx3Cct13HandleManager3AddEPv
ipc:__ZN31CanvasBatchIntermediateRenderer11AddSubBatchERK16DrawBuffersRangePK19ShaderPropertySheet
Nnc:__ZN19RenderEventsContextC2Ei
E0:__Z6simd4fRKf
v2j:__ZL67SceneManager_t2787271929_CustomAttributesCacheGenerator_sceneLoadedP21CustomAttributesCache
$ci:_GregorianCalendar_GetEra_m2369958449
Nl:_emscripten_glEnable
bVg:_InternalEnumerator_1_System_Collections_IEnumerator_get_Current_m2982675020_gshared
q8c:__ZNK14ParticleSystem16GetParticleCountEv
r1a:__ZN10TagManager23VirtualRedirectTransferER14SafeBinaryRead
ajk:__ZL51RawImage_t3182918964_CustomAttributesCacheGeneratorP21CustomAttributesCache
qLe:__ZNK5physx2Sc15ClothFabricCore9getNbSetsEv
dFd:__ZThn12_N5physx3Ext5JointINS_15PxDistanceJointENS_30PxDistanceJointGeneratedValuesEE15getSerializableEv
Lih:_ObjRef_get_EnvoyInfo_m1782007847
v1k:_List_1_System_Collections_ICollection_get_IsSynchronized_m3331050698_gshared
e7b:__Z15InitLightMeshesv
cWf:_MonoCMethod_ToString_m3992577062
JPl:_RaycastHit_get_collider_m1464180279
wje:__ZNK5physx7NpScene26getNbContactDataBlocksUsedEv
No:FUNCTION_TABLE_iifiii
Sxd:__ZN5physx2Gu29computeCapsule_HeightFieldMTDERKNS_21PxHeightFieldGeometryERKNS_11PxTransformERNS0_8CapsuleVEffbjRNS_10PxSweepHitE
aUl:__ZNK15dense_hashtableINSt3__24pairIK10KeyWrapperIPK22Il2CppGenericParameterEP11Il2CppClassEES6_N6il2cpp5utils11PointerHashIS4_EEN14dense_hash_mapIS6_S9_SE_NS6_14EqualsComparerINS0_8equal_toIS5_EEEENS0_9allocatorISA_EEE9SelectKeyESJ_SL_E10test_emptyEj
Vee:__ZNK5physx2Cm12DelegateTaskINS_7NpSceneEXadL_ZNS2_14executeCollideEPNS_10PxBaseTaskEEEE7getNameEv
JMe:__ZN5physx2Gu11HeightField15exportExtraDataERNS_22PxSerializationContextE
eRk:_ReadOnlyCollection_1_System_Collections_IList_Contains_m2904046095_gshared
nib:__ZN15QualitySettings8TransferI19StreamedBinaryWriteILb0EEEEvRT_
I9j:__ZL56GUISkin_t1244372282_CustomAttributesCacheGenerator_m_boxP21CustomAttributesCache
Xrh:_LayoutUtility_U3CGetFlexibleHeightU3Em__7_m2991026842
tLb:__Z18Transfer_BlittableI19StreamedBinaryWriteILb0EELb1E8Vector2fEvRK29SerializationCommandArgumentsR31RuntimeSerializationCommandInfo
G2e:_cf2_arrstack_init
Qwk:_Array_InternalArray__get_Item_TisResourceCacheItem_t51292791_m1306056717_gshared
Lrj:__Z157RuntimeInvoker_Void_t1185182177_RuntimeObject_RuntimeObject_RuntimeObject_RuntimeObject_RuntimeObject_RuntimeObject_RuntimeObject_RuntimeObject_RuntimeObjectPFvvEPK10MethodInfoPvPS4_
xxf:_EventSystem_get_pixelDragThreshold_m1103650852
N6:__Z15CleanLogHandler7LogTypePKcz
Xxg:_NumberFormatter_NumberToString_m2481532188
kxa:__ZN9ShaderLab19SerializedSubShader8TransferI19StreamedBinaryWriteILb0EEEEvRT_
B$d:__ZN5physx10NpMaterialC2ERKNS_2Sc12MaterialCoreE
nwh:_ScrollRect_InternalGetBounds_m599803667
w6g:_Enumerator_MoveNext_m76191888_gshared
bT:__ZN14AudioBehaviour15ThreadedCleanupEv
aDe:__ZN5physx9PxTaskMgr10resolveRowEjb
QPl:_Rigidbody_set_angularVelocity_m4254006699
tTb:__ZN6Camera17RemoveImageFilterERK11ImageFilter
Rya:__ZNSt3__218__insertion_sort_3IR25ValueParameterArraySorterPN20GpuProgramParameters14ValueParameterEEEvT0_S6_T_
gkd:__ZN10ClipperLib7Clipper27ProcessEdgesAtTopOfScanbeamEx
pVc:__ZN14EmissionModule15AccumulateBurstER27ParticleSystemEmissionStateRK11MinMaxCurvef
Pcg:_Comparer__cctor_m3311686689
ykf:__ZZN2UI11CanvasGroup15InitializeClassEvEN38FunctorImpl_117kTransformParentChanged4CallEPviR11MessageData
WBf:_UIBehaviour_OnDidApplyAnimationProperties_m2143584361
tZj:__ZL102SystemInfo_t3561985952_CustomAttributesCacheGenerator_SystemInfo_get_operatingSystemFamily_m4256884728P21CustomAttributesCache
W2c:__ZN11ShapeModule17MainThreadCleanupEv
E2c:__ZN9SubModule5ResetEv
xRe:__ZN8Collider12GetIsTriggerEv
Yrl:_Uri__ctor_m3040793867
EJh:_HttpWebRequest_get_Address_m2672661563
oRi:_TimeZone__ctor_m1831364098
lB:__ZN17AnimationCurveTplI11QuaternionfE8TransferI14SafeBinaryReadEEvRT_
rFk:__ZN21InterfaceFuncInvoker1I34ParticleCollisionEvent_t4055032941iE6InvokeEjP11Il2CppClassP12Il2CppObjecti
FUg:_InternalEnumerator_1_get_Current_m3500427238_AdjustorThunk
mkf:__ZN2UI26InitializeDeviceForOverlayEi
MKe:__ZNK5physx13NpClothFabric13getRestvaluesEPfj
Jka:__Z27LogRepeatingStringWithFlagsRKN4core12basic_stringIcNS_20StringStorageDefaultIcEEEE15LogMessageFlagsi
hvd:__ZN5physx2Gu16_gjkLocalRayCastINS0_9TriangleVENS0_11ConvexHullVEEEbRT_RT0_RKNS_6shdfnd3aos6FloatVERKNS9_5Vec3VESF_RSA_RSD_SH_f
T6g:_KeyCollection_System_Collections_Generic_IEnumerableU3CTKeyU3E_GetEnumerator_m525473090_gshared
W9h:_Enum_IsDefined_m1442314461
TOi:_Thread__cctor_m817723615
aFl:_AudioExtensionManager_RegisterBuiltinDefinitions_m2742744104
wE:__ZN17AnimationPlayable28ComputeNeedsBindingRebuildedEv
DD:__ZN17AnimationPlayable23RequestAllocateBindingsEv
NKd:__ZN5physx6shdfnd8PoolBaseINS_2Cm5BlockIPvLj32EEENS0_19ReflectionAllocatorIS5_EEE17releaseEmptySlabsEv
TUk:_Predicate_1_EndInvoke_m3884403745_gshared
nwe:__ZN5physx23PxsBroadPhaseContextSap21batchUpdateFewUpdatesEjRPNS_17PxcBroadPhasePairERjS4_
y0h:_DecoderReplacementFallbackBuffer_Fallback_m1261056214
xyd:__ZN5physx3Cct17getSceneTimestampEPKNS0_30InternalCBData_FindTouchedGeomE
n0b:__ZNSt3__227__insertion_sort_incompleteIRPFbP10GUIElementS2_EPS2_EEbT0_S7_T_
mNf:_Binder_get_DefaultBinder_m950908649
Rpg:_StreamReader__ctor_m1616861391
eTj:__ZL59ArgumentException_t132251570_CustomAttributesCacheGeneratorP21CustomAttributesCache
Qrf:__ZN18UnityConnectClient33OnPlayerSessionStateChangedStaticEPS_jyy
TP:__ZN25RuntimeAnimatorController12CleanupClassEv
arj:__Z109RuntimeInvoker_Boolean_t97287965_Vector3_t3722313464_Vector3_t3722313464_Single_t1397266774_Int32_t2950945753PFvvEPK10MethodInfoPvPS4_
JSh:_RSA_ToXmlString_m2922661427
F3:__ZNK11UnityEngine15CloudWebService23WebRequestUploadHandler11GetProgressEv
vGa:__ZN7ApiGLES4LoadE16GfxDeviceLevelGL
Ehb:__ZN18StreamedBinaryReadILb0EE21TransferSTLStyleArrayI13dynamic_arrayI31EnlightenSystemAtlasInformationLj8EEEEvRT_17TransferMetaFlags
K_d:__ZN5physx9NpPhysics15createAggregateEjb
D9j:__ZL61GUIContent_t3050628031_CustomAttributesCacheGenerator_m_ImageP21CustomAttributesCache
pJa:__ZN4crnd12crn_unpacker22decode_color_endpointsEv
Emm:__ZN15dense_hashtableI10KeyWrapperIP18Il2CppGenericClassES3_N6il2cpp8metadata22Il2CppGenericClassHashEN14dense_hash_setIS3_S6_NS3_14EqualsComparerINS5_25Il2CppGenericClassCompareEEENSt3__29allocatorIS3_EEE8IdentityESA_SD_E15insert_noresizeERKS3_
hmc:__ZZL31RegisterOtherRendererPropertiesR22GenericPropertyBindingEN30Wrapper_RendererReceiveShadows13GetFloatValueEPv
qUe:__ZN9Rigidbody5ResetEv
HAi:_Array_InternalArray__ICollection_Contains_TisSlot_t384495010_m688761886_gshared
Xfb:__ZN17SharedTextureDataC2E10MemLabelIdii13TextureFormatjiibb
Htj:__Z114RuntimeInvoker_RuntimeObject_RuntimeObject_Int32_t2950945753_Int32_t2950945753_Int32_t2950945753_Int32_t2950945753PFvvEPK10MethodInfoPvPS4_
AWb:__ZN8Material11SetPassFastEPN9ShaderLab4PassER17ShaderPassContextP6Shaderib
JGc:__Z31Renderer_Set_Custom_PropEnabledP12Il2CppObjectb
Mib:__ZNK13ScreenManager13GetLockCursorEv
Orf:__ZN11UnityEngine7Connect20BasePersistentValues10SaveValuesER9JSONWrite
lHk:_Collection_1_IsFixedSize_m3748602684_gshared
A1h:_DateTime_System_IConvertible_ToDouble_m2116720007
oji:_Display_GetSystemExtImpl_m2808197389
fQi:_WaitHandle_WaitOne_m2577152516
j2c:__ZN11ShapeModule18MultiModeParameterIN25IParticleSystemProperties8PropertyIfNS1_5ClampILi0ELi360EEEEEE8TransferI19StreamedBinaryWriteILb0EEEEvRT_
Jqb:__ZN14SafeBinaryRead21TransferSTLStyleArrayINSt3__26vectorI17SubstanceEnumItemNS1_9allocatorIS3_EEEEEEvRT_17TransferMetaFlags
Q$f:_X509Certificate_PEM_m1177570576
mlg:_NumberFormatter_AppendExponent_m1258666517
kQg:_ArrayReadOnlyList_1_GetEnumerator_m1835926958_gshared
TCe:__ZN5physx9PxTaskMgr12addReferenceEj
thd:__ZNSt3__27__sort4IR24RayHitsByDepthComparitorP12RaycastHit2DEEjT0_S5_S5_S5_T_
Utc:__Z14ScaleCurveTimeR17AnimationCurveTplIfEf
Wna:__ZN22VirtualJoystickManagerC2Ev
wna:__ZN20GlobalCachingManager7DisposeEv
t1b:__Z12SetupLODFadeR9GfxDeviceR17ShaderPassContextf
Pdb:__ZNK14PlayableOutput7GetTypeEv
ufd:__ZN26b2PolygonAndCapsuleContact6CreateEP9b2FixtureiS1_iP16b2BlockAllocator
bHj:__ZL69Type_t_CustomAttributesCacheGenerator_Type_GetConstructors_m576905011P21CustomAttributesCache
T6b:__ZL24CollectForwardObjectsJobP27CollectForwardObjectsHeader
N7k:_List_1_get_Item_m1378751541_gshared
O8b:__Z13IsNodeVisibleRK9SceneNodeRK4AABBRK22SceneCullingParameters
fGi:_Array_InternalArray__IndexOf_TisLabelFixup_t858502054_m1491765395_gshared
Ecj:__Z44RuntimeInvoker_RuntimeTypeHandle_t3027515415PFvvEPK10MethodInfoPvPS4_
G0g:__ZN21InterfaceFuncInvoker1IibE6InvokeEjP11Il2CppClassP12Il2CppObjectb
_Ah:_SortKeyBuffer_AppendCJKExtension_m2591091991
Y8c:__ZN11ShapeModuleC2E10MemLabelId
zNi:_UTF8Encoding_GetByteCount_m4153686982
O9b:__Z24ScheduleCullingAllGroupsR8JobFenceRK22SceneCullingParametersiRK13CullingOutputRK13dynamic_arrayIP12CullingGroupLj4EERKS_
ETm:_emscripten_glStencilMask__wrapper
gbj:__Z49RuntimeInvoker_Void_t1185182177_Double_t594665363PFvvEPK10MethodInfoPvPS4_
J8c:__Z33GetParticleSystemScriptingClassesv
IZl:__ZN15dense_hashtableINSt3__24pairIK10KeyWrapperIN6il2cpp5utils13dynamic_arrayIPK10Il2CppTypeLj4EEEEPFvvEEESA_NS3_8metadata19Il2CppSignatureHashEN14dense_hash_mapISA_SD_SG_NSA_14EqualsComparerINSF_22Il2CppSignatureCompareEEENS0_9allocatorISE_EEE9SelectKeyESK_SM_EC2EjRKSG_RKSK_RKSO_
r3a:__ZN15RenderNodeQueue7CleanupEv
vDi:_Array_InternalArray__IEnumerable_GetEnumerator_TisByte_t1134296376_m1979205379_gshared
TYa:__ZNK17ArchiveFileSystem8PositionERK13FileEntryData
zDd:__ZN16NovodexAllocator8allocateEjPKcS1_i
Gcb:__ZN39DeprecatedFastPropertyNameSerialization8TransferI14SafeBinaryReadEEvRT_
Rjl:_DeriveBytes_DeriveIV_m973925711
Ulg:_Int32_System_IConvertible_ToSByte_m3133688512
sGl:__ZL24UnresolvedVirtualCall_13P12Il2CppObjectaPK10MethodInfo
vnm:__ZN15dense_hashtableINSt3__24pairIK10KeyWrapperIP12Il2CppObjectEN6il2cpp2gc9CachedCCWEEES5_NS7_5utils11PointerHashIS3_EEN14dense_hash_mapIS5_S9_SD_NS5_14EqualsComparerINS0_8equal_toIS4_EEEENS0_9allocatorISA_EEE9SelectKeyESI_SK_E12expand_arrayEjN21dense_hash_map_traits17integral_constantIbLb0EEE
fRk:_ReadOnlyCollection_1_System_Collections_IList_IndexOf_m848971554_gshared
Q6b:__ZN9ShaderLab10GrabPassesD2Ev
alb:__ZN14Texture2DArray13UploadTextureEv
ysh:_MaskableGraphic_UpdateCull_m2805101913
J7e:_tt_cmap14_done
Tvb:__ZN18AwakeFromLoadQueue25RegisterObjectInstanceIDsEv
nRe:__ZN5physx21PxProfileNameProviderD2Ev
TZi:_Dictionary_2_Add_m4262304220_gshared
XAf:_StandaloneInputModule_set_forceModuleActive_m2237222402
rH:__ZNK27AnimationLayerMixerPlayable11DerivesFromE17ScriptingClassPtr
Vdf:__ZN20TextRenderingPrivate19NativeTextGenerator15InsertCharacterEiPj
hke:__ZN5physx2Sc5Scene22removeBroadPhaseRegionEj
Tdj:__Z77RuntimeInvoker_Void_t1185182177_RuntimeObject_SByte_t1669577662_RuntimeObjectPFvvEPK10MethodInfoPvPS4_
zej:__Z81RuntimeInvoker_Void_t1185182177_RuntimeObject_SByte_t1669577662_SByte_t1669577662PFvvEPK10MethodInfoPvPS4_
yCd:__ZN5physx2Cm12RenderBuffer5clearEv
V5d:__ZNK5physx2Sc9ClothCore21getStiffnessFrequencyEv
qcd:__ZN11b2RopeJoint24SolveVelocityConstraintsERK12b2SolverData
uwg:_MonoType_get_attributes_m1332507727
$yl:_GUIContent_ClearStaticCache_m1205116045
wik:__ZL66InputField_t3762917431_CustomAttributesCacheGenerator_m_CaretWidthP21CustomAttributesCache
D_c:__ZN24OptimizedPolynomialCurve19BuildOptimizedCurveERK17AnimationCurveTplIfEf
yse:__ZN5physx13PxsCCDContext14postCCDAdvanceEPNS_10PxBaseTaskE
uXh:_WindowsIdentity_Dispose_m3466258450
_F:__ZN17AnimationPlayableD0Ev
lMb:__Z18Transfer_BlittableI19StreamedBinaryWriteILb0EELb0EyEvRK29SerializationCommandArgumentsR31RuntimeSerializationCommandInfo
ukh:_BinaryCommon__cctor_m2978407547
a8f:_Char_System_IConvertible_ToByte_m2347554595
PQk:_ReadOnlyCollection_1_GetEnumerator_m1017886827_gshared
cIj:__ZL47ASN1_t2114160832_CustomAttributesCacheGeneratorP21CustomAttributesCache
Phm:__ZN6il2cpp6icalls8mscorlib6System2IO6MonoIO20GetFileSystemEntriesEP12Il2CppStringS6_iiPi
Cff:__ZN20TextRenderingPrivate15DynamicFontData21GetFontMetricsForFaceERK13dynamic_arrayIN4core17string_with_labelILi35EEELj4EEiRKS1_I4PPtrIN13TextRendering4FontEELj4EEPfSF_
nwl:_IndexedSet_1__ctor_m2250384602_gshared
I1i:_DefaultComparer__ctor_m1306123661_gshared
MTi:_UInt16_TryParse_m4139137016
Gpm:__ZN6il2cpp5utils13dynamic_arrayIPNS_2os6ThreadELj4EE9push_backEv
Kfk:__ZL102PointerEventData_t3807901092_CustomAttributesCacheGenerator_PointerEventData_get_clickTime_m3061953952P21CustomAttributesCache
tKi:_Encoding__ctor_m2997749867
Xmi:_ManagedStreamHelpers_ManagedStreamSeek_m3158782053
Kql:_ExpressionAssertion_Compile_m2166597834
MSb:__ZN16ScriptingManagerD0Ev
HYh:_Single_System_IConvertible_ToSByte_m1208276900_AdjustorThunk
WLg:_TlsClientCertificate_ProcessAsSsl3_m3265529850
ium:__ZN6il2cpp6icalls8mscorlib6System7Convert24InternalFromBase64StringEP12Il2CppStringb
Oye:__ZNK5physx10BPWorkTask7getNameEv
WWd:__ZN5physx2Sc8ShapeSim16onResetFilteringEv
DNj:__ZL58ChannelServices_t3942013484_CustomAttributesCacheGeneratorP21CustomAttributesCache
klm:__ZN30dense_hashtable_const_iteratorINSt3__24pairIK10KeyWrapperINS1_IPKcS4_EEEiEES6_24NamespaceAndNamePairHashN14dense_hash_mapIS6_iS9_NS6_14EqualsComparerI26NamespaceAndNamePairEqualsEENS0_9allocatorIS8_EEE9SelectKeyESD_SF_EppEv
Hzc:__Z44Register_UnityEngine_Component_get_transformv
Yxj:__Z48RuntimeInvoker_Void_t1185182177_Link_t3209266973PFvvEPK10MethodInfoPvPS4_
lAc:__Z39GameObject_CUSTOM_FindGameObjectWithTagP12Il2CppString
rM:__ZN12_GLOBAL__N_120ProcessPlayableGraphERN8Animator11AnimatorJobER35AnimationPlayableEvaluationConstantR32AnimationPlayableEvaluationInputR33AnimationPlayableEvaluationOutputPFvS4_R17AnimationPlayableEPFvS4_S6_S8_EPFvS8_S4_S6_S8_fESE_MS9_FvPS3_PS5_PS7_E
FEj:__ZL48Double_t594665363_CustomAttributesCacheGeneratorP21CustomAttributesCache
aei:_TextInfo_ToLower_m2744057472
xKd:__ZN5physx2Sc16ActorInteractionD2Ev
xZb:__ZN17ArchiveFileSystem12MountArchiveEPKcS1_
b5i:_EqualityComparer_1_System_Collections_IEqualityComparer_Equals_m3977314386_gshared
hNc:__Z18Transfer_BlittableI9JSONWriteLb1E8Vector4fEvRK29SerializationCommandArgumentsR31RuntimeSerializationCommandInfo
Io:FUNCTION_TABLE_viififiii
hbi:_CCGregorianCalendar_year_from_fixed_m463929682
sif:__ZN2UI13CanvasManagerD0Ev
r7:__ZThn32_NK8Renderer14GetSubsetIndexEi
Kii:_Debug_get_unityLogger_m2239795986
CXd:__ZN5physx2Sc16ArticulationCore26setExternalDriveIterationsEj
tKk:_ReadOnlyCollection_1_System_Collections_IEnumerable_GetEnumerator_m2123446296_gshared
pGg:_MD2Managed_Initialize_m2341076836
cRk:_ReadOnlyCollection_1_System_Collections_IList_Add_m4240023232_gshared
kDa:__ZN9GfxDevice15ImmediateVertexEfff
Hic:__Z13RegisterClassI8MaterialEvv
Pgb:__ZNK16LightmapSettings22GetTypeVirtualInternalEv
Z3a:__ZN16GraphicsSettings13AwakeFromLoadE17AwakeFromLoadMode
auk:_Array_Sort_TisUIVertex_t4057497605_TisUIVertex_t4057497605_m4243853890_gshared
Ir:__ZN6Object13AwakeFromLoadE17AwakeFromLoadMode
CAa:__ZN13GfxDeviceGLES15SetStencilStateEPK18DeviceStencilStatei
Q6f:_Buffer_BlockCopyInternal_m418318694
kEm:_cycle
ufi:_AssetBundleCreateRequest_t3119663542_marshal_pinvoke
_tm:__ZN6il2cpp2vm8Profiler7GCEventE13Il2CppGCEvent
Tcj:__Z76RuntimeInvoker_Void_t1185182177_RuntimeObject_RuntimeFieldHandle_t1871169219PFvvEPK10MethodInfoPvPS4_
gkl:_PKCS12_Finalize_m507756088
qDg:_Rijndael_Create_m3053077028
xe:_emscripten_glUniform1iv
m5i:_EqualityComparer_1_get_Default_m1095255266_gshared
Zed:__ZN15b2DistanceProxy3SetEPK7b2Shapei
JBb:__ZN16MemoryFileSystemD2Ev
idj:__Z150RuntimeInvoker_Int32_t2950945753_RuntimeObject_Int32_t2950945753_Int32_t2950945753_RuntimeObject_Int32_t2950945753_Int32_t2950945753_Int32_t2950945753PFvvEPK10MethodInfoPvPS4_
q5f:_BitConverter_DoubleToInt64Bits_m3574395137
c3h:_DateTime_Parse_m3729096069
p1k:_List_1_System_Collections_IList_Add_m1540114404_gshared
YQg:_InternalEnumerator_1_System_Collections_IEnumerator_Reset_m81420524_AdjustorThunk
nzc:__Z37Register_UnityEngine_Camera_get_depthv
J8k:_List_1_get_Count_m576380744_gshared
PCj:__Z92RuntimeInvoker_RuntimeObject_SByte_t1669577662_SByte_t1669577662_RuntimeObject_RuntimeObjectPFvvEPK10MethodInfoPvPS4_
ZO:__ZN13AnimationClip24SetDidModifyClipCallbackEPFvPS_R4ListI8ListNodeI14AnimationStateEEE
ytg:_StringReader_Read_m3322058819
dch:_CrossAppDomainChannel_get_ChannelPriority_m3418073750
f2i:_EqualityComparer_1__ctor_m1860346363_gshared
uph:_Selectable_StartColorTween_m3618813981
Vxe:__ZNK5physx16PxsBroadPhaseMBP18getNumDeletedPairsEv
Wwf:_BaseInputModule_HandlePointerExitAndEnter_m1705532066
DUf:_EventInfo__ctor_m3033129999
zWe:__ZN5physx7profile8ZoneImplINS_28PxProfileNameProviderForwardEE10startEventEty
Sse:__ZN5physx10PxsCCDPair17sweepAdvanceToToiEfb
eic:__ZN15ApplicationInfo16GetInstallerNameEv
jfc:__Z23ConvertIntegerToTypePtrItEbPvR14SafeBinaryRead
I7h:_Delegate_CombineImpl_m3572135514
Ekg:_NumberFormatter_IntegerToString_m1679294587
VTh:_SHA256Managed_AddLength_m1060552216
SNk:_ReadOnlyCollection_1_System_Collections_IList_RemoveAt_m422909114_gshared
YM:__ZN7mecanim5human29HumanGetGoalOrientationOffsetENS0_4GoalE
Oe:_emscripten_glStencilFunc
Dlk:__ZL78LayoutRebuilder_t541313304_CustomAttributesCacheGenerator_U3CU3Ef__amU24cache2P21CustomAttributesCache
YVd:__ZN5physx6shdfnd8PoolBaseINS_2Cm5BlockIhLj384EEENS0_19ReflectionAllocatorIS4_EEE17releaseEmptySlabsEv
TIe:__ZN5physx16PxsIslandManager11freeBuffersEv
lGl:__ZL23UnresolvedVirtualCall_6P12Il2CppObjectiPK10MethodInfo
HOd:__ZN5physx2Cm12DelegateTaskINS_2Sc17ParticleSystemSimEXadL_ZNS3_21prepareCollisionInputEPNS_10PxBaseTaskEEEE11runInternalEv
IAf:__Z46il2cpp_codegen_get_marshal_directive_exceptionPKc
dza:__ZN9ShaderLab20SerializedSubProgram14AddMatrixParamEPKcii15ShaderParamTypei
Ve:_glGetActiveUniformBlockName
fFd:__ZThn12_N5physx3Ext13DistanceJointD0Ev
wG:__ZN7mecanim13CopyValueMaskILb0EEEvPKNS_14ValueArrayMaskEPS1_
yx:__ZN9Animation20GetClipLegacyWarningEP13AnimationClip
Eg:_emscripten_glUniform1fv
drl:_Parser_IsIgnoreCase_m2210120858
c4c:__ZN31CollisionModulePropertyBindings13GetFloatValueERK14ParticleSystemi
jWh:_SecurityPermission_IsSubsetOf_m545000671
oCc:__Z39Quaternion_CUSTOM_INTERNAL_CALL_InverseRK11QuaternionfRS_
H3a:__ZNK4PPtrI5FlareEcvPS0_Ev
CU:__ZN4FMOD7Channel20set3DConeOrientationEP11FMOD_VECTOR
zo:FUNCTION_TABLE_iiifii
qOf:_AssemblyBuilder_not_supported_m1735277432
OZg:_InternalEnumerator_1_MoveNext_m1344185775_AdjustorThunk
Kom:__ZN6il2cpp2vm12GenericClass11SetupEventsEP11Il2CppClass
Haf:_tt_delta_interpolate
f8e:_tt_cmap12_get_info
ukm:__ZN6il2cpp2vm15ReboxIReferenceEP14Il2CppIUnknownP11Il2CppClass
rIk:_Collection_1_Contains_m1707523067_gshared
NWk:_Enumerator__ctor_m2029608698_AdjustorThunk
vQl:__ZN6il2cpp6icalls8mscorlib6System7Decimal14decimalCompareEP19il2cpp_decimal_reprS5_
jYi:_Dictionary_2_OnDeserialization_m4209543208_gshared
Fum:__ZThn4_N6il2cpp2vm13CachedCCWBaseINS0_13ManagedObjectEE7ReleaseEv
eRd:__ZN5physx26PxcFsComputeJointLoadsSimdERKNS_9PxcFsDataEPKNS_12PxcFsInertiaEPNS_6shdfnd3aos6Mat33VEPKfjjNS_21PxcFsScratchAllocatorE
dP:__ZN29AnimationStateNetworkProvider24GetNetworkAnimationStateER9AnimationP24AnimationStateForNetworki
Mee:__ZN5physx6shdfnd8SyncImpl7getSizeEv
lli:_GameObject_AddComponent_m136524825
xOj:__ZL62SoapMethodAttribute_t1935009310_CustomAttributesCacheGeneratorP21CustomAttributesCache
ymj:__Z100RuntimeInvoker_Void_t1185182177_RuntimeObject_Int32_t2950945753_Int32_t2950945753_UInt16_t2177724958PFvvEPK10MethodInfoPvPS4_
Idb:__ZNSt3__26__treeINS_12__value_typeIN9ShaderLab16FastPropertyNameE10ColorRGBAfEENS_19__map_value_compareIS3_S5_NS_4lessIS3_EELb1EEENS_9allocatorIS5_EEE12__find_equalIS3_EERPNS_16__tree_node_baseIPvEENS_21__tree_const_iteratorIS5_PNS_11__tree_nodeIS5_SF_EEiEESI_RKT_
sQm:_glCopyTexImage2D__wrapper
Vnd:__ZN16PhysicsManager2D11CreateWorldERK8Vector2f
O8h:_Double_System_IConvertible_ToUInt32_m271206838
nhl:_WaypointProgressTracker_OnDrawGizmos_m3598730726
hAd:__ZN5physx11PxHitBufferINS_12PxRaycastHitEED0Ev
yja:__GLOBAL__sub_I_runtime_graphics_billboard_0_cpp
GFf:_FloatTween_TweenValue_m52237061
lad:__Z61Register_UnityEngine_ParticleSystem_EmissionModule_SetEnabledv
LWb:__Z18ClearByDrawingQuad13GfxClearFlagsRK10ColorRGBAffjR17ShaderPassContext
kMa:__ZN6prcoreL17RemapGenericFloatI14TexFormatRHalf15TexFormatRFloatEEvPKNS_9InnerInfoE
klg:_NumberFormatter_FormatExponential_m2139559983
i1b:__Z16ShouldUseShadowsb
Tpa:__ZN15DirectorManager21RebuildStageCallbacksEv
YWb:__ZN19RuntimeSceneManager9LoadSceneERKN4core12basic_stringIcNS0_20StringStorageDefaultIcEEEES6_S6_RK9UnityGUIDiNS_11LoadingModeE
KGl:__ZL24UnresolvedVirtualCall_31P12Il2CppObjectiS0_S0_PK10MethodInfo
CFa:__ZN7ApiGLES10DrawArraysE16GfxPrimitiveTypejjj
Gpd:__ZN5physx3Cct13BoxController15getPxControllerEv
ZR:__ZN10SampleClip13LoadBaseSoundEv
Rvd:__ZN5physx2Gu22gjkRelativePenetrationINS0_17ShrunkConvexHullVES2_EEjRKT_RKT0_RKNS_6shdfnd3aos15PsMatTransformVERKNSA_6FloatVERNSA_5Vec3VESI_SI_RSE_PhSK_Rh
d1f:_SmallXmlParser_SkipWhitespaces_m4243606597
Xbi:_CompareInfo_IndexOf_m2631915198
YOf:_ConstructorBuilder_GetCustomAttributes_m2495332786
Mfh:_MethodCall__ctor_m3669645
D7f:_Byte_CompareTo_m4285128861
nyf:_TriggerEvent__ctor_m87299207
Pkj:__Z48RuntimeInvoker_ExchangeAlgorithmType_t1320888206PFvvEPK10MethodInfoPvPS4_
K$:__Z57AudioSource_CUSTOM_INTERNAL_CALL_ClearExtensionPropertiesP12Il2CppObjectRK12PropertyName
KC:__ZN7mecanim9animation4Clip8TransferI19StreamedBinaryWriteILb0EEEEvRT_
Ynm:__ZN15dense_hashtableINSt3__24pairIK10KeyWrapperIP12Il2CppObjectEN6il2cpp2gc9CachedCCWEEES5_NS7_5utils11PointerHashIS3_EEN14dense_hash_mapIS5_S9_SD_NS5_14EqualsComparerINS0_8equal_toIS4_EEEENS0_9allocatorISA_EEE9SelectKeyESI_SK_E15insert_noresizeERKSA_
RJe:__ZN5physx2Sc19ParticlePacketShapeC2ERNS0_17ParticleSystemSimEjPNS_16PxvParticleShapeE
g2i:_EqualityComparer_1__cctor_m3962593840_gshared
Kdb:__ZN22DeviceMVPMatricesStateC2ER9GfxDevice
mdj:__Z78RuntimeInvoker_Boolean_t97287965_RuntimeObject_RuntimeObject_Int32_t2950945753PFvvEPK10MethodInfoPvPS4_
nXc:__Z9UpdateTplIL27ParticleSystemCurveEvalMode1EEvRK11MinMaxCurveS3_S3_R23ParticleSystemParticlesjjRKN4math8float3x3ERKNS6_7_float4E
M_d:__ZN5physx9NpPhysics18createTriangleMeshERNS_13PxInputStreamE
Oo:FUNCTION_TABLE_iiiiifiiiif
fo:FUNCTION_TABLE_iifii
Jmi:_Logger_set_logEnabled_m1180597166
wjb:__ZNSt3__26vectorI13dynamic_arrayI8Vector2fLj4EENS_9allocatorIS3_EEE6assignINS_11__wrap_iterIPS3_EEEENS_9enable_ifIXaasr21__is_forward_iteratorIT_EE5valuesr16is_constructibleIS3_NS_15iterator_traitsISC_E9referenceEEE5valueEvE4typeESC_SC_
Wgb:__ZN21EnlightenSceneMapping8TransferI14SafeBinaryReadEEvRT_
MFe:__ZN5physx2Cm12DelegateTaskINS_2Sc5SceneEXadL_ZNS3_14updateDynamicsEPNS_10PxBaseTaskEEEED0Ev
bcm:__ZN6il2cpp2vm10Reflection12HasAttributeEP9FieldInfoP11Il2CppClass
Pn:FUNCTION_TABLE_iiffi
Xc:invoke_viiifi
NXf:_MonoProperty_GetCustomAttributes_m3619796755
n2l:__ZNSt3__214__split_bufferIP11Il2CppClassRNS_9allocatorIS2_EEEC2EjjS5_
dOe:__ZN5physx6shdfnd5ArrayIPNS_7PxActorENS0_19ReflectionAllocatorIS3_EEE8recreateEj
ahh:_MethodDictionary_System_Collections_IEnumerable_GetEnumerator_m4169036899
i1f:__ZN23InterfaceActionInvoker2IP8String_tP12Il2CppObjectE6InvokeEjP11Il2CppClassS3_S1_S3_
JXa:__ZNK11AssetBundle14GetPreloadDataEiR13dynamic_arrayIiLj4EE
jSh:_RIPEMD160Managed_JJJ_m4161373884
Obh:_CrossContextChannel__ctor_m3755842292
g0i:_DefaultComparer_Equals_m3257444875_gshared
dg:_JS_Sound_SetPosition
x9a:__ZN19RenderBufferManager13GetTempBufferEii17DepthBufferFormat19RenderTextureFormatj22RenderTextureReadWrite14VRTextureUsagei23RenderTextureMemoryless
VAk:_Collection_1_System_Collections_IList_get_IsFixedSize_m4038894826_gshared
a$l:__ZL13GetSharedInstPK17Il2CppGenericInst
Cfk:__ZL98PointerEventData_t3807901092_CustomAttributesCacheGenerator_PointerEventData_get_delta_m1062010255P21CustomAttributesCache
i0k:_List_1_get_Count_m634446588_gshared
_Wl:__ZNK15dense_hashtableINSt3__24pairIK10KeyWrapperIPKcEP11Il2CppClassEES5_N6il2cpp5utils11StringUtils12StringHasherIS4_EEN14dense_hash_mapIS5_S8_SE_NS5_14EqualsComparerINSB_13VmStringUtils21CaseSensitiveComparerEEENS0_9allocatorIS9_EEE9SelectKeyESJ_SL_E3endEv
g_i:_Dictionary_2__ctor_m2253601317_gshared
k8b:__Z17PrepareSceneNodesP11CullResults
ISg:_InternalEnumerator_1_get_Current_m476140818_gshared
i2d:__ZNK5physx7NpCloth14getNbParticlesEv
IGd:__ZN5physx2Sc10NPhaseCore24releaseShapeInstancePairEPNS0_19ShapeInstancePairLLEjj
V2k:_List_1_Sort_m4240158523_gshared
Ozi:_WaitForEndOfFrame__ctor_m1381314187
W6b:__Z24SetupActiveLightsContextR21ActiveLightingContextRK12ActiveLightsRK11CullResultsP14ShadowMapCacheRK10MinMaxAABB
gCf:_AnimationTriggers_set_disabledTrigger_m933056574
iEc:__Z38Sprite_CUSTOM_INTERNAL_get_textureRectP12Il2CppObjectP5RectTIfE
Pam:__ZNK15dense_hashtableINSt3__24pairIK10KeyWrapperIPK22Il2CppGenericParameterEPK24MonoGenericParameterInfoEES6_N6il2cpp5utils11PointerHashIS4_EEN14dense_hash_mapIS6_SA_SF_NS6_14EqualsComparerINS0_8equal_toIS5_EEEENS0_9allocatorISB_EEE9SelectKeyESK_SM_E3endEv
H$k:_List_1_Add_m238442097_gshared
Jwc:__ZN9TextAsset7SetTextERKN4core12basic_stringIcNS0_20StringStorageDefaultIcEEEE
o2a:__ZN6Camera8TransferI24GenerateTypeTreeTransferEEvRT_
Xa:invoke_iiiiiiif
Qa:invoke_iiiiiiii
$qk:_Array_InternalArray__set_Item_TisByte_t1134296376_m3104140039_gshared
ZTc:__ZN14qsort_internal30FindAndMovePivotToLastPositionIPPKN9SubModule14SubEmitterDataEiPFbS4_S4_EEEvT_S8_T0_T1_
qwe:__ZN5physx21SapPostUpdateWorkTaskD0Ev
eti:_Rect_ToString_m447614148
tkl:_PKCS12_GetBytes_m415958948
sKg:_Context_get_HandshakeState_m2425796590
mac:__ZN8Renderer17PendingAddToSceneEv
FWd:__ZN5physx7NpActor18releaseConstraintsERNS_12PxRigidActorE
ECd:__ZN5physx6shdfnd5ArrayINS_11PxDebugLineENS0_19ReflectionAllocatorIS2_EEE8recreateEj
rSm:b125
qSm:b124
FSm:b127
CSm:b126
HSm:b129
rDc:__Z52Register_UnityEngine_RectTransform_INTERNAL_get_rectv
FGk:_Collection_1_System_Collections_IList_Add_m3667497629_gshared
Fae:__ZNK5physx22NpParticleBaseTemplateINS_16PxParticleSystemENS_16NpParticleSystemEE20getMaxMotionDistanceEv
gaa:__Z21PostprocessStacktracePKcRN4core12basic_stringIcNS1_20StringStorageDefaultIcEEEE
akm:__ZN15dense_hashtableINSt3__24pairIK10KeyWrapperIP14Il2CppIUnknownEjEES5_N6il2cpp5utils11PointerHashIS3_EEN14dense_hash_mapIS5_jSB_NS5_14EqualsComparerINS0_8equal_toIS4_EEEENS0_9allocatorIS7_EEE9SelectKeyESG_SI_E12expand_arrayEjN21dense_hash_map_traits17integral_constantIbLb0EEE
Ymi:_ManagedStreamHelpers_ManagedStreamLength_m2930872960
Otb:__ZN18StreamedBinaryReadILb0EE21TransferSTLStyleArrayI13dynamic_arrayI16SplashScreenLogoLj4EEEEvRT_17TransferMetaFlags
xce:__ZNK5physx14NpRigidDynamic25getContactReportThresholdEv
hrg:_FileStreamAsyncResult_CBWrapper_m1670848754
yzc:__Z47Register_UnityEngine_Camera_get_allCamerasCountv
Q6d:__ZN5physx22NpParticleBaseTemplateINS_15PxParticleFluidENS_15NpParticleFluidEE16releaseParticlesEv
ipf:__ZN22BaseUnityConnectClient20StartEventDispatcherEv
Ssc:__ZNSt3__26vectorIj13stl_allocatorIjL18MemLabelIdentifier1ELi16EEE6assignIPKtEENS_9enable_ifIXaasr21__is_forward_iteratorIT_EE5valuesr16is_constructibleIjNS_15iterator_traitsIS9_E9referenceEEE5valueEvE4typeES9_S9_
JL:__ZN7mecanim9animation16EvaluateAvatarIKEPKNS0_14AvatarConstantEPKNS0_11AvatarInputEPNS0_12AvatarOutputEPNS0_12AvatarMemoryEPNS0_15AvatarWorkspaceEb
DI:__ZN26AnimatorControllerPlayable10GetIntegerEiRi
Cec:__Z29StdTemplateConversionFunctionIsiEbPvR14SafeBinaryRead
tFe:__Z22updateIslandsToProcessRKN5physx2Cm10BitMapBaseINS_6shdfnd9AllocatorEEEPKjRKNS_11NodeManagerERS4_
J_b:__ZN12InputManager13InputEndFrameEv
sdd:__ZN15b2RevoluteJointC2EPK18b2RevoluteJointDef
A1l:__ZNSt3__26__treeIP11Il2CppClassNS_4lessIS2_EENS_9allocatorIS2_EEE25__emplace_unique_key_argsIS2_JRKS2_EEENS_4pairINS_15__tree_iteratorIS2_PNS_11__tree_nodeIS2_PvEEiEEbEERKT_DpOT0_
Doi:_Object_get_name_m4211327027
RIm:dynCall_viififfii
Pfm:__ZN6il2cpp2vm6Thread5SetupEP12Il2CppThread
DRe:__ZN8Collider30GetRelativePositionAndRotationERK9TransformR10Matrix4x4f
Yse:__ZN5physx35PxcSweepEstimateAnyShapeHeightfieldERKNS_11PxsCCDShapeES2_PKNS_12PxsRigidBodyES5_RKNS_11PxTransformES8_f
KLk:_ReadOnlyCollection_1_System_Collections_IList_get_IsReadOnly_m1248651675_gshared
j5g:_Enumerator_System_Collections_IDictionaryEnumerator_get_Key_m2500634048_gshared
ZCd:__ZN5physx3Cct13BoxControllerC2ERKNS_16PxControllerDescERNS_9PxPhysicsEPNS_7PxSceneE
eqk:__ZL99WaypointProgressTracker_t1841386251_CustomAttributesCacheGenerator_U3CtargetPointU3Ek__BackingFieldP21CustomAttributesCache
nLl:_TextGenerator_t3211863866_marshal_pinvoke_back
pFm:___munmap
$Fh:_RSAManaged_get_PublicOnly_m595121416
Wg:_localtime_r
P$b:__ZN22RenderingCommandBuffer13GetAndCheckRTE24BuiltinRenderTextureTypeRKN9ShaderLab16FastPropertyNameEPKcPP13RenderTexture
c3k:_List_1__ctor_m1069176951_gshared
jWc:__ZN14ParticleSystem13KillParticlesILb1EEEvRjbR24ParticleSystemUpdateDataR23ParticleSystemParticlesjPj
toa:__ZN14GfxDoubleCacheIyP17VertexDeclaration14GfxGenericHashIyENSt3__28equal_toIyEEN31GfxDoubleCacheConcurrencyPolicy11LocklessGetE42GfxDoubleCacheDefaultEmptyDeletedGeneratorIyEEC2Ev
EVg:_InternalEnumerator_1_System_Collections_IEnumerator_Reset_m3619766341_AdjustorThunk
p6c:__Z16UpdateSpritesTplIL27ParticleSystemCurveEvalMode3EEvfRK11MinMaxCurveS3_RK23ParticleSystemParticlesPf
C6:__Z19free_alloc_internalPv10MemLabelId
uOj:__ZL56ReturnMessage_t1376985608_CustomAttributesCacheGeneratorP21CustomAttributesCache
RMj:__ZL95SafeHandle_t3273388951_CustomAttributesCacheGenerator_SafeHandle_DangerousGetHandle_m3697436134P21CustomAttributesCache
$Mi:_UTF32Decoder_GetChars_m1925558948
Zg:_strftime
JQa:__ZN7Texture33SetStoredColorSpaceNoDirtyNoApplyE17TextureColorSpace
CZf:_ResourceSet__ctor_m3618395942
K5h:_Decimal_System_IConvertible_ToDouble_m3125524987_AdjustorThunk
hda:__ZN12FileAccessorD2Ev
Uia:__ZN10ColorRGBAf8TransferI18StreamedBinaryReadILb0EEEEvRT_
C6a:__ZN14VertexDataInfoC2Ev
nrm:__ZN6il2cpp2gc16GarbageCollector14CollectALittleEv
x1j:__ZL87Sprite_t280657092_CustomAttributesCacheGenerator_Sprite_INTERNAL_get_border_m3728071101P21CustomAttributesCache
Dbl:_VirtualAxis_get_GetValue_m2298216521
Mpc:__ZNK9HPlayable15GetPlayableTypeEv
Bzj:__Z117RuntimeInvoker_Void_t1185182177_CustomAttributeTypedArgumentU5BU5DU26_t2503877664_Int32_t2950945753_Int32_t2950945753PFvvEPK10MethodInfoPvPS4_
uOb:__ZL17Transfer_GUIStyleI18StreamedBinaryReadILb1EELb1EEvRK29SerializationCommandArgumentsR31RuntimeSerializationCommandInfo
fWc:__ZNSt3__227__insertion_sort_incompleteIR31SortCollisionEventsByGameObjectP22ParticleCollisionEventEEbT0_S5_T_
Kth:_RectMask2D_IsRaycastLocationValid_m1652308696
V1l:__ZN6il2cpp6icalls8mscorlib6SystemL9IsPrivateEPK12PropertyInfo
Ckl:_X501_ToString_m1148552872
mhi:_Color__ctor_m2943235014_AdjustorThunk
cte:__ZNK5physx18PxcConvexTriangles16getPolygonNormalEj
Vti:_RectTransform_add_reapplyDrivenProperties_m1374850920
Gla:__ZN9shadertag10InitializeEv
Mvj:__Z69RuntimeInvoker_Void_t1185182177_Int32_t2950945753_Color32_t2600501292PFvvEPK10MethodInfoPvPS4_
v1b:__ZN13BatchRenderer20RenderSingleWithPassER17ShaderPassContextPK18SharedMaterialDataP6ShaderPN9ShaderLab4PassEiPKNS7_10GrabPassesEjib15BatchBreakCause
QXe:__ZN5physx24NpPtrTableStorageManager8canReuseEjj
jXl:__ZN15dense_hashtableINSt3__24pairIK10KeyWrapperIPK19Il2CppGenericMethodEPK26Il2CppGenericMethodIndicesEES6_N6il2cpp8metadata23Il2CppGenericMethodHashEN14dense_hash_mapIS6_SA_SE_NS6_14EqualsComparerINSD_26Il2CppGenericMethodCompareEEENS0_9allocatorISB_EEE9SelectKeyESI_SK_ED2Ev
kib:__ZN15QualitySettings14QualitySetting8TransferI24GenerateTypeTreeTransferEEvRT_
HAm:__ZN6il2cpp5utils6Memory11AlignedFreeEPv
qjm:__ZN6il2cpp6icalls8mscorlib6System13Globalization11CultureInfo25construct_datetime_formatEP17Il2CppCultureInfo
nhe:__ZN5physx2Sc27ConstraintProjectionManager33processConstraintForGroupBuildingEPNS0_13ConstraintSimERNS0_20ScratchAllocatorListIS3_Lj64EEE
_Ig:_Context_get_ClientWriteKey_m3174706656
eVe:__ZN5Unity11SpringJoint5ResetEv
cnh:_InputField_get_textComponent_m948764648
mGc:__Z44Register_UnityEngine_Object_DestroyImmediatev
pbd:__ZL34CleanupModule_PerformanceReportingv
iig:_Convert_ToSingle_m835189399
drc:__ZN22BlockMemoryCacheWriter14LockCacheBlockEjPPhS1_
YIc:__ZNSt3__218__insertion_sort_3IRPFbPKN5IMGUI9GUIWindowES4_EPPS2_EEvT0_SA_T_
AAg:_CryptographicUnexpectedOperationException__ctor_m69881930
D9d:__ZN5physx22NpParticleBaseTemplateINS_15PxParticleFluidENS_15NpParticleFluidEED2Ev
EAk:_Collection_1_SetItem_m1218178236_gshared
Q5g:_Enumerator_MoveNext_m1574460676_gshared
sfe:__ZN5physx2Cm29ConstraintImmediateVisualizer19visualizeDoubleConeERKNS_11PxTransformEfb
TQc:__Z22TransferField_NonArrayI8JSONRead27Converter_SimpleNativeClassI8GUIStyleEEvRK23StaticTransferFieldInfoR31RuntimeSerializationCommandInfoRT0_
rqd:__ZN5physx6shdfnd5ArrayINS_13PxExtendedBoxENS0_19ReflectionAllocatorIS2_EEE8recreateEj
Gye:__ZN5physx20ProcessBPResultsTask11runInternalEv
SKd:__ZN5physx6shdfnd5ArrayIPvNS0_19ReflectionAllocatorINS_2Cm5BlockIS2_Lj16EEEEEE4copyINS0_15InlineAllocatorILj256ES7_EEEEvRKNS1_IS2_T_EE
tgl:_TimedObjectActivator_Deactivate_m3770674844
Eh:_llvm_eh_typeid_for
xic:__Z13RegisterClassI10GameObjectEvv
Ecg:_CollectionBase_OnClear_m883003723
C3g:_Enumerator__ctor_m2609246966_gshared
Kgh:_RemotingServices_FindInterfaceMethod_m2125212568
MJ:__ZNK23AnimationPlayableOutput7GetTypeEv
Vhe:__ZN5physx7NpScene19getActiveTransformsERjh
ftg:_StreamWriter__cctor_m1229272693
cpk:__ZL75U3CResetCoroutineU3Ec__Iterator0_t3232105836_CustomAttributesCacheGeneratorP21CustomAttributesCache
tHe:__ZN5physx6shdfnd5ArrayIPKNS_24PxsIndexedContactManagerENS0_19ReflectionAllocatorIS4_EEE8recreateEj
F9h:_Enum_System_IConvertible_ToSByte_m779472798
R2:__Z7ToUpperIN4core12basic_stringIcNS0_20StringStorageDefaultIcEEEEET_RKS5_
rSg:_InternalEnumerator_1_MoveNext_m1543390728_gshared
IQb:__Z18Transfer_BlittableI18StreamedBinaryReadILb0EELb1E8Vector4fEvRK29SerializationCommandArgumentsR31RuntimeSerializationCommandInfo
Qdi:_SortKey_get_OriginalString_m1428586816
Qvj:__Z51RuntimeInvoker_Void_t1185182177_Vector4_t3319028937PFvvEPK10MethodInfoPvPS4_
T$i:_Dictionary_2_U3CCopyToU3Em__0_m2023886030_gshared
gwj:__Z64RuntimeInvoker_Boolean_t97287965_RefEmitPermissionSet_t484390987PFvvEPK10MethodInfoPvPS4_
rbl:_CrossPlatformInputManager_RegisterVirtualAxis_m2847520121
eTm:_glBindVertexArray__wrapper
BQe:__ZN5physx6shdfnd5ArrayINS_11RTreeNodeNQENS0_19ReflectionAllocatorIS2_EEE19resizeUninitializedEj
EHd:__ZNK5physx2Sc16InteractionScene18getLLIslandManagerEv
olh:_SerializationInfo__ctor_m2923079689
pJd:__ZN5physx2Gu21intersectSphereConvexERKNS0_6SphereERKNS0_10ConvexMeshERKNS_11PxMeshScaleERKNS_11PxTransformEPNS_6PxVec3E
lcb:__ZN8Material8TransferI14SafeBinaryReadEEvRT_
Bse:__ZN5physx17PxcNpMemBlockPool34acquireExceptionalConstraintMemoryEj
xeb:__ZN12CubemapArray17UploadToGfxDeviceEv
XTk:_Func_2__ctor_m1150804732_gshared
hkg:_Int32_JumpOverWhite_m208298144
zfm:__ZN24dense_hashtable_iteratorINSt3__24pairIK10KeyWrapperIP11Il2CppClassES4_EES5_N6il2cpp8metadata16SZArrayClassHashEN14dense_hash_mapIS5_S4_SA_NS5_14EqualsComparerINS9_19SZArrayClassCompareEEENS0_9allocatorIS7_EEE9SelectKeyESE_SG_E30advance_past_empty_and_deletedEv
Nte:__ZN5physxL23PxcSweepConvexTrianglesERKNS_11PxsCCDShapeES2_RKNS_11PxTransformES5_S5_S5_fRNS_6PxVec3ES7_RNS_10PxcNpCacheERNS_18PxcNpThreadContextERKNS_2Cm23FastVertex2ShapeScalingERNS_2Gu9TriangleVEf
m0d:__ZNK5physx7NpShape16getPlaneGeometryERNS_15PxPlaneGeometryE
Sxj:__Z53RuntimeInvoker_Int32_t2950945753_UIVertex_t4057497605PFvvEPK10MethodInfoPvPS4_
WRm:_emscripten_glGetUniformiv__wrapper
tFk:_Collection_1_Add_m1269373195_gshared
fB:__ZNSt3__26vectorI24CompressedAnimationCurve13stl_allocatorIS1_L18MemLabelIdentifier26ELi16EEE6assignINS_11__wrap_iterIPS1_EEEENS_9enable_ifIXaasr21__is_forward_iteratorIT_EE5valuesr16is_constructibleIS1_NS_15iterator_traitsISB_E9referenceEEE5valueEvE4typeESB_SB_
LQe:__ZN5physx27InternalTriangleMeshBuilder14fillRemapTableEv
vS:__ZN11AudioSource4StopEb
dPd:__ZN5physx6shdfnd8PoolBaseINS_13NpRigidStaticENS0_19ReflectionAllocatorIS2_EEE17releaseEmptySlabsEv
oGb:__ZN14SafeBinaryRead21TransferSTLStyleArrayI13dynamic_arrayI10Matrix4x4fLj4EEEEvRT_17TransferMetaFlags
b3a:__ZN15LODGroupManager26CollectAllLODGroupManagersERK16CoreCameraValuesR13dynamic_arrayIPS_Lj4EEb
hzm:__ZN6il2cpp2os14WindowsRuntime13DeleteHStringEP15Il2CppHString__
vUi:_UInt32_System_IConvertible_ToUInt32_m1744564280_AdjustorThunk
_ll:_X509Extension_get_Oid_m4107042796
iTa:__ZN18GlslGpuProgramGLESD2Ev
Bcc:__ZN13RenderTexture14SetVolumeDepthEi
KWe:__ZThn116_NK5physx7profile8ZoneImplINS_28PxProfileNameProviderForwardEE10hasClientsEv
WBe:__ZN5physx2Gu20pcmContactCapsuleBoxERKNS0_13GeometryUnionES3_RKNS_11PxTransformES6_RKfRNS0_5CacheERNS0_13ContactBufferE
Qlj:__Z86RuntimeInvoker_Void_t1185182177_UInt16_t2177724958_SByte_t1669577662_SByte_t1669577662PFvvEPK10MethodInfoPvPS4_
Fya:__Z22LoadGpuProgramFromDataPKhS0_Rj
xRc:__ZN10Matrix4x4f8TransferI8JSONReadEEvRT_
Rcf:__ZN14SafeBinaryRead21TransferSTLStyleArrayI13dynamic_arrayIN4core17string_with_labelILi35EEELj4EEEEvRT_17TransferMetaFlags
uth:_PositionAsUV1_ModifyMesh_m4231919476
idg:_Hashtable__ctor_m1941859523
Pyl:_WindowFunction__ctor_m2544237635
r2g:_Comparer_1_get_Default_m1947376189_gshared
Hpg:_MonoIO_DeleteFile_m3839141322
z8:__ZN17PersistentManager18ReadObjectThreadedEi
_Pa:__ZN25TransformFeedbackSkinning31CleanupTransformFeedbackShadersEv
R2a:__Z22scripting_object_unbox18ScriptingObjectPtr
Afh:_AsyncResult_get_NextSink_m1844209137
Xdf:__ZNK20TextRenderingPrivate8FontImpl19GetCharacterAdvanceEjijfPj
QHi:_Array_InternalArray__ICollection_Add_TisUriScheme_t722425697_m3142345403_gshared
IAc:__Z32Gizmos_CUSTOM_INTERNAL_set_colorRK10ColorRGBAf
NDm:_fmt_u
Ruk:_Dictionary_2_Do_CopyTo_TisDictionaryEntry_t3123975638_TisDictionaryEntry_t3123975638_m1126292988_gshared
Zjb:__ZN10VertexData8TransferI18StreamedBinaryReadILb0EEEEvRT_
TOd:__ZN5physx2Sc5Scene9addStaticERNS0_10StaticCoreEPKPvjj
OCm:__ZN6il2cpp8metadata25Il2CppGenericClassCompare7CompareEPK18Il2CppGenericClassS4_
Xwg:_MonoType_get_Assembly_m4290914179
QFj:__ZL70RuntimeArray_CustomAttributesCacheGenerator_Array_GetValue_m1062368071P21CustomAttributesCache
zza:__ZN9ShaderLab7ProgramC2E10MemLabelIdi10ShaderType
Ncc:__ZN14PreloadManager16UpdatePreloadingEv
Vda:__ZN12BaseRendererD2Ev
q_c:__ZN11NoiseModule8TransferI14SafeBinaryReadEEvRT_
Boe:__ZN5physx2Sc5Scene9addShapesEPKPvjjRNS0_8RigidSimEPNS_12PxsRigidBodyERPNS0_8ShapeSimEPNS_9PxBounds3E
$rk:_Array_InternalArray__set_Item_TisUILineInfo_t4195266810_m2313892078_gshared
WYg:_InternalEnumerator_1_System_Collections_IEnumerator_Reset_m3355902602_AdjustorThunk
iqi:_PlayableAsset__ctor_m2395156306
agk:__ZL79StandaloneInputModule_t2760469101_CustomAttributesCacheGenerator_m_SubmitButtonP21CustomAttributesCache
MAe:__ZN5physx23PxcPCMContactConvexMeshERKNS_2Gu13GeometryUnionES3_RKNS_11PxTransformES6_RKfRNS_10PxcNpCacheERNS0_13ContactBufferE
B5:__ZNK21UnityDefaultAllocatorI17LowLevelAllocatorE8ContainsEPKv
k0l:__ZNSt3__213__vector_baseI6pollfdNS_9allocatorIS1_EEED2Ev
Yyg:_RuntimeTypeHandle_Equals_m2857439487
Oi:_emscripten_get_main_loop_timing
I3k:_List_1_GetEnumerator_m3345352722_gshared
Z_f:_SafeHandle_Finalize_m3866180675
jib:__ZN24GenerateTypeTreeTransfer21TransferSTLStyleArrayINSt3__26vectorIN15QualitySettings14QualitySettingENS1_9allocatorIS4_EEEEEEvRT_17TransferMetaFlags
Tqb:__ZNSt3__26vectorI14SubstanceInputNS_9allocatorIS1_EEE8__appendEj
Krg:_MemoryStream_ToArray_m3911744835
K4g:_Enumerator_System_Collections_IDictionaryEnumerator_get_Entry_m859540448_AdjustorThunk
cuj:__Z72RuntimeInvoker_Boolean_t97287965_RaycastHitU26_t2429360258_RuntimeObjectPFvvEPK10MethodInfoPvPS4_
CCm:__ZN6il2cpp2os5Event4WaitEjb
lSi:_Type_GetHashCode_m1947148725
_gj:__Z91RuntimeInvoker_Void_t1185182177_RuntimeObject_RuntimeObject_RuntimeObject_SByte_t1669577662PFvvEPK10MethodInfoPvPS4_
Yyb:__ZNK2UI13RectTransform22GetTypeVirtualInternalEv
JTc:__ZNK15PolynomialCurve18EvaluateIntegratedERKN4math7_float4E
Tq:getTempRet0
lXh:_StrongName_get_Version_m4243032012
TVg:_InternalEnumerator_1_MoveNext_m2234422530_gshared
_4c:__ZN26SizeModulePropertyBindings13GetFloatValueERK14ParticleSystemi
k5l:__ZN6il2cpp2gc19AppendOnlyGCHashMapINSt3__24pairIPK14Il2CppAssemblyP11Il2CppClassEEP24Il2CppReflectionAssembly17ReflectionMapHashIS9_ENS2_8equal_toIS9_EEE10CopyValuesEPv
oxf:_BaseRaycaster_OnEnable_m2678466030
W3g:_Enumerator_get_CurrentKey_m627428048_AdjustorThunk
zki:_UnityEventBase__ctor_m1851535676
luk:_Array_Sort_TisVector4_t3319028937_m2797285308_gshared
RLg:_HandshakeMessage_Update_m2417837686
bHk:_Collection_1_RemoveAt_m1496527686_gshared
kQk:_ReadOnlyCollection_1_CopyTo_m2867438211_gshared
lIk:_Collection_1_System_Collections_IList_get_Item_m3314684800_gshared
tPl:_Physics_RaycastAll_m3796226007
lhm:__ZN6il2cpp6icalls8mscorlib6System9ThreadingL21lookup_cached_cultureEP12Il2CppThreadi
Iym:__ZN6il2cpp2os11EventHandleD2Ev
Wji:_NetFxCoreExtensions_CreateDelegate_m751211712
N7b:__ZN18DeferredRenderLoopD2Ev
ONl:_AnimationLayerMixerPlayable__cctor_m4086299972
tea:__ZNK16TypeTreeIterator4NameEv
Guk:_Array_swap_TisUICharInfo_t75501106_m3934244159_gshared
kFj:__ZL40UIntPtr_t_CustomAttributesCacheGeneratorP21CustomAttributesCache
Hca:__ZN15FileSystemEntry3SetEPKc
lfl:_FOVKick_CheckStatus_m344213442
PHe:__ZN5physx6shdfnd5ArrayIPNS_13PxcNpMemBlockENS0_19ReflectionAllocatorIS3_EEE6resizeEjRKS3_
iCf:_AspectRatioFitter_get_aspectMode_m3735191157
kCh:_BigInteger_ToString_m570257729
Bce:__ZN5physx14NpRigidDynamic8requiresERNS_23PxProcessPxBaseCallbackE
QKk:_ReadOnlyCollection_1_System_Collections_Generic_IListU3CTU3E_Insert_m568455025_gshared
lU:__ZN20SoundChannelInstance15ParameterBuffer5ApplyEPN4FMOD7ChannelE
dHl:__ZL24UnresolvedVirtualCall_52P12Il2CppObjectPK10MethodInfo
ZJh:_IPv6Address__ctor_m4117281080
wZk:_List_1__ctor_m1328752868_gshared
d$j:__ZL88GameObject_t1113636619_CustomAttributesCacheGenerator_GameObject_SendMessage_m3720186693P21CustomAttributesCache
Udf:__ZN20TextRenderingPrivate19NativeTextGenerator9InsertTabEv
fIm:_sbrk
aXc:__Z13DragUpdateTplIL27ParticleSystemCurveEvalMode2EEvRK11MinMaxCurvebbR23ParticleSystemParticlesjjRKN4math7_float4E
Grj:__Z66RuntimeInvoker_Boolean_t97287965_Vector2_t2156229523_RuntimeObjectPFvvEPK10MethodInfoPvPS4_
TCk:_Collection_1_System_Collections_Generic_ICollectionU3CTU3E_get_IsReadOnly_m1032650589_gshared
tVc:__ZN14ParticleSystem12StartModulesER24ParticleSystemUpdateDataRK27ParticleSystemEmissionStatebRK8Vector3fRK10Matrix4x4fR23ParticleSystemParticlesjRKffjfjRjb
zXk:_Enumerator_VerifyState_m3474272061_AdjustorThunk
JSl:_ParticleCollisionEvent_get_velocity_m1941659151
qWe:__ZN5physx7profile8ZoneImplINS_28PxProfileNameProviderForwardEE21setProfileZoneManagerEPNS_20PxProfileZoneManagerE
d8i:_Enumerator_MoveNext_m1131351993_AdjustorThunk
Lpf:__ZN11UnityEngine15PlatformWrapper24GetRuntimePlatformStringEv
yj:_glIsEnabled
wyb:__ZN15CacheWriterBaseD2Ev
zAd:__ZN5physx3Cct17CapsuleController15setFootPositionERKNS_14PxExtendedVec3E
Xxd:__ZN5physx2Gu33PCMCapsuleVsMeshContactGeneration13generateEEMTDERKNS_6shdfnd3aos5Vec3VES6_RKNS3_6FloatVES6_jS6_S6_PNS0_21MeshPersistentContactERj
vOf:_DerivedType__ctor_m1853298054
dFb:__Z25scripting_class_get_image17ScriptingClassPtr
zYd:__ZN18MultiQueryCallbackIN5physx10PxSweepHitEED0Ev
g_k:_List_1_RemoveAt_m2730968292_gshared
vvb:__ZNSt3__26vectorIN4core12basic_stringIcNS1_20StringStorageDefaultIcEEEE13stl_allocatorIS5_L18MemLabelIdentifier13ELi16EEEC2INS_11__wrap_iterIPS5_EEEET_SE_RKS8_PNS_9enable_ifIXaasr21__is_forward_iteratorISE_EE5valuesr16is_constructibleIS5_NS_15iterator_traitsISE_E9referenceEEE5valueEvE4typeE
Cj:_emscripten_glDrawElementsInstanced
zI:__ZN26AnimatorControllerPlayable27SetupStateMachineBehavioursEv
FDi:_Array_InternalArray__IEnumerable_GetEnumerator_TisSlot_t3975888750_m1869932007_gshared
Iqh:_LayoutGroup_get_preferredWidth_m3816902260
J4a:__ZN18JobBatchDispatcherD2Ev
Tyb:__ZN9Transform17MainThreadCleanupEv
oJl:__ZL25UnresolvedVirtualCall_171P12Il2CppObject22UILineInfo_t4195266810S1_PK10MethodInfo
pxm:_GC_clear_hdr_marks
G7c:__Z17UpdateSprites2TplIL27ParticleSystemCurveEvalMode1ELS0_4EEvfRK11MinMaxCurveS3_RK23ParticleSystemParticlesPf
c2e:_cff_fd_select_get
dzh:_Text_set_resizeTextForBestFit_m4095249125
uO:__Z13RegisterClassI18AnimatorControllerEvv
gMh:_OidEnumerator_MoveNext_m3138911739
twj:__Z53RuntimeInvoker_Boolean_t97287965_Keyframe_t4206410242PFvvEPK10MethodInfoPvPS4_
Nj:_emscripten_glGetShaderiv
lV:__ZN4FMOD6System10getVersionEPj
KIe:__ZN5physx2Sc7BodySim10sleepCheckEffb
xhf:__ZN2UI6Canvas23VirtualRedirectTransferER24GenerateTypeTreeTransfer
eLm:dynCall_viiiififfi
mxh:_Selectable_set_animationTriggers_m2970345687
VGk:_Collection_1_CopyTo_m4271769704_gshared
$Oc:__ZN9JSONWrite8TransferIN4math12int2_storageEEEvRT_PKc17TransferMetaFlags
Dcf:__ZN13TextRendering4Font13AwakeFromLoadE17AwakeFromLoadMode
bci:_CompareInfo_LastIndexOf_m2688553706
t9h:_Enum__ctor_m3602080049
ATm:_emscripten_glCullFace__wrapper
QBa:__ZN9GfxDevice21ReleaseSharedMeshDataEP14SharedMeshData
Cgl:_U3CActivateU3Ec__Iterator0_Reset_m400575498
eAf:_MouseState__ctor_m1467839005
Wrl:_Uri_IsDomainAddress_m2867513594
Esb:__ZNSt3__27__sort5IRNS_6__lessINS_4pairIPKN5Unity4TypeE7Hash128EES8_EEPS8_EEjT0_SC_SC_SC_SC_T_
ITj:__ZL79Convert_t2465617642_CustomAttributesCacheGenerator_Convert_ToDouble_m2949593046P21CustomAttributesCache
mHf:_Dropdown_CreateItem_m2954407740
wwm:_GC_unreachable_finalize_mark_proc
DNh:_X509Chain_ProcessCrlExtensions_m236234529
Ug:___syscall192
m0k:_List_1__ctor_m369633558_gshared
t$c:__ZN13dynamic_arrayI27ParticleSystemEmissionBurstLj4EE18resize_initializedEj12ResizePolicy
eGi:_Array_InternalArray__IndexOf_TisLabelData_t360167391_m1826525656_gshared
n0c:__ZN11ShapeModule18MultiModeParameterIN25IParticleSystemProperties8PropertyIfNS1_5ClampILi0ELi360EEEEEE8TransferI24GenerateTypeTreeTransferEEvRT_
jDc:__Z43RectTransform_CUSTOM_INTERNAL_get_anchorMaxP12Il2CppObjectP13Vector2fIcall
nXd:__ZN5physx14NpShapeManagerC2Ev
Vdh:_RealProxy_get_ObjectIdentity_m2790771985
gdh:_RemotingConfiguration_RegisterChannelTemplate_m3105688054
j5h:_Decimal_Parse_m942471224
Ggb:__ZN8Material28UpdateHashesOnPropertyChangeEN9ShaderLab16FastPropertyNameE
IBk:_Collection_1_System_Collections_IList_get_Item_m1368877441_gshared
DKj:__ZL56MethodBuilder_t2807316753_CustomAttributesCacheGeneratorP21CustomAttributesCache
ODg:_Locale_GetText_m3520169047
bEc:__Z53Register_UnityEngine_SortingLayer_GetLayerValueFromIDv
AFg:_ASN1_GetBytes_m1968380955
D$j:__ZL85RectOffset_t1369453676_CustomAttributesCacheGenerator_RectOffset_set_right_m807318764P21CustomAttributesCache
XDb:__Z18Transfer_BlittableI14SafeBinaryReadLb1E8Vector4fEvRK29SerializationCommandArgumentsR31RuntimeSerializationCommandInfo
D3l:_SessionStateChanged_EndInvoke_m3128001178
oCf:_AspectRatioFitter_SetDirty_m2910185270
wX:__ZN11AudioSource12AddToManagerEv
lD:__ZN8Animator23VirtualRedirectTransferER19StreamedBinaryWriteILb0EE
gK:__ZN11UnityEngine9Animation32CreateAnimatorGenericBindingsOptERKNS0_20AnimationSetBindingsER9TransformPKN7mecanim9animation14AvatarConstantEPKNS0_21AvatarBindingConstantEbRNS6_6memory9AllocatorER8Animator
plm:__ZN6il2cpp2vm5Image13ClassFromNameEPK11Il2CppImagePKcS6_
cJm:dynCall_vdddddd
owa:__ZN24GenerateTypeTreeTransfer21TransferSTLStyleArrayINSt3__26vectorIN9ShaderLab14SerializedPassENS1_9allocatorIS4_EEEEEEvRT_17TransferMetaFlags
jLd:__ZN5physx6shdfnd8internal8HashBaseIPNS_2Sc13ConstraintSimES5_NS0_4HashIS5_EENS1_11HashSetBaseIS5_S7_NS0_9AllocatorELb1EE6GetKeyES9_Lb1EE6createERKS5_Rb
ema:__ZL32MarkLevelGameManagerDependenciesR27GarbageCollectorThreadState
mEa:__ZNK13GfxDeviceGLES26HasActiveRandomWriteTargetEv
Ffm:__GLOBAL__sub_I_Thread_cpp
_Sd:__ZNK5physx15NpActorTemplateINS_18PxArticulationLinkEE7getNameEv
fHj:__ZL54_MemberInfo_t3922476713_CustomAttributesCacheGeneratorP21CustomAttributesCache
zOm:_glGetActiveUniformsiv__wrapper
_Dc:__Z43Register_UnityEngine_Material_EnableKeywordv
Vpd:__ZNK5physx3Cct10Controller16getInternalStateERNS_17PxControllerStateE
Hoi:_Mesh_GetIndices_m2873123901
T9:__ZN13MonoBehaviour19SetupScriptingCacheE17ScriptingClassPtrP10MonoScript
D0l:__ZNSt3__214__split_bufferIP12Il2CppThreadRNS_9allocatorIS2_EEED2Ev
Oy:__Z20AnimationEventToMonoRK14AnimationEventR18MonoAnimationEvent
Ytj:__Z106RuntimeInvoker_Void_t1185182177_Single_t1397266774_Single_t1397266774_Single_t1397266774_Int32_t2950945753PFvvEPK10MethodInfoPvPS4_
zFf:_FloatTween_set_targetValue_m3604919944_AdjustorThunk
g9:__ZN17PersistentManager29ReadAndActivateObjectThreadedEiRK26SerializedObjectIdentifierP14SerializedFilebb
B9f:_ArrayList_get_IsReadOnly_m913775115
Uzf:_PointerEventData_get_dragging_m746831934
YRi:_Type_get_TypeHandle_m160082026
Bne:__ZN5physx10PxsContext15setScratchBlockEPvj
bRk:_ReadOnlyCollection_1_System_Collections_IEnumerable_GetEnumerator_m2781605075_gshared
Hpa:__ZZN15DirectorManager15InitializeClassEvEN52PreLateUpdateDirectorUpdateAnimationBeginRegistrator7ForwardEv
gAi:_Array_get_swapper_TisCustomAttributeNamedArgument_t287865710_m4254011335_gshared
qJf:_Graphic_RegisterDirtyMaterialCallback_m106898453
ezl:_GUILayoutEntry_get_margin_m3174861737
YVa:__ZN4PPtrI6SpriteE8TransferI14SafeBinaryReadEEvRT_
x2i:_EqualityComparer_1_System_Collections_IEqualityComparer_Equals_m1672604045_gshared
Kal:_Mover__ctor_m198178838
Dem:__ZN15dense_hashtableINSt3__24pairIK10KeyWrapperIP11Il2CppClassES4_EES5_N6il2cpp8metadata16SZArrayClassHashEN14dense_hash_mapIS5_S4_SA_NS5_14EqualsComparerINS9_19SZArrayClassCompareEEENS0_9allocatorIS7_EEE9SelectKeyESE_SG_E16reset_thresholdsEv
C5k:_List_1_GetEnumerator_m2095602005_gshared
gGd:__ZN5physx2Cm27getDynamicGlobalPoseAlignedERKNS_11PxTransformES3_S3_RS1_
Tkm:__ZNK15dense_hashtableINSt3__24pairIK10KeyWrapperINS1_IPKcS4_EEEiEES6_24NamespaceAndNamePairHashN14dense_hash_mapIS6_iS9_NS6_14EqualsComparerI26NamespaceAndNamePairEqualsEENS0_9allocatorIS8_EEE9SelectKeyESD_SF_E13find_positionERS7_
vve:__ZN5physx12solve1DBlockEPKNS_23PxcSolverConstraintDescEjRNS_16PxcSolverContextE
sOe:__ZN5physx6shdfnd5ArrayIPvNS0_19ReflectionAllocatorIN17PxcPoolMallocData10PoolData32EEEE15growAndPushBackERKS2_
Rua:__ZNSt3__26vectorIN9ShaderLab20SerializedSubProgram13BufferBindingENS_9allocatorIS3_EEEC2INS_11__wrap_iterIPS3_EEEET_SB_RKS5_PNS_9enable_ifIXaasr21__is_forward_iteratorISB_EE5valuesr16is_constructibleIS3_NS_15iterator_traitsISB_E9referenceEEE5valueEvE4typeE
FCj:__Z37RuntimeInvoker_Enumerator_t3436819725PFvvEPK10MethodInfoPvPS4_
Gqi:_PlayableOutputHandle_op_Equality_m388301694
YKi:_Encoding_get_ISOLatin1_m2107621369
zed:__ZNK16PhysicsManager2D21GetAutoSyncTransformsEv
knc:__ZZL23RegisterLightPropertiesR22GenericPropertyBindingEN20Wrapper_LightColorb213GetFloatValueEPv
jpk:__ZL65U3CStartU3Ec__Iterator0_t980021917_CustomAttributesCacheGeneratorP21CustomAttributesCache
$ib:__ZNK13ScreenManager21IsMultiDisplayEnabledEv
J0j:__ZL89Mathf_t3464937446_CustomAttributesCacheGenerator_Mathf_SmoothDamp_m394423605____maxSpeed4P21CustomAttributesCache
Zcd:__ZN12b2WheelJoint24SolveVelocityConstraintsERK12b2SolverData
eFj:__ZL72IntPtr_t_CustomAttributesCacheGenerator_IntPtr_op_Inequality_m3063970704P21CustomAttributesCache
lkl:_SafeBag_get_ASN1_m2293701606
ngb:__ZN9Texture2D23VirtualRedirectTransferER18StreamedBinaryReadILb0EE
eld:__ZN10Collider2D8TransferI24GenerateTypeTreeTransferEEvRT_
B1h:_DateTime_System_IConvertible_ToDouble_m2116720007_AdjustorThunk
Ubg:_BitArrayEnumerator__ctor_m2359341397
JVk:_Enumerator_MoveNext_m1177880931_gshared
K0g:_DefaultComparer__ctor_m3288720761_gshared
cxj:__Z102RuntimeInvoker_Int32_t2950945753_RuntimeObject_Vector2_t2156229523_Int32_t2950945753_Int32_t2950945753PFvvEPK10MethodInfoPvPS4_
cXl:__ZN30dense_hashtable_const_iteratorINSt3__24pairIK10KeyWrapperIPKcEP11Il2CppClassEES5_N6il2cpp5utils11StringUtils12StringHasherIS4_EEN14dense_hash_mapIS5_S8_SE_NS5_14EqualsComparerINSB_13VmStringUtils21CaseSensitiveComparerEEENS0_9allocatorIS9_EEE9SelectKeyESJ_SL_E30advance_past_empty_and_deletedEv
C6j:__ZL73g_UnityEngine_TextRenderingModule_Assembly_CustomAttributesCacheGeneratorP21CustomAttributesCache
pba:__ZN16ScriptingManager27NativeTypeForScriptingClassE17ScriptingClassPtr
WUi:_UInt64_System_IConvertible_ToDateTime_m3434604642
TRi:_Type_get_IsSerializable_m1040556850
S6e:_get_sfnt_table
Ori:_Random_INTERNAL_get_onUnitSphere_m797556502
fKj:__ZL55StreamWriter_t1266378904_CustomAttributesCacheGeneratorP21CustomAttributesCache
BYi:_Dictionary_2_System_Collections_ICollection_get_IsSynchronized_m256515291_gshared
Fic:__Z13RegisterClassI5LightEvv
cLb:__Z29Transfer_Blittable_ArrayFieldI24GenerateTypeTreeTransferiEvRT_R9ArrayInfoRK23StaticTransferFieldInfo
d7:__ZN8Renderer20RendererAddedToSceneEv
g9b:__ZL22ScheduleSceneNodesJobsP25ScheduleSceneNodesJobDataj
ewe:__ZN5physx22concludeContactCoulombERKNS_23PxcSolverConstraintDescERNS_16PxcSolverContextE
El:_emscripten_set_canvas_size
uIf:_Graphic_SetVerticesDirty_m2124914069
z7d:__ZNK5physx15NpParticleFluid12getStiffnessEv
eci:_CultureInfo__ctor_m3285927757
xsh:_MaskableGraphic_get_rootCanvasRect_m3492154629
Zsk:_Array_Resize_TisRaycastResult_t3360306849_m1811054291_gshared
xLk:_ReadOnlyCollection_1_System_Collections_Generic_ICollectionU3CTU3E_get_IsReadOnly_m3152485890_gshared
kva:__ZNSt3__26vectorIN9ShaderLab20SerializedSubProgramENS_9allocatorIS2_EEE8__appendEj
j6:__ZN20DynamicHeapAllocatorI17LowLevelAllocatorE8AllocateEji
rnf:__ZN11UnityEngine9Analytics15UserCustomEvent12ToJsonStringER9JSONWrite
CAl:_Locale_GetText_m2427493201
a2b:__ZN20DynamicPropertySheet15SetVectorQueuedERKN9ShaderLab16FastPropertyNameERK8Vector4fN19ShaderPropertySheet8SetFlagsE
UK:__ZN7mecanim9animation22EvaluateAvatarRetargetEPKNS0_14AvatarConstantEPKNS0_11AvatarInputEPNS0_12AvatarOutputEPNS0_12AvatarMemoryEPNS0_15AvatarWorkspaceEb
eZg:_InternalEnumerator_1_System_Collections_IEnumerator_Reset_m996811230_AdjustorThunk
q8a:__ZN14RenderSettings23VirtualRedirectTransferER19StreamedBinaryWriteILb0EE
HOf:_ConstructorBuilder_get_TypeBuilder_m2755629087
yNc:__ZL26Transfer_SimpleNativeClassI9JSONWrite10RectOffsetLb0EEvRK29SerializationCommandArgumentsR31RuntimeSerializationCommandInfo
Qwm:_GC_push_conditional
Enf:__ZN21UnityAnalyticsManager23VirtualRedirectTransferER24GenerateTypeTreeTransfer
pIa:__ZN17GenericDynamicVBO10AllocateVBEjR21DynamicVBOChunkHandle
MJg:_ClientContext_get_SslStream_m1583577309
kAe:__ZL27PxcTestFacesSepAxesBackfaceRKN5physx2Gu13PolygonalDataES3_RKNS_2Cm8Matrix34ES7_RKNS4_23FastVertex2ShapeScalingESA_S7_RKNS_6PxVec3ERfRSB_RjPjSG_fSD_
_4h:_DBNull_ToString_m3638608738
qmm:__ZN30dense_hashtable_const_iteratorI10KeyWrapperIP18Il2CppGenericClassES3_N6il2cpp8metadata22Il2CppGenericClassHashEN14dense_hash_setIS3_S6_NS3_14EqualsComparerINS5_25Il2CppGenericClassCompareEEENSt3__29allocatorIS3_EEE8IdentityESA_SD_EppEv
Rbg:_BitArray_Clone_m3537018332
Skh:_ObjectRecord_UnchainFixup_m3191243952
Ail:_TlsStream_get_CanWrite_m16389328
fnj:__Z65RuntimeInvoker_RuntimeObject_RuntimeObject_Vector3U26_t3464235976PFvvEPK10MethodInfoPvPS4_
Cwk:_Array_InternalArray__get_Item_TisDouble_t594665363_m850827605_gshared
bm:_glMapBufferRange
fgb:__ZN9Texture2D8TransferI18StreamedBinaryReadILb0EEEEvRT_
xBc:__Z31Input_CUSTOM_GetMouseButtonDowni
Upc:__ZN13PlayableGraph4PlayEv
kpc:__Z29AddCanvasIntermediateRendererPN2UI6CanvasEPNS_13CanvasBuffersEP17VertexDeclarationjRK10Matrix4x4ftRK4AABB4PPtrI8MaterialEi17ShadowCastingModebP6Camerab
o0b:__ZNK9Transform16GetLocalPositionEv
G0h:_EncoderExceptionFallbackBuffer_get_Remaining_m1573636148
_wg:_MonoType_get_BaseType_m1098640416
s1d:__ZN5physx6shdfnd5ArrayItNS0_19ReflectionAllocatorItEEE8recreateEj
Til:_TlsStream_Read_m3392972801
Aik:__ZL97InputField_t3762917431_CustomAttributesCacheGenerator_InputField_MouseDragOutsideRect_m1055889050P21CustomAttributesCache
Exe:__ZN5physx16PxsBroadPhaseMBP9updatePPUEPNS_10PxBaseTaskE
xEa:__ZN13GfxDeviceGLES22DispatchComputeProgramE12ObjectHandleI18ComputeProgram_TagPvE15ComputeBufferIDj
iZb:__ZN20DefaultGfxDeviceImpl32InitStereoGlobalsBuffersPlatformEiijPKv
FLi:_Latin1Encoding_GetString_m254210343
_wb:__Z17TransformAABBSlowRK4AABBRK10Matrix4x4fRS_
JMj:__ZL55GCHandleType_t3432586689_CustomAttributesCacheGeneratorP21CustomAttributesCache
p4f:_Array_combsort_m4052486289
Hjb:__ZN15SerializeTraitsI13dynamic_arrayI12SpriteVertexLj4EEE19ResizeSTLStyleArrayERS2_i
F_k:_List_1_System_Collections_ICollection_get_SyncRoot_m314215814_gshared
Hta:__ZN9ShaderLab21SerializedShaderState8TransferI14SafeBinaryReadEEvRT_
uai:_Environment_GetWindowsFolderPath_m1738399646
Nyk:_Queue_1_System_Collections_Generic_IEnumerableU3CTU3E_GetEnumerator_m2263220760_gshared
H7k:_List_1_Sort_m378918663_gshared
pNe:__ZN5physx2Gu13RTreeMidphaseC2Ev
J1i:_DefaultComparer_GetHashCode_m77036565_gshared
d3e:_cf2_stack_pushInt
cO:__ZN7mecanim9animation20DestroyLayerConstantEPNS0_13LayerConstantERNS_6memory9AllocatorE
MK:__ZN8Animator19FireAnimationEventsERNS_11AnimatorJobE
I9d:__ZN5physx6shdfnd8PoolBaseINS_16NpParticleSystemENS0_19ReflectionAllocatorIS2_EEE12allocateSlabEv
CVf:_Module_GetCustomAttributes_m76573271
sAg:_CryptoConfig_EncodeOID_m2635914623
qwa:__ZN15SerializeTraitsINSt3__24pairIN4core12basic_stringIcNS2_20StringStorageDefaultIcEEEES6_EEE8TransferI24GenerateTypeTreeTransferEEvRS7_RT_
Nml:_Match_get_Groups_m841244970
YPm:b89
NOm:b88
tNm:b81
sNm:b80
VQa:__ZN7ApiGLES19CreateSparseTextureEjj14GraphicsFormatiiiiRiS1_S1_
Zba:__ZN18ResourceImageGroup7CleanupEv
IOm:b85
WId:__ZN5physx2Gu36closestPtPointTetrahedronTesselationEPNS_6shdfnd3aos5Vec3VES4_S4_RjRS3_S6_
MOm:b87
w$h:_String_CharCopy_m3838781968
nr:__ZN11Quaternionf8TransferI24GenerateTypeTreeTransferEEvRT_
zAe:__ZN5physx25PxcPCMContactSphereConvexERKNS_2Gu13GeometryUnionES3_RKNS_11PxTransformES6_RKfRNS_10PxcNpCacheERNS0_13ContactBufferE
Phh:_RemotingSurrogateSelector_GetSurrogate_m3900875713
Nlj:__Z69RuntimeInvoker_Boolean_t97287965_UInt16_t2177724958_Int16_t2552820387PFvvEPK10MethodInfoPvPS4_
aKe:__ZN5physx2Cm18DelegateFanoutTaskINS_2Sc5SceneEXadL_ZNS3_20particlePostShapeGenEPNS_10PxBaseTaskEEEED0Ev
WNk:_ReadOnlyCollection_1_System_Collections_IList_get_IsReadOnly_m3626439112_gshared
jIg:_CertificateValidationCallback_Invoke_m1014111289
o9a:__ZN8Playable19SetOutputConnectionEPS_i
yIk:__ZN23InterfaceActionInvoker2Ii19Vector2_t2156229523E6InvokeEjP11Il2CppClassP12Il2CppObjectiS0_
tWl:__ZN15dense_hashtableINSt3__24pairIK10KeyWrapperIPK11Il2CppClassEPKcEES6_N6il2cpp5utils11PointerHashIS3_EEN14dense_hash_mapIS6_S9_SE_NS6_14EqualsComparerINS0_8equal_toIS5_EEEENS0_9allocatorISA_EEE9SelectKeyESJ_SL_EC2ERKSO_j
Rm:_glDeleteShader
sMa:__ZN6prcoreL17RemapGenericFloatI15TexFormatRGHalf16TexFormatRGFloatEEvPKNS_9InnerInfoE
Ytk:_Array_Sort_TisUICharInfo_t75501106_m128665067_gshared
w5e:_otv_GSUB_validate
kTh:_RSAPKCS1SignatureDeformatter_SetHashAlgorithm_m1602190713
x9h:_Enum_System_IConvertible_ToByte_m1219166845
EZd:__ZN5physx6shdfnd8PoolBaseINS_10NpMaterialENS0_19ReflectionAllocatorIS2_EEE15disposeElementsEv
_Xi:_Dictionary_2_CopyToCheck_m45332585_gshared
j5k:_List_1_System_Collections_ICollection_get_IsSynchronized_m3630704857_gshared
HNf:_ConstructorInfo__cctor_m1016079270
QSg:_InternalEnumerator_1_System_Collections_IEnumerator_Reset_m4239728915_AdjustorThunk
Pwc:__Z27scripting_add_internal_callPKcPKv
sHk:__ZN21InterfaceFuncInvoker1Ib20UIVertex_t4057497605E6InvokeEjP11Il2CppClassP12Il2CppObjectS0_
c2f:_AppDomain_Load_m4174353770
gnm:__GLOBAL__sub_I_GarbageCollector_cpp
Pga:__Z17GetPlayerSettingsv
wva:__ZNSt3__26vectorIN9ShaderLab20SerializedSubProgram16SamplerParameterENS_9allocatorIS3_EEE6assignIPS3_EENS_9enable_ifIXaasr21__is_forward_iteratorIT_EE5valuesr16is_constructibleIS3_NS_15iterator_traitsISA_E9referenceEEE5valueEvE4typeESA_SA_
sL:__ZN34BlobWriteTransferSTLStyleArrayImplI22OffsetPtrArrayTransferIiEEclERS1_17TransferMetaFlagsR9BlobWrite
Fkk:__ZL156U3CDelayUpdateU3Ec__Iterator0_t299064644_CustomAttributesCacheGenerator_U3CDelayUpdateU3Ec__Iterator0_System_Collections_IEnumerator_get_Current_m2906633870P21CustomAttributesCache
uWf:_MonoField_get_FieldHandle_m3729647377
uvh:_ScrollRect_get_content_m2477524320
S4g:_Enumerator_MoveNext_m1556953412_AdjustorThunk
ID:__ZN26AnimatorControllerPlayable18SetLayerAutoWeightEv
Mmf:__Z44Register_UnityEngine_Canvas_get_pixelPerfectv
Nlc:__ZN12CubemapArrayC2E10MemLabelId18ObjectCreationMode
z3j:__ZL101RectTransform_t3704657025_CustomAttributesCacheGenerator_RectTransform_INTERNAL_set_pivot_m1160676233P21CustomAttributesCache
Yjf:__ZN2UI14CanvasRenderer12SyncMaterialENS0_8SyncFlagE
rtg:_StreamWriter_Write_m1660535366
Hyj:__Z66RuntimeInvoker_Void_t1185182177_Int32_t2950945753_Link_t3209266973PFvvEPK10MethodInfoPvPS4_
NAm:__ZN6il2cpp2vm9Parameter30GetDefaultParameterValueObjectEPK10MethodInfoPK13ParameterInfoPb
yNi:_UTF8Encoding_GetByteCount_m4152118078
HKh:_ServicePoint_set_UseNagleAlgorithm_m1374731041
kFh:_KeyPairPersistence__CanSecure_m3516574278
UYi:_Dictionary_2_make_pair_m3116882385_gshared
Jhj:__Z95RuntimeInvoker_Void_t1185182177_RuntimeObject_RuntimeObject_Int32_t2950945753_SByte_t1669577662PFvvEPK10MethodInfoPvPS4_
SCg:_MD5CryptoServiceProvider_Dispose_m3502499818
LTd:__ZN5physx19NpRigidBodyTemplateINS_18PxArticulationLinkEE16setRigidBodyFlagENS_15PxRigidBodyFlag4EnumEb
rMj:__ZL53IsVolatile_t2097058663_CustomAttributesCacheGeneratorP21CustomAttributesCache
SDk:_Collection_1_System_Collections_IList_get_Item_m2422562729_gshared
lpj:__Z87RuntimeInvoker_Void_t1185182177_RuntimeObject_StringU26_t181565287_StringU26_t181565287PFvvEPK10MethodInfoPvPS4_
s4a:__ZN12LightManager28IsLightTransformDataUpToDateEPK5Light
FC:__ZN14AnimationEvent8TransferI19StreamedBinaryWriteILb0EEEEvRT_
IB:__ZN7mecanim9animation9DenseClip8TransferI24GenerateTypeTreeTransferEEvRT_
aGj:__ZL74RuntimeArray_CustomAttributesCacheGenerator_Array_BinarySearch_m3171087170P21CustomAttributesCache
BFj:__ZL72Enum_t4135868527_CustomAttributesCacheGenerator_Enum_ToObject_m122225012P21CustomAttributesCache
F7e:_UNITY_tt_face_done_kern
dJg:_SecurityParameters_get_ServerWriteMAC_m3430427271
Z8j:__ZL90GUIStyle_t3956901511_CustomAttributesCacheGenerator_GUIStyle_get_stretchHeight_m4172805773P21CustomAttributesCache
jek:__ZL68g_UnityEngine_StandardEvents_Assembly_CustomAttributesCacheGeneratorP21CustomAttributesCache
Cqb:__ZN14SafeBinaryRead21TransferSTLStyleArrayINSt3__26vectorI14SubstanceInputNS1_9allocatorIS3_EEEEEEvRT_17TransferMetaFlags
oQg:_ArrayReadOnlyList_1_RemoveAt_m2104218585_gshared
Zmb:__ZN12BoneWeights48TransferI24GenerateTypeTreeTransferEEvRT_
WDi:_Array_InternalArray__IEnumerable_GetEnumerator_TisParameterModifier_t1461694466_m3675077728_gshared
V6g:_KeyCollection_System_Collections_IEnumerable_GetEnumerator_m4039044666_gshared
cjk:__ZL60RawImage_t3182918964_CustomAttributesCacheGenerator_m_UVRectP21CustomAttributesCache
OVb:__Z19scripting_gc_enablev
UZg:_InternalEnumerator_1_get_Current_m2907722321_gshared
QZb:__ZZ23InitPlayerLoopCallbacksvEN41InitializationPlayerUpdateTimeRegistrator7ForwardEv
xwc:__ZN11UTF16StringC2ERKS_10MemLabelId
zXe:__ZN5physx7profile11EventBufferINS_24PxDefaultContextProviderENS_6shdfnd6MutexTINS0_26WrapperReflectionAllocatorIhEEEENS0_14ScopedLockImplIS7_EENS_24PxProfileNullEventFilterEE9stopEventEty
fec:__Z29StdTemplateConversionFunctionIihEbPvR14SafeBinaryRead
x$g:_InternalEnumerator_1_get_Current_m3792939945_AdjustorThunk
Nlf:__Z55Register_UnityEngine_CanvasRenderer_DisableRectClippingv
ymb:__ZN14SafeBinaryRead21TransferSTLStyleArrayI13dynamic_arrayI11ColorRGBA32Lj4EEEEvRT_17TransferMetaFlags
GNf:_MethodBase__ctor_m1907868998
Iik:__ZL118U3CCaretBlinkU3Ec__Iterator0_t2589889038_CustomAttributesCacheGenerator_U3CCaretBlinkU3Ec__Iterator0_Reset_m1547565867P21CustomAttributesCache
vUa:__ZN9GfxDevice22UploadTextureCubeArrayE9TextureIDPKhjii14GraphicsFormati18TextureUploadFlags
pUg:_InternalEnumerator_1_System_Collections_IEnumerator_get_Current_m888718134_gshared
Ddj:__Z175RuntimeInvoker_Void_t1185182177_SByte_t1669577662_SByte_t1669577662_SByte_t1669577662_SByte_t1669577662_SByte_t1669577662_SByte_t1669577662_SByte_t1669577662_SByte_t1669577662PFvvEPK10MethodInfoPvPS4_
Api:_Object_Destroy_m3118546832
r2h:_DateTime_FromTicks_m4059645178_AdjustorThunk
Nal:_NewBehaviourScript_Start_m3323668984
mwk:_Array_InternalArray__get_Item_TisClientCertificateType_t1004704908_m2297379651_gshared
hdh:_ConfigHandler_ParseTime_m1787834288
qya:__ZN9ShaderLab7Program27CreateFromSerializedProgramERKNS_17SerializedProgramE10ShaderTypeiP16PropertyNamesSetPK6Shader
HMf:_Assembly_Load_m3487507613
Z6a:__ZNSt3__27__sort4IRNS_6__lessIN4core12basic_stringIcNS2_20StringStorageDefaultIcEEEES6_EEPS6_EEjT0_SA_SA_SA_T_
HJm:dynCall_viiiifii
Z9l:__ZN6il2cpp2gc19AppendOnlyGCHashMapINSt3__24pairIPK11Il2CppImageP11Il2CppClassEEP22Il2CppReflectionModule17ReflectionMapHashIS9_ENS2_8equal_toIS9_EEEC2Ev
w8:__Z20GetPersistentManagerv
Vaf:_UNITY_TT_Set_Var_Design
Wja:__ZN21SystemInfoStringCache16StaticInitializeEPv
GTj:__ZL80Convert_t2465617642_CustomAttributesCacheGenerator_Convert_ToDecimal_m1695757674P21CustomAttributesCache
nxh:_Selectable_get_targetGraphic_m559777690
uBk:_Collection_1__ctor_m3380123530_gshared
BHd:__ZN5physx2Sc7BodySim18internalWakeUpBaseEf
RKk:_ReadOnlyCollection_1_System_Collections_Generic_ICollectionU3CTU3E_Remove_m1100818788_gshared
nnm:__ZNK10KeyWrapperIP12Il2CppObjectE14EqualsComparerINSt3__28equal_toIS1_EEEclERKS2_S9_
Lua:__ZNSt3__26vectorIN9ShaderLab20SerializedSubProgram15StructParameterENS_9allocatorIS3_EEE6assignIPS3_EENS_9enable_ifIXaasr21__is_forward_iteratorIT_EE5valuesr16is_constructibleIS3_NS_15iterator_traitsISA_E9referenceEEE5valueEvE4typeESA_SA_
vJk:_Collection_1_IsSynchronized_m2291009199_gshared
bTb:__ZNK13MonoBehaviour7GetNameEv
byb:__ZN19ScriptingInvocation28AdjustArgumentsToMatchMethodEv
uwl:_IndexedSet_1_Contains_m1525966688_gshared
YR:__Z15_CheckFMODError11FMOD_RESULTPKciS1_
xgm:__ZN6il2cpp6icalls8mscorlib6SystemL16ThrowInvalidCastEPK11Il2CppClassS5_
I5a:__Z20RenderMultipleMeshesRK15RenderNodeQueueRK18RenderMultipleData17ShaderChannelMask
b4i:_EqualityComparer_1_get_Default_m79107703_gshared
cCg:_HMAC_KeySetup_m661741544
tsh:_MaskableGraphic_get_maskable_m1260382606
$Ki:_Latin1Encoding__ctor_m498920120
N4l:__ZN6il2cpp2vm4Type19GetGenericParameterEPK10Il2CppType
Rsg:_StreamReader_Peek_m2272511193
A2b:__ZNSt3__26__sortIRNS_6__lessI11CulledLightS2_EEPS2_EEvT0_S6_T_
nlf:__Z51Register_UnityEngine_CanvasGroup_get_blocksRaycastsv
Xde:__ZN5physx20NpRigidActorTemplateINS_13PxRigidStaticEE15exportExtraDataERNS_22PxSerializationContextE
Txg:_NumberFormatter_get_IsFloatingSource_m3714711779
UFk:_Collection_1_System_Collections_IList_Add_m1403891193_gshared
JLe:__ZN5physx13BigConvexData5VLoadERNS_13PxInputStreamE
WTg:_InternalEnumerator_1_System_Collections_IEnumerator_Reset_m169899350_AdjustorThunk
BSi:_Type_GetConstructor_m1195697116
le:_glBeginQuery
wJj:__ZL104RegionInfo_t1090270226_CustomAttributesCacheGenerator_RegionInfo_t1090270226____DisplayName_PropertyInfoP21CustomAttributesCache
su:__ZN18AnimatorController19TransferRuntimeDataI24GenerateTypeTreeTransferEEvRT_
Lpe:__ZN5physx11NodeManager6resizeEj
gnd:__ZN10Effector2D25CheckEffectorColliderMaskEP10Collider2DS1_
p$b:__ZN6Camera12RenderStereoENS_10RenderFlagE8CullFlagPNS_24PerformEyeRenderFunctionE
eBb:__ZN20LocalFileSystemPosix10ToAbsoluteEPKc
x5a:__ZN20TierGraphicsSettings8TransferI19StreamedBinaryWriteILb0EEEEvRT_
HQm:b111
Bja:__GLOBAL__sub_I_runtime_input_0_cpp
Qtm:__ZN6il2cpp2vm13ComObjectBase16DisconnectObjectEj
jje:__ZNK5physx7NpScene28getSceneQueryStaticTimestampEv
E5i:_GenericComparer_1__ctor_m3652072706_gshared
Ix:__ZN14AnimationState19SetupUnstoppedStateEv
MVa:__ZN9BehaviourD0Ev
Z4a:__Z32TransferEnumWithNameForceIntSizeI14SafeBinaryRead7HDRModeEvRT_RT0_PKc17TransferMetaFlags
JEm:_getcwd
WTe:__ZNSt3__26vectorI9CollisionNS_9allocatorIS1_EEE21__push_back_slow_pathIKS1_EEvRT_
qfd:__ZN16b2CapsuleContact6CreateEP9b2FixtureiS1_iP16b2BlockAllocator
nWa:__ZN25ThreadsafeLinearAllocatorD2Ev
_vc:__ZL50GetAndClearChangedTransformsForMultilpleSystemsJobP45GetChangedTransformsForMultipleSystemsJobDatajPK23TransformAccessReadOnlyPKyj
kre:__ZN5physx2Sq10AABBPruner11preallocateEj
pwb:__Z21SendMessageToEveryoneRK17MessageIdentifier11MessageData
noa:__ZN21BillboardBatchManager16StaticInitializeEPv
i1h:_DateTime_AbsoluteDays_m4235097773
hla:__ZN12_GLOBAL__N_138ArchiveRedirectFileSystemStaticDestroyEPv
SGj:__ZL126U3CGetEnumeratorU3Ec__Iterator0_t1202911786_CustomAttributesCacheGenerator_U3CGetEnumeratorU3Ec__Iterator0_Dispose_m2078994225P21CustomAttributesCache
P8i:__Z74RuntimeInvoker_RuntimeObject_RuntimeObject_RuntimeObject_SByte_t1669577662PFvvEPK10MethodInfoPvPS4_
aHj:__ZL69Type_t_CustomAttributesCacheGenerator_Type_GetConstructor_m1195697116P21CustomAttributesCache
nGf:_DefaultControls_CreateScrollView_m3842770629
ueb:__ZN12CubemapArray34UpdateFileTextureUploadInstructionEP26FileAssetUploadInstructionj
Kge:__ZN5physx2Sc19ShapeInstancePairLLC2ERNS0_8ShapeSimES3_RNS0_9ActorPairENS_7PxFlagsINS_10PxPairFlag4EnumEtEE
qKj:__ZL94EnumBuilder_t2400448213_CustomAttributesCacheGenerator_EnumBuilder_GetConstructors_m3294436155P21CustomAttributesCache
Wzj:__Z55RuntimeInvoker_TableRange_t3332867892_Int32_t2950945753PFvvEPK10MethodInfoPvPS4_
hXg:_InternalEnumerator_1_MoveNext_m1020308708_gshared
UQa:__Z23CreateSparseTextureGLES9TextureIDii14GraphicsFormati
c6e:_otv_Anchor_validate
F7c:__Z17UpdateSprites2TplIL27ParticleSystemCurveEvalMode1ELS0_1EEvfRK11MinMaxCurveS3_RK23ParticleSystemParticlesPf
sei:_Guid_CompareTo_m243656946_AdjustorThunk
dbi:_CCMath_mod_m3631663509
bRi:_TimeSpan_Negate_m1889505500_AdjustorThunk
mOk:_ReadOnlyCollection_1_System_Collections_ICollection_CopyTo_m2715087453_gshared
Nck:__ZL84Canvas_t3310196443_CustomAttributesCacheGenerator_Canvas_get_scaleFactor_m3314757802P21CustomAttributesCache
B8g:_Transform_1__ctor_m2810088858_gshared
Cef:__ZNSt3__23mapIN20TextRenderingPrivate7FontRefEP11FT_FaceRec_NS_4lessIS2_EENS_9allocatorINS_4pairIKS2_S4_EEEEEixERS9_
HYa:__ZN17ArchiveFileSystem10AddStorageEP20ArchiveStorageReader
RTd:__ZN5physx19NpRigidBodyTemplateINS_18PxArticulationLinkEE27setMaxDepenetrationVelocityEf
bIl:__ZL25UnresolvedVirtualCall_104P12Il2CppObjectS0_S0_S0_iPK10MethodInfo
v5d:__ZN5physx2Sc9ClothCore16setStretchConfigENS_22PxClothFabricPhaseType4EnumERKNS_20PxClothStretchConfigE
b7c:__Z19UpdateSingleRow2TplIL27ParticleSystemCurveEvalMode4ELS0_1EEvfRK11MinMaxCurveS3_RK23ParticleSystemParticlesPfbiii
V1c:__ZN9SubModule8TransferI19StreamedBinaryWriteILb0EEEEvRT_
$Bl:_AnalyticsEventTracker_Awake_m2780522130
tZe:_PxCreateFoundation
Zbd:__ZNK12b2MotorJoint16GetReactionForceEf
C$l:__ZN6il2cpp2vm13MetadataCache37GetParameterDefaultValueDataFromIndexEi
Scm:_il2cpp_class_get_assemblyname
zij:__Z50RuntimeInvoker_SByte_t1669577662_SByte_t1669577662PFvvEPK10MethodInfoPvPS4_
$If:_Graphic_OnFillVBO_m1026749972
DUl:__ZN6il2cpp2vm5Class15GetEnumBaseTypeEP11Il2CppClass
kLg:_Context_set_WriteSequenceNumber_m942577065
Re:_glVertexAttrib4fv
AOh:_X509CertificateEnumerator_Reset_m4026698923
hum:__ZNK6il2cpp5utils13VmStringUtils23CaseInsensitiveComparerclERKNSt3__212basic_stringIcNS3_11char_traitsIcEENS3_9allocatorIcEEEEPKc
vDf:_CanvasScaler_SetScaleFactor_m3006968999
lCj:__Z78RuntimeInvoker_Boolean_t97287965_Navigation_t3049316579_Navigation_t3049316579PFvvEPK10MethodInfoPvPS4_
wfb:__ZNK9Texture2D16GetNpotTexelSizeEv
Pxg:_NumberFormatter_Init_m3576155222
dYa:__ZL33FileEntryInfoListToFolderContentsRKN4core12basic_stringIcNS_20StringStorageDefaultIcEEEERK19dynamic_block_arrayI13FileEntryInfoLj32EERNSt3__23setIS3_NSB_4lessIS3_EENSB_9allocatorIS3_EEEE
sag:_ArrayListWrapper_IndexOf_m3692065720
wxf:_EventSystem_set_sendNavigationEvents_m983981895
JXc:__Z20EvaluateSlowThreadedRK11MinMaxCurveRNS_5CacheERKN4math7_float4ES7_
F5f:__ZN21InterfaceFuncInvoker1ItP12Il2CppObjectE6InvokeEjP11Il2CppClassS1_S1_
EBa:__ZN9GfxDevice22GetDefaultVertexBufferE26GfxDefaultVertexBufferTypej
NAi:_Array_InternalArray__ICollection_Contains_TisInt64_t3736567304_m2911357929_gshared
k$b:__ZNK6Camera16GetTargetDisplayEv
eEk:_Collection_1_Remove_m3022471627_gshared
dFm:___fseeko_unlocked
GLf:_Object_ToString_m1740002499
XEm:_sscanf
ICd:__ZN5physx3Cct17CapsuleControllerC2ERKNS_16PxControllerDescERNS_9PxPhysicsEPNS_7PxSceneE
Lmb:__ZN14SafeBinaryRead21TransferSTLStyleArrayINSt3__26vectorI17BlendShapeChannelNS1_9allocatorIS3_EEEEEEvRT_17TransferMetaFlags
NWb:__Z17BeginSplashScreenv
dtk:_Array_Resize_TisUILineInfo_t4195266810_m3763058392_gshared
qak:__ZL103MainModule_t2320046318_CustomAttributesCacheGenerator_MainModule_SetStartLifetimeMultiplier_m3747684520P21CustomAttributesCache
Ozg:_SByte_ToString_m3584531119_AdjustorThunk
hxa:__ZN9ShaderLab16SerializedShader8TransferI19StreamedBinaryWriteILb0EEEEvRT_
hid:__ZNK4PPtrI7Joint2DEcvPS0_Ev
pN:__ZN7mecanim9animation18CreateAvatarMemoryEPKNS0_14AvatarConstantERNS_6memory9AllocatorE
o8f:_Convert_ToInt32_m1876369743
tEg:_ModulusRing__ctor_m2420310199
Egg:_Convert_ToDateTime_m626620011
h1i:_DefaultComparer__ctor_m3289136477_gshared
l5g:_Enumerator_System_Collections_IDictionaryEnumerator_get_Key_m2500634048_AdjustorThunk
L7c:__Z17UpdateSprites2TplIL27ParticleSystemCurveEvalMode2ELS0_4EEvfRK11MinMaxCurveS3_RK23ParticleSystemParticlesPf
bM:__ZN7mecanim8skeleton16SkeletonPoseCopyIN4math4trsXENS2_7affineXEEEvPKNS0_13SkeletonPoseTIT_EEPNS5_IT0_EE
fMb:__Z18Transfer_BlittableI19StreamedBinaryWriteILb0EELb0EaEvRK29SerializationCommandArgumentsR31RuntimeSerializationCommandInfo
iZk:_List_1_Remove_m3037048099_gshared
ZHa:__ZN18GfxFramebufferGLES18GetFramebufferNameERK20GfxRenderTargetSetup
ixm:_GC_print_block_list
OJh:_IPAddress__ctor_m921977496
Woh:_InputField_MoveDown_m1455948167
MJc:__Z30Event_Get_Custom_PropCharacterP12Il2CppObject
aqa:__ZN13PlayableGraph27SchedulePlayableDestructionERK9HPlayable
n5e:_cff_get_mm_var
Tyd:__ZN5physx6shdfnd5ArrayINS_12PxDebugPointENS0_19ReflectionAllocatorIS2_EEE15growAndPushBackERKS2_
BNm:_glGetFramebufferAttachmentParameteriv__wrapper
Lbh:_ChannelServices_GetCurrentChannelInfo_m3041604116
Htf:__Z13RegisterClassI20UnityConnectSettingsEvv
D_g:_InternalEnumerator_1__ctor_m2635640285_AdjustorThunk
aFb:__Z22scripting_array_length17ScriptingArrayPtr
Dtg:_SynchronizedReader_Peek_m148942882
qSe:__ZN8Collider13AwakeFromLoadE17AwakeFromLoadMode
JUk:_Predicate_1_Invoke_m2308795536_gshared
Heb:__ZN14SafeBinaryRead20TransferTypelessDataEjPvi
Oee:__ZN5physx6shdfnd13ReadWriteLockC2Ev
IIl:__ZL25UnresolvedVirtualCall_137P12Il2CppObject16Rect_t2360479859aPK10MethodInfo
hpb:__ZN14SpriteRenderer18UpdateCachedSpriteEb
mhl:_WaypointProgressTracker_Update_m424770052
lcf:_Horizontal_Sweep_Init
PY:__ZN13dynamic_arrayI12SoundChannelLj4EE9push_backERKS0_
Mga:__Z19GetActiveColorSpacev
e1c:__ZN17SizeBySpeedModule8TransferI18StreamedBinaryReadILb0EEEEvRT_
f7e:_UNITY_tt_face_load_kern
YVf:_MonoMethodInfo_GetDeclaringType_m2924452727
_Xb:__ZN13sorted_vectorINSt3__24pairIiN17InstancingBatcher12PropertyTypeEEEN10vector_mapIiS3_NS0_4lessIiEE13stl_allocatorIS4_L18MemLabelIdentifier1ELi16EEE13value_compareESA_E21sort_clear_duplicatesEv
Ukf:__ZZN2UI14CanvasRenderer15InitializeClassEvEN38FunctorImpl_909kCanvasHierarchyChanged4CallEPviR11MessageData
mba:__Z6StrCmpPKcS0_
kvh:_Scrollbar_OnInitializePotentialDrag_m3588541308
yza:__Z21CheckGpuProgramUsable20ShaderGpuProgramType
ikc:__ZN13ProduceHelperI14Texture2DArrayLb0EE7ProduceE10MemLabelId18ObjectCreationMode
Fqm:__ZN6il2cpp2os9Directory20GetFileSystemEntriesERKNSt3__212basic_stringIcNS2_11char_traitsIcEENS2_9allocatorIcEEEESA_iiPi
$2f:_Array_System_Collections_IList_Add_m1063688101
KSe:__ZN5Unity5Joint7SetAxisERK8Vector3f
Xik:__ZL66Navigation_t3049316579_CustomAttributesCacheGenerator_m_SelectOnUpP21CustomAttributesCache
Mdf:__ZN20TextRenderingPrivate19NativeTextGenerator5SetupEv
v6b:__ZNK15SharedLightData24GetFinalShadowResolutionEv
Xnl:_PatternCompiler_EmitAlternationEnd_m2444359097
$_j:__ZL91GameObject_t1113636619_CustomAttributesCacheGenerator_GameObject_get_activeSelf_m1767405923P21CustomAttributesCache
KZd:__ZN5physx6shdfnd8PoolBaseINS_16NpConnectorArrayENS0_19ReflectionAllocatorIS2_EEE15disposeElementsEv
Ltb:__ZN12AspectRatios8TransferI18StreamedBinaryReadILb0EEEEvRT_
e_e:__ZN14PhysicsManager19CreatePvdConnectionEv
$oc:__ZN10GameObject14CopyPropertiesERS_
AKc:__Z44Register_UnityEngine_GUIStyle_get_fixedWidthv
OBi:_Array_InternalArray__ICollection_Remove_TisLink_t544317964_m1280781374_gshared
pqm:__ZNSt3__214__split_bufferIN6il2cpp2os10ThreadImpl10APCRequestERNS_9allocatorIS4_EEEC2EjjS7_
o5f:_BitConverter_DoubleWordsAreSwapped_m1474345095
Lqj:__Z114RuntimeInvoker_Int32_t2950945753_Vector2_t2156229523_Vector2_t2156229523_ContactFilter2D_t3805203441_RuntimeObjectPFvvEPK10MethodInfoPvPS4_
Zib:__ZNK13ScreenManager12IsFullScreenEv
Lag:_FixedSizeArrayListWrapper_set_Capacity_m4221053039
yFm:_rand
dOm:_emscripten_glFramebufferRenderbuffer__wrapper
ftc:__ZN13MeshScripting10CreateMeshE21ScriptingObjectOfTypeI4MeshE
rxl:_ListPool_1__cctor_m3480273184_gshared
TYd:__ZNK5physx12NpConstraint9getActorsERPNS_12PxRigidActorES3_
Byh:_Slider_FindSelectableOnLeft_m1667068522
bpj:__Z56RuntimeInvoker_Void_t1185182177_PropertyName_t3749835189PFvvEPK10MethodInfoPvPS4_
Byf:__ZN23InterfaceActionInvoker1IP25BaseEventData_t3903027533E6InvokeEjP11Il2CppClassP12Il2CppObjectS1_
ori:_Quaternion_INTERNAL_CALL_Internal_ToEulerRad_m1913372122
YFb:__ZN14SafeBinaryRead21TransferSTLStyleArrayINSt3__26vectorI17AnimationCurveTplIfE13stl_allocatorIS4_L18MemLabelIdentifier1ELi16EEEEEEvRT_17TransferMetaFlags
obg:_SynchronizedArrayListWrapper_Contains_m3809499313
mOe:__ZN5physx6shdfnd8PoolBaseIN17PxcPoolMallocData10PoolData16ENS0_19ReflectionAllocatorIS3_EEE15disposeElementsEv
XRe:__ZN9Rigidbody23UpdateInterpolationNodeEv
c8l:__ZN15dense_hashtableINSt3__24pairIK10KeyWrapperINS1_IPK11Il2CppImageP11Il2CppClassEEEjEES9_17ReflectionMapHashIS8_EN14dense_hash_mapIS9_jSD_NS9_14EqualsComparerINS0_8equal_toIS8_EEEENS0_9allocatorISB_EEE9SelectKeyESI_SK_E12expand_arrayEjN21dense_hash_map_traits17integral_constantIbLb0EEE
qCg:_HMACSHA256__ctor_m346174875
xhi:_Color_op_Multiply_m2887457390
R8b:__Z22PrepareOptimizedPlanesPK5PlaneiPKN4math7_float4E
cUg:_InternalEnumerator_1__ctor_m1559487635_gshared
Z4:__ZN11UnityEngine15CloudWebService17WebFileDownloaderINS0_20WebRequestRestClientENS0_23WebRequestRestHeaderMapEE10InitializeERKN4core12basic_stringIcNS5_20StringStorageDefaultIcEEEE
loa:__ZN17UniqueIDGenerator15CreatePureIndexEv
Ew:__ZN11UnityEngine9Animation28GenericAnimationBindingCache15DidReloadDomainEv
Ulb:__ZN16BlitStereoHelper16PrepareEyeRenderEiRK19ShaderPropertySheetRS0_bRK8Vector2fS6_14VRTextureUsage
Mhe:__ZN5physx7NpScene8addActorERNS_7PxActorE
Bub:__ZNSt3__26vectorIN15ResourceManager10DependencyE13stl_allocatorIS2_L18MemLabelIdentifier52ELi16EEE6assignINS_11__wrap_iterIPS2_EEEENS_9enable_ifIXaasr21__is_forward_iteratorIT_EE5valuesr16is_constructibleIS2_NS_15iterator_traitsISC_E9referenceEEE5valueEvE4typeESC_SC_
Pv:__ZN19StreamedBinaryWriteILb0EE8TransferIN7mecanim9animation23BlendDirectDataConstantEEEvRT_PKc17TransferMetaFlags
STl:__ZN15dense_hashtableINSt3__24pairIK10KeyWrapperIPK22Il2CppGenericParameterEP11Il2CppClassEES6_N6il2cpp5utils11PointerHashIS4_EEN14dense_hash_mapIS6_S9_SE_NS6_14EqualsComparerINS0_8equal_toIS5_EEEENS0_9allocatorISA_EEE9SelectKeyESJ_SL_E14squash_deletedEv
Abb:__ZN9ShaderLabL27GetDesiredRenderTextureDescEPK6Camera
FZg:_InternalEnumerator_1_get_Current_m1523142935_AdjustorThunk
Odd:__ZNK12b2MouseJoint17GetReactionTorqueEf
yqk:_Array_InternalArray__Insert_TisMark_t3471605523_m2854535880_gshared
JKa:__ZN6prcoreL29inner_stretch_rgb565_bilinearEPKNS_9InnerInfoE
vnc:__ZZL23RegisterLightPropertiesR22GenericPropertyBindingEN18Wrapper_LightRange13SetFloatValueEPvf
u7j:__ZL52HumanBone_t2465339518_CustomAttributesCacheGeneratorP21CustomAttributesCache
mB:__ZN14SafeBinaryRead21TransferSTLStyleArrayI13dynamic_arrayI11KeyframeTplI11QuaternionfELj4EEEEvRT_17TransferMetaFlags
s2j:__ZL81Scene_t2348375561_CustomAttributesCacheGenerator_Scene_GetNameInternal_m992487900P21CustomAttributesCache
whh:_MethodReturnDictionary__cctor_m278392388
e8:__ZNK9Transform18TransformDirectionERK8Vector3f
fKe:__ZN5physx21PxsBodyTransformVault6updateEv
tZa:__ZNK17ArchiveFileSystem12GetAssetGUIDERK13FileEntryData
qza:__ZNSt3__26vectorIN9ShaderLab20SerializedSubProgram15MatrixParameterENS_9allocatorIS3_EEE21__push_back_slow_pathIKS3_EEvRT_
$Ed:__ZThn12_N5physx3Ext5JointINS_15PxDistanceJointENS_30PxDistanceJointGeneratedValuesEE19onConstraintReleaseEv
P5e:_otv_MarkLigPos_validate
UCh:_PrimalityTests_RabinMillerTest_m1471415870
Nqd:__ZL29GeomMTDCallback_CapsuleConvexRN5physx6PxVec3ERfRKNS_10PxGeometryERKNS_11PxTransformES5_S8_
ORf:_GenericTypeParameterBuilder_GetCustomAttributes_m580748276
wCl:_AnalyticsTracker_get_TP_m2800669040
l_l:__ZN15dense_hashtableINSt3__24pairIK10KeyWrapperIPK11Il2CppClassEPKcEES6_N6il2cpp5utils11PointerHashIS3_EEN14dense_hash_mapIS6_S9_SE_NS6_14EqualsComparerINS0_8equal_toIS5_EEEENS0_9allocatorISA_EEE9SelectKeyESJ_SL_E12resize_deltaEjj
iHm:__ZNK10__cxxabiv120__si_class_type_info27has_unambiguous_public_baseEPNS_19__dynamic_cast_infoEPvi
yEg:_Kernel_LeftShift_m4140742987
uMf:_Assembly_GetManifestResourceInternal_m1224391897
tIa:__Z30AddDefaultStreamsToMeshBuffersR9GfxDeviceR11MeshBuffersj17ShaderChannelMaskS3_
Ska:__ZL16GetInterfaceImpl18UnityInterfaceGUID
WUl:__ZN6il2cpp2vmL17SetupFieldOffsetsENS0_15FieldLayoutKindEP11Il2CppClassjRKNSt3__26vectorIjNS4_9allocatorIjEEEE
sB:__ZNSt3__26vectorIN13AnimationClip15QuaternionCurveE13stl_allocatorIS2_L18MemLabelIdentifier26ELi16EEE10deallocateEv
Ftm:__ZN6il2cpp6icalls8mscorlib6System15MonoCustomAttrs27GetCustomAttributesInternalEP12Il2CppObjectP20Il2CppReflectionTypeb
tXg:_InternalEnumerator_1_get_Current_m1408339225_AdjustorThunk
qbf:_UNITY_TT_Set_MM_Blend
Cja:__GLOBAL__sub_I_runtime_math_random_0_cpp
thl:_InternalAsyncResult_get_FromWrite_m4228047810
Nfj:__Z53RuntimeInvoker_MonoEventInfo_t346866618_RuntimeObjectPFvvEPK10MethodInfoPvPS4_
GHk:_Collection_1_CopyTo_m955200729_gshared
bpd:__ZNK5physx3Cct13BoxController11getPositionEv
_Wb:__ZN14PreloadManager35WaitForAllAsyncOperationsToCompleteEv
cbe:__ZN5physx14NpRigidDynamicC2ERKNS_11PxTransformE
P3i:_EqualityComparer_1__ctor_m1138336971_gshared
Aud:__Z27sweepCCTBox_HeightFieldGeomRKN5physx10PxGeometryERKNS_11PxTransformERKNS_2Gu3BoxERKNS_6PxVec3EfRNS_10PxSweepHitENS_7PxFlagsINS_9PxHitFlag4EnumEtEEf
laa:__ZNK18ScriptingObjectPtr17ToScriptingStringEv
FT:__ZL31InitializeAudioScriptingClassesv
j0b:__Z14SortGUIByDepthP10GUIElementS0_
f0h:_DecoderExceptionFallback_GetHashCode_m1820789965
iVc:__Z19UpdateProceduralTplIL27ParticleSystemCurveEvalMode0EEvRK20DualMinMaxPolyCurvesR23ParticleSystemParticlesPfRKN4math7_float4E
Ekj:__Z69RuntimeInvoker_UInt32_t2560061978_Int32_t2950945753_SByte_t1669577662PFvvEPK10MethodInfoPvPS4_
OM:__ZN12_GLOBAL__N_120ProcessRootMotionMixER33AnimationPlayableEvaluationOutputR35AnimationPlayableEvaluationConstantR32AnimationPlayableEvaluationInputS1_f
Esl:_UriParser__cctor_m3655686731
vqd:__ZN5physx3Cct9SweepTest18updateTouchedGeomsEPKNS0_30InternalCBData_FindTouchedGeomERKNS0_13UserObstaclesERKNS_17PxExtendedBounds3ERKNS_19PxControllerFiltersERKNS_6PxVec3E
yrh:_LayoutRebuilder_U3Cs_RebuildersU3Em__0_m589488547
GXe:_PxCloseExtensions
IBj:__Z53RuntimeInvoker_KeyValuePair_2_t71524366_RuntimeObjectPFvvEPK10MethodInfoPvPS4_
GBb:__ZNK20LocalFileSystemPosix21GetAvailableDiskSpaceEPKcRy
aka:__ZNSt3__26__treeIiNS_4lessIiEENS_9allocatorIiEEE7destroyEPNS_11__tree_nodeIiPvEE
ZAa:__ZNK9GfxDevice14GetWorldMatrixEv
BSg:_InternalEnumerator_1_MoveNext_m3619293991_gshared
wxi:_Transform_set_parent_m786917804
zsm:__ZN15dense_hashtableINSt3__24pairIK10KeyWrapperIPK19Il2CppGenericMethodEP10MethodInfoEES6_N6il2cpp8metadata23Il2CppGenericMethodHashEN14dense_hash_mapIS6_S9_SD_NS6_14EqualsComparerINSC_26Il2CppGenericMethodCompareEEENS0_9allocatorISA_EEE9SelectKeyESH_SJ_E13set_empty_keyERKSA_
fyh:_Slider_get_value_m739683640
Wzb:__Z19scripting_array_new17ScriptingClassPtrjj
Dhg:_Convert_ToInt32_m2128774575
DY:__ZN11SoundHandle13CreateChannelEb
wPi:_WaitCallback_BeginInvoke_m3012509827
Ygb:__ZN14SafeBinaryRead21TransferSTLStyleArrayI13dynamic_arrayI12LightmapDataLj4EEEEvRT_17TransferMetaFlags
sva:__ZNSt3__26vectorIN9ShaderLab20SerializedSubProgram16TextureParameterENS_9allocatorIS3_EEE6assignIPS3_EENS_9enable_ifIXaasr21__is_forward_iteratorIT_EE5valuesr16is_constructibleIS3_NS_15iterator_traitsISA_E9referenceEEE5valueEvE4typeESA_SA_
OYl:__ZN13Il2CppHashMapIN6il2cpp5utils13dynamic_arrayIPK10Il2CppTypeLj4EEEPFvvENS0_8metadata19Il2CppSignatureHashENS9_22Il2CppSignatureCompareENSt3__29allocatorINSC_4pairIK10KeyWrapperIS6_ES8_EEEEEC2EjRKSA_RKSB_
w3k:_List_1_GrowIfNeeded_m1986610496_gshared
pCc:__Z51Quaternion_CUSTOM_INTERNAL_CALL_Internal_ToEulerRadRK11QuaternionfR8Vector3f
Ycj:__Z122RuntimeInvoker_Void_t1185182177_RuntimeObject_RuntimeObject_ContractionU5BU5DU26_t2277527001_Level2MapU5BU5DU26_t359320357PFvvEPK10MethodInfoPvPS4_
Fam:__ZN15dense_hashtableINSt3__24pairIK10KeyWrapperIPK22Il2CppGenericParameterEPK24MonoGenericParameterInfoEES6_N6il2cpp5utils11PointerHashIS4_EEN14dense_hash_mapIS6_SA_SF_NS6_14EqualsComparerINS0_8equal_toIS5_EEEENS0_9allocatorISB_EEE9SelectKeyESK_SM_E15set_deleted_keyERKSB_
Mzg:_SByte_TryParse_m2431806379
TVj:__ZL64ObjectDisposedException_t21392786_CustomAttributesCacheGeneratorP21CustomAttributesCache
chc:__ZN6prcoreL11inner_clearILj2EEEvPhjjj
H_j:__ZL92Debug_t3317548046_CustomAttributesCacheGenerator_Debug_LogWarningFormat_m1153215311____args2P21CustomAttributesCache
oBg:_DSACryptoServiceProvider_get_KeySize_m786836990
_cd:__ZN12b2WheelJoint24SolvePositionConstraintsERK12b2SolverData
h5d:__ZNK5physx2Sc9ClothCore20getNbCollisionPlanesEv
Ch:_emscripten_exit_fullscreen
Coe:__ZN5physx6shdfnd5ArrayINS_9PxBounds3ENS0_15InlineAllocatorILj192ENS0_19ReflectionAllocatorIS2_EEEEE8recreateEj
Xwe:__ZNK5physx23PxsBroadPhaseContextSap7getTypeEv
lMe:__ZNK5physx13GuMeshFactory17getNbHeightFieldsEv
fsk:_Array_qsort_TisBoolean_t97287965_TisBoolean_t97287965_m214793583_gshared
K7i:_Enumerator_System_Collections_IEnumerator_Reset_m1564381721_gshared
h_e:__ZN14PhysicsManager19CreateDynamicsSceneEbb14BroadphaseType16ContactPairsModeRK4AABBi
FLf:_Object_MemberwiseClone_m1474068832
Apm:__ZN6il2cpp6icalls8mscorlib6System6String19InternalAllocateStrEi
ZRc:__Z29Transfer_Blittable_ArrayFieldI8JSONRead11QuaternionfEvRT_R9ArrayInfoRK23StaticTransferFieldInfo
K3f:_Array_SetValue_m282347242
yre:__ZNK5physx2Gu12OBBAABBTestsILb1EEclENS_6shdfnd3aos5Vec3VES5_
tzc:__Z45Register_UnityEngine_Camera_get_targetDisplayv
ymc:__ZNK24RendererAnimationBinding15GenerateBindingERKN4core12basic_stringIcNS0_20StringStorageDefaultIcEEEEbRN11UnityEngine9Animation14GenericBindingE
nKh:_IPv6Address__ctor_m3704187391
E0b:__Z15GetFlareManagerv
cic:__ZN15ApplicationInfo24GetApplicationIdentifierEv
Qpd:__ZN5physx3Cct9SweepTestD2Ev
HVa:__ZN9Behaviour8TransferI18StreamedBinaryReadILb0EEEEvRT_
eK:__ZN8Animator13GetAvatarRootEv
zJl:__ZL25UnresolvedVirtualCall_182P12Il2CppObject40CustomAttributeTypedArgument_t2723150157S1_PK10MethodInfo
czd:__ZN26IntersectAnyVsMeshCallbackILi0ELb0EED2Ev
yDm:___toread
fVb:__ZNSt3__26vectorI10vector_mapIiiNS_4lessIiEE13stl_allocatorINS_4pairIiiEEL18MemLabelIdentifier38ELi16EEES4_IS9_LS7_38ELi16EEE26__swap_out_circular_bufferERNS_14__split_bufferIS9_RSA_EE
WDg:_BigInteger_get_Rng_m3283260184
LHm:___cxa_is_pointer_type
aQ:__ZN8Animator22ScriptingStringToCRC32ERK11ICallString
BWj:__ZL55EventHandler_t1348719766_CustomAttributesCacheGeneratorP21CustomAttributesCache
QM:__ZN7mecanim9animation16EvaluateAvatarDXEPKNS0_14AvatarConstantEPKNS0_11AvatarInputEPNS0_12AvatarMemoryEPNS0_15AvatarWorkspaceEPNS0_12AvatarOutputE
oPa:__ZN4gles20DestroyRenderSurfaceEP7ApiGLESP17RenderSurfaceGLES
wwk:_Array_InternalArray__get_Item_TisKeyValuePair_2_t2530217319_m2886833132_gshared
Awh:_ScrollRect_OnEndDrag_m3202230060
zFc:__Z34Transform_CUSTOM_SetAsFirstSiblingP12Il2CppObject
t5l:__ZNK15dense_hashtableINSt3__24pairIK10KeyWrapperINS1_IPK14Il2CppAssemblyP11Il2CppClassEEEjEES9_17ReflectionMapHashIS8_EN14dense_hash_mapIS9_jSD_NS9_14EqualsComparerINS0_8equal_toIS8_EEEENS0_9allocatorISB_EEE9SelectKeyESI_SK_E10test_emptyEj
Itd:__ZN12_GLOBAL__N_141SphereMeshContactGenerationCallback_ScaleD0Ev
R1c:__ZN21RotationBySpeedModule8TransferI19StreamedBinaryWriteILb0EEEEvRT_
HAd:__ZN5physx3Cct17CapsuleController16setContactOffsetEf
Rcj:__Z63RuntimeInvoker_Void_t1185182177_RuntimeObject_SByte_t1669577662PFvvEPK10MethodInfoPvPS4_
i4j:__ZL57SetupCoroutine_t2062820429_CustomAttributesCacheGeneratorP21CustomAttributesCache
Loh:_InputField_Delete_m3471899192
VUj:__ZL79Convert_t2465617642_CustomAttributesCacheGenerator_Convert_ToUInt64_m1627266664P21CustomAttributesCache
CNj:__ZL91UrlAttribute_t221584584_CustomAttributesCacheGenerator_UrlAttribute_IsContextOK_m1228378186P21CustomAttributesCache
gch:_RemotingConfiguration_get_ProcessId_m2180277012
Xea:__ZN17PersistentManager40GlobalToLocalSerializedFileIndexInternalERK26SerializedObjectIdentifier
S1:__ZN11UnityEngine15CloudWebService17SessionEventQueue14ParseEventDataERKN4core12basic_stringIcNS2_20StringStorageDefaultIcEEEE
tYd:__ZN12GeomQueryAnyIN5physx10PxSweepHitEE7geomHitERKNS0_2Sq17SceneQueryManagerERKNS0_15MultiQueryInputERKNS3_9ShapeDataERKNS0_10PxGeometryERKNS0_11PxTransformENS0_7PxFlagsINS0_9PxHitFlag4EnumEtEEjPS1_fbPNS0_9PxBounds3E
mYk:_List_1_Remove_m2605758101_gshared
xGa:__ZN13TranslateGLES4InitERK12GraphicsCaps16GfxDeviceLevelGL
bSb:__Z29Transfer_Blittable_ArrayFieldI18StreamedBinaryReadILb0EE10ColorRGBAfEvRT_R9ArrayInfoRK23StaticTransferFieldInfo
Ssd:__ZN43CapsuleHeightfieldContactGenerationCallback7onEventEjPj
uTe:__ZThn4_N12MemoryStream4readEPvj
r2l:_NativeTypeAttribute_set_CodegenOptions_m3839252515
I2i:_EqualityComparer_1_get_Default_m180770000_gshared
$mg:_Int64_System_IConvertible_ToUInt16_m848637338_AdjustorThunk
sof:__Z32CustomEventData_CUSTOM_AddUInt32P12Il2CppObjectP12Il2CppStringj
TFi:_Array_InternalArray__IndexOf_TisLink_t544317964_m455584088_gshared
wyk:_Enumerator_get_Current_m2282646120_AdjustorThunk
aOk:_ReadOnlyCollection_1_IndexOf_m2539022912_gshared
iGh:_KeyGeneratedEventHandler__ctor_m1990062371
Lee:__ZN5physx6shdfnd8internal8HashBaseIPNS_13NpVolumeCacheES4_NS0_4HashIS4_EENS1_11HashSetBaseIS4_S6_NS0_9AllocatorELb0EE6GetKeyES8_Lb0EE15reserveInternalEj
Ljk:__ZL66Selectable_t3250028441_CustomAttributesCacheGenerator_m_TransitionP21CustomAttributesCache
rBm:__ZN6il2cpp2os6Memory12AlignedAllocEjj
v$d:__ZN5physx6shdfnd8internal8HashBaseIPKNS_6PxBaseES5_NS0_4HashIS5_EENS1_11HashSetBaseIS5_S7_NS0_9AllocatorELb0EE6GetKeyES9_Lb0EE6createERKS5_Rb
U7i:_Enumerator_get_Current_m2305210644_AdjustorThunk
Cve:__ZN5physx28solveFrictionCoulombPreBlockEPKNS_23PxcSolverConstraintDescEjRNS_16PxcSolverContextE
lzh:_Text_set_alignByGeometry_m3828822280
bvm:__ZN6il2cpp8metadataL7CompareEPK10Il2CppTypeS3_
YHb:__Z18Transfer_BlittableI17RemapPPtrTransferLb0E11ColorRGBA32EvRK29SerializationCommandArgumentsR31RuntimeSerializationCommandInfo
AHh:_HybridDictionary__ctor_m1681134385
Ida:__ZN21ScalableBufferManager11GetInstanceEv
tQb:__Z18Transfer_BlittableI18StreamedBinaryReadILb0EELb1E10ColorRGBAfEvRK29SerializationCommandArgumentsR31RuntimeSerializationCommandInfo
meb:__ZN12CubemapArray23VirtualRedirectTransferER17RemapPPtrTransfer
lRi:_TimeSpan_op_LessThan_m1594498345
Ywc:__ZL27GetComponentsImplementationILb0ELi0EEbR10GameObjectbRK17CompareParametersRK39GetComponentsImplementation_ReturnValue
uGk:_Collection_1_set_Item_m2355850893_gshared
PTb:__ZN9Scripting36IsSystemCollectionsGenericDictionaryE17ScriptingClassPtr
Dvl:_UnityEvent_1_FindMethod_Impl_m322741469_gshared
Gni:_Mathf_LerpAngle_m295352085
eOj:__ZL92ConstructionCallDictionary_t686578562_CustomAttributesCacheGenerator_U3CU3Ef__switchU24map24P21CustomAttributesCache
dXd:__ZN5physx12NpConstraint12actorDeletedEPNS_12PxRigidActorE
fkk:__ZL64Slider_t3903728902_CustomAttributesCacheGenerator_m_WholeNumbersP21CustomAttributesCache
Xxi:_Enumerator_get_Current_m2591725252
T$j:__ZL108TouchScreenKeyboard_t731888065_CustomAttributesCacheGenerator_TouchScreenKeyboard_Open_m231964201____secure4P21CustomAttributesCache
Bca:__ZL16ReadTypeTreeImplILb0EEbR8TypeTreeRK16TypeTreeIteratorRPKhS6_i
FRh:_Interval_Contains_m110351300_AdjustorThunk
whg:_Convert_ToInt32_m3048308591
qw:__ZN25RuntimeAnimatorControllerD2Ev
Slk:__ZL77LayoutUtility_t2745813735_CustomAttributesCacheGenerator_U3CU3Ef__amU24cache6P21CustomAttributesCache
Nth:_RectMask2D_OnCanvasHierarchyChanged_m3195492255
n4h:_DateTimeOffset_Equals_m3030958070
PFd:__ZN5physx2Sc8ShapeSim18reinsertBroadPhaseEv
H8a:__ZNK22BuiltinResourceManager21GetResourceInstanceIDEPKN5Unity4TypeERKN4core12basic_stringIcNS4_20StringStorageDefaultIcEEEE
mBc:__Z42Register_UnityEngine_RectOffset_set_bottomv
ACl:_AnalyticsTracker_BuildParameters_m43920649
jKc:__Z28GUIStyleState_CUSTOM_CleanupP12Il2CppObject
Z1h:_DateTimeFormatInfo_GetMonthName_m2034512315
o2b:__ZN28LightProbeProxyVolumeContext8CopyFromERKS_
x2l:_RequiredByNativeCodeAttribute_set_Optional_m1276771824
fPb:__ZN18StreamedBinaryReadILb1EE8TransferI13dynamic_arrayI8BitFieldLj4EEEEvRT_PKc17TransferMetaFlags
mPk:_ReadOnlyCollection_1_System_Collections_Generic_IListU3CTU3E_Insert_m2489506856_gshared
lia:__ZN23TransformChangeDispatch32QueueTransformChangeIfHasChangedER18TransformHierarchy
MAh:_SimpleCollator_ToDashTypeValue_m6184468
rrj:__Z105RuntimeInvoker_RuntimeObject_Vector3_t3722313464_Vector3_t3722313464_Single_t1397266774_Int32_t2950945753PFvvEPK10MethodInfoPvPS4_
pPa:__ZN7ApiGLES18DeleteRenderbufferERj
zJd:__ZN5physx6shdfnd5ArrayIPvNS0_15InlineAllocatorILj256ENS0_19ReflectionAllocatorINS_16NpConnectorArrayEEEEEE15growAndPushBackERKS2_
TNa:__ZL23ProgramUniformMatrix4fvPK7ApiGLESjiihPKv
yPa:__ZN7ApiGLES13CreateTextureEjj14GraphicsFormatiiiii
v4f:_Array_new_gap_m262136975
Ngd:__Z10b2DistanceP16b2DistanceOutputP14b2SimplexCachePK15b2DistanceInput
jze:__ZN5physx14SingleAABBTaskC2Ev
Yua:__ZN9ShaderLab20SerializedSubProgram15MatrixParameter8TransferI14SafeBinaryReadEEvRT_
_wc:__ZL27GetComponentsImplementationILb0ELi1EEbR10GameObjectbRK17CompareParametersRK39GetComponentsImplementation_ReturnValue
INh:_X509Store__ctor_m275383717
JOk:_ReadOnlyCollection_1_System_Collections_Generic_ICollectionU3CTU3E_Clear_m2844161457_gshared
rBh:_SimpleCollator_LastIndexOfOrdinalIgnoreCase_m2984667899
$9e:_Round_Down_To_Grid
UQe:__ZN5physx12storeIndicesEjjPKjRNS_14PxOutputStreamEb
kQa:__ZN13RenderTexture7ReleaseEv
wPc:__Z18Transfer_BlittableI8JSONReadLb1EN4math12int3_storageEEvRK29SerializationCommandArgumentsR31RuntimeSerializationCommandInfo
Unb:__ZN10MeshFilter23VirtualRedirectTransferER14SafeBinaryRead
rlk:__ZL64LayoutGroup_t2436138090_CustomAttributesCacheGenerator_m_PaddingP21CustomAttributesCache
z0f:_X509CertificateEnumerator_MoveNext_m2269241175
cob:__ZN12MeshRenderer17MainThreadCleanupEv
HUl:__ZN6il2cpp2vmL10InitLockedEP11Il2CppClassRKNS_2os12FastAutoLockE
dTa:__ZN22CreateGpuProgramOutput12CreateParamsEv
QU:__ZN10ObjectPoolIN4FMOD7ChannelENS0_8ChannelIEE7GetFreeEi
dDj:__Z96RuntimeInvoker_RuntimeObject_CustomAttributeNamedArgument_t287865710_RuntimeObject_RuntimeObjectPFvvEPK10MethodInfoPvPS4_
HHf:_FontData_get_font_m2720086288
WTd:__ZNK5physx18NpArticulationLink11getChildrenEPPNS_18PxArticulationLinkEj
TUg:_InternalEnumerator_1_System_Collections_IEnumerator_get_Current_m548105685_gshared
nGa:__ZNK14GfxContextGLES13GetDefaultFBOEv
Nzj:__Z99RuntimeInvoker_Void_t1185182177_UILineInfoU5BU5DU26_t2468919161_Int32_t2950945753_Int32_t2950945753PFvvEPK10MethodInfoPvPS4_
R6f:_Byte_System_IConvertible_ToType_m2251112646
uJj:__ZL77RegionInfo_t1090270226_CustomAttributesCacheGenerator_U3CU3Ef__switchU24map1BP21CustomAttributesCache
etj:__Z81RuntimeInvoker_Char_t3634460470_RuntimeObject_Int32_t2950945753_Int16_t2552820387PFvvEPK10MethodInfoPvPS4_
EHe:__Z15atomIntegrationfPKPN5physx11PxsBodyCoreEPKPNS_12PxsRigidBodyEjPKNS_2Cm13SpatialVectorEPNS_13PxcSolverBodyEPNS_17PxcSolverBodyDataEPS9_RjSH_
w2h:_DateTime_get_Hour_m4153505178_AdjustorThunk
rWb:__ZN14GraphicsHelper5ClearE13GfxClearFlagsRK10ColorRGBAffjR17ShaderPassContext
PWh:_Evidence_Equals_m1478353107
pml:_CostDelegate__ctor_m4027655829
Qde:__ZN5physx13NpRigidStatic11createShapeERKNS_10PxGeometryEPKPNS_10PxMaterialEtNS_7PxFlagsINS_11PxShapeFlag4EnumEhEE
Brc:__Z13GetImagePixelI10ColorRGBAfET_PKhii13TextureFormat15TextureWrapModeS5_ii
x2k:_List_1_System_Collections_IList_set_Item_m1842844683_gshared
KJj:__ZL91BinaryReader_t2428077293_CustomAttributesCacheGenerator_BinaryReader_ReadUInt64_m4059726988P21CustomAttributesCache
jwl:_EventFunction_1__ctor_m4292798223_gshared
Vfm:__ZN6il2cpp2vm6Thread49CheckCurrentThreadForInterruptAndThrowIfNecessaryEv
gai:_Enum_ToObject_m1136033697
Uga:__ZNSt3__23mapIN9ShaderLab16FastPropertyNameEN18UnityPropertySheet11UnityTexEnvENS_4lessIS2_EENS_9allocatorINS_4pairIKS2_S4_EEEEEixERS9_
sOa:__ZNK13TranslateGLES25GetTextureTargetDimensionEj
gMf:_RankException__ctor_m3453633632
BNd:__ZN5physx11NpAggregate22removeActorAndReinsertERNS_7PxActorEb
Tzj:__Z96RuntimeInvoker_Void_t1185182177_Vector3U5BU5DU26_t3038522815_Int32_t2950945753_Int32_t2950945753PFvvEPK10MethodInfoPvPS4_
hMk:_ReadOnlyCollection_1_System_Collections_IList_Remove_m1842121503_gshared
ePe:__ZZL19ExtractHullPolygonsRjRN5physx2Gu9ContainerERKNS0_17ConvexHullBuilderEPS2_S3_EN5Local9FloodFillES3_PKNS0_11AdjTriangleEjPb
Ppg:_File_OpenRead_m2936789020
GEc:__Z47Texture2D_CUSTOM_INTERNAL_CALL_GetPixelBilinearP12Il2CppObjectffR10ColorRGBAf
_9:__ZN9Scripting12LogExceptionE21ScriptingExceptionPtriPKcb
R0j:__ZL95AnimationCurve_t3046754366_CustomAttributesCacheGenerator_AnimationCurve_get_length_m1548433259P21CustomAttributesCache
Gpj:__Z94RuntimeInvoker_Void_t1185182177_RuntimeObject_PlayableGraph_t3515989261_RuntimeObject_IntPtr_tPFvvEPK10MethodInfoPvPS4_
Dj:_emscripten_glVertexAttrib4f
fhl:_WaypointProgressTracker_set_targetPoint_m3708066232
K$g:_InternalEnumerator_1_System_Collections_IEnumerator_Reset_m4072625129_AdjustorThunk
Vya:__ZNSt3__26vectorIN20GpuProgramParameters14ConstantBufferENS_9allocatorIS2_EEE8__appendEj
qOh:_X509CertificateCollection_AddRange_m3683116910
UXg:_InternalEnumerator_1_Dispose_m1837758743_AdjustorThunk
mSl:_CustomEventData_t317522481_marshal_pinvoke_cleanup
RUk:_Predicate_1_Invoke_m2315049893_gshared
lp:FUNCTION_TABLE_vf
pch:_SinkProviderData__ctor_m1624738837
A3b:__ZN11HaloManager21ReleaseGeometryJobMemEP25DynamicVBOGeometryJobData
Dpg:_DirectoryNotFoundException__ctor_m1689636868
Asj:__Z88RuntimeInvoker_RuntimeObject_RuntimeObject_SByte_t1669577662_RuntimeObject_RuntimeObjectPFvvEPK10MethodInfoPvPS4_
jQd:__ZN5physx14NpArticulation26setMaxProjectionIterationsEj
ZBd:__ZN5physx3Cct15ObstacleContext14removeObstacleEj
BMk:_ReadOnlyCollection_1_System_Collections_Generic_IListU3CTU3E_get_Item_m978644313_gshared
RHk:_Collection_1_get_Item_m2253972692_gshared
YTf:_RefEmitPermissionSet_t484390987_marshal_pinvoke_cleanup
YNf:_CustomAttributeTypedArgument_Equals_m2261980307
dI:__ZN7mecanim12statemachine24CreateStateMachineMemoryEPKNS0_20StateMachineConstantERNS_6memory9AllocatorE
FDa:__ZN9GfxDevice18SetGlobalDepthBiasEff
U0l:__ZN6il2cpp6icalls8mscorlib6System8MonoType12get_AssemblyEP20Il2CppReflectionType
rrg:_IsolatedStorageException__ctor_m3386787868
z$c:__ZN4PPtrI12MeshRendererE8TransferI14SafeBinaryReadEEvRT_
qUf:_TypeBuilder_MakeGenericType_m2799607032
QQh:_RepeatContext_get_Start_m1076992038
WRk:_ReadOnlyCollection_1_IndexOf_m3669095250_gshared
Rj:_emscripten_glGetPointerv
pbe:__ZNK5physx15NpActorTemplateINS_14PxRigidDynamicEE13getActorFlagsEv
TTf:_PropertyBuilder_SetValue_m3164486317
lvk:_Dictionary_2_Do_CopyTo_TisKeyValuePair_2_t3842366416_TisRuntimeObject_m1564656153_gshared
DM:__ZN8Animator22ApplyBuiltinRootMotionEv
kmm:__ZN15dense_hashtableI10KeyWrapperIP18Il2CppGenericClassES3_N6il2cpp8metadata22Il2CppGenericClassHashEN14dense_hash_setIS3_S6_NS3_14EqualsComparerINS5_25Il2CppGenericClassCompareEEENSt3__29allocatorIS3_EEE8IdentityESA_SD_E5clearEv
BWb:__Z26ApplyMaterialPassWithCacheRK18SharedMaterialDataR17ShaderPassContextP6ShaderPN9ShaderLab4PassEibPKNS6_10GrabPassesEPNS6_11SubProgramsEPK22DeviceRenderStateBlock
lWe:__ZN5physx7profile8ZoneImplINS_28PxProfileNameProviderForwardEE17handleBufferFlushEPKhj
ejj:__Z55RuntimeInvoker_DateTime_t3738529785_TimeSpan_t881159249PFvvEPK10MethodInfoPvPS4_
yNd:__ZN5physx2Sc5ActorC2ERNS0_16InteractionSceneEhNS0_14IslandNodeInfo4TypeE
uxg:_MulticastDelegate_KPM_m22863605
Sdl:_U3CStartU3Ec__Iterator0_System_Collections_IEnumerator_get_Current_m4021659556
zYg:_InternalEnumerator_1_get_Current_m1897120917_AdjustorThunk
Uwg:_MonoType_ReorderParamArrayArguments_m2458683451
qkh:_FormatterConverter_ToInt16_m4282804414
Ogj:__Z81RuntimeInvoker_Void_t1185182177_Int64_t3736567304_RuntimeObject_Int64_t3736567304PFvvEPK10MethodInfoPvPS4_
vBf:_StandaloneInputModule_ProcessTouchPress_m4019232747
Kpg:_FileStream__ctor_m3151488352
t4f:_Array_swap_m547389985
ifa:__ZN8Renderer23VirtualRedirectTransferER14SafeBinaryRead
NUi:_UInt32_ToString_m2420423038
v$k:_List_1_System_Collections_IList_Add_m634558835_gshared
PRk:_ReadOnlyCollection_1_System_Collections_IList_get_IsFixedSize_m1923250479_gshared
sdk:__ZL105CanvasRenderer_t2598313366_CustomAttributesCacheGenerator_CanvasRenderer_set_popMaterialCount_m1224846275P21CustomAttributesCache
cng:_Int64_System_IConvertible_ToUInt64_m2815650160
mqg:_FileStream_get_Length_m426703983
L4d:__ZN5physx2Sc9ClothCore16setRestPositionsEPKNS_6PxVec4E
pah:_Enumerator__ctor_m1558933899_AdjustorThunk
NWj:__ZL88BigInteger_t2902905090_CustomAttributesCacheGenerator_BigInteger_op_Implicit_m3414367033P21CustomAttributesCache
_Me:__ZN5physx2Gu12TriangleMesh4loadERNS_13PxInputStreamE
C7k:_List_1_Remove_m2092085040_gshared
Ifc:__ZL13MotionHandleriPK27EmscriptenDeviceMotionEventPv
h_g:_InternalEnumerator_1_get_Current_m3993227736_AdjustorThunk
lT:__ZN12AudioManager5ResetEv
X9i:__Z67RuntimeInvoker_Boolean_t97287965_RuntimeObject_SByteU26_t3619038962PFvvEPK10MethodInfoPvPS4_
abj:__Z143RuntimeInvoker_Boolean_t97287965_RuntimeObject_Int32_t2950945753_RuntimeObject_SByte_t1669577662_DoubleU26_t1739162597_ExceptionU26_t3600731591PFvvEPK10MethodInfoPvPS4_
Dpc:__ZN15DirectorManager18ScheduleGraphStartERK14HPlayableGraph
tMk:_ReadOnlyCollection_1_get_Count_m1336304542_gshared
_lk:__ZL111LayoutUtility_t2745813735_CustomAttributesCacheGenerator_LayoutUtility_U3CGetPreferredHeightU3Em__6_m3049688934P21CustomAttributesCache
EMa:__ZN6prcoreL17RemapGenericFloatI17TexFormatRGBAHalf15TexFormatRGHalfEEvPKNS_9InnerInfoE
sam:__ZNK15dense_hashtableINSt3__24pairIK10KeyWrapperIPK14Il2CppAssemblyEPK22Il2CppMonoAssemblyNameEES6_N6il2cpp5utils11PointerHashIS4_EEN14dense_hash_mapIS6_SA_SF_NS6_14EqualsComparerINS0_8equal_toIS5_EEEENS0_9allocatorISB_EEE9SelectKeyESK_SM_E10test_emptyEj
Irm:__ZN6il2cpp6icalls8mscorlib6System11Environment20GetWindowsFolderPathEi
_fg:_Convert_ToBoolean_m2833752130
O4e:_UNITY_FT_Stream_ReadFields
TG:__ZN7mecanim5human18HumanPoseBlendNodeERNS0_9HumanPoseEPS1_f
i4e:_UNITY_FT_RoundFix
c1:__ZN23CloudWebServicesManager23VirtualRedirectTransferER17RemapPPtrTransfer
pym:_GC_is_heap_ptr
$A:__Z14resize_trimmedINSt3__26vectorI24CompressedAnimationCurve13stl_allocatorIS2_L18MemLabelIdentifier26ELi16EEEEEvRT_j
Jud:__ZNK5physx2Gu15HeightFieldUtil12traceSegmentI24ConvexVsHeightfieldSweepLb0ELb0ELb1EEEvRKNS_6PxVec3ES6_PT_PS5_
DDh:_ASN1_DecodeTLV_m1200977460
Gki:_UnityEventBase_PrepareInvoke_m1785382128
PLe:__ZNK5physx12PxConvexMesh19getConcreteTypeNameEv
qPk:_ReadOnlyCollection_1_System_Collections_Generic_IListU3CTU3E_set_Item_m1584697503_gshared
eob:__ZNK12MeshRenderer22GetTypeVirtualInternalEv
B8f:_Char_System_IConvertible_ToUInt32_m3901815580
Fuh:_Scrollbar_set_onValueChanged_m346467699
nnd:__ZN13ProduceHelperI13BoxCollider2DLb0EE7ProduceE10MemLabelId18ObjectCreationMode
ivd:__ZN5physx2Gu19gjkLocalPenetrationINS0_9TriangleVENS0_17ShrunkConvexHullVEEEjRKT_RKT0_RKNS_6shdfnd3aos6FloatVERNSB_5Vec3VESG_SG_RSC_PhSI_Rhb
mjj:__Z157RuntimeInvoker_Int32_t2950945753_RuntimeObject_Int32_t2950945753_Int32_t2950945753_Int32_t2950945753_SByte_t1669577662_SByte_t1669577662_Int32U26_t1369213839PFvvEPK10MethodInfoPvPS4_
exl:_ListPool_1_Release_m957266927_gshared
SOj:__ZL105ConfigHandler_t4192437216_CustomAttributesCacheGenerator_ConfigHandler_ValidatePath_m3895556516____paths1P21CustomAttributesCache
TV:__ZN4FMOD6System17setSoftwareFormatEi17FMOD_SOUND_FORMATii18FMOD_DSP_RESAMPLER
Qwd:__ZN5physx2Gu15GJKLocalRayCastERNS0_9TriangleVERNS0_4BoxVERKNS_6shdfnd3aos6FloatVERKNS6_5Vec3VESC_RS7_RSA_SE_fb
rPe:__ZN5physx18AdjacenciesBuilderC2Ev
NFd:__ZN5physx2Sc13ShapeIterator4initERKNS0_8ActorSimE
zta:__ZN14SafeBinaryRead19TransferSTLStyleMapINSt3__23mapIN4core12basic_stringIcNS3_20StringStorageDefaultIcEEEES7_NS1_4lessIS7_EE13stl_allocatorINS1_4pairIKS7_S7_EEL18MemLabelIdentifier1ELi16EEEEEEvRT_17TransferMetaFlags
Ajf:__ZN2UI6Canvas27UpdateEventIndexesRecursiveERi
BF:__ZN7mecanim9animation18EvaluateRootMotionERKNS0_18ClipMuscleConstantERKNS0_15ClipMuscleInputEPKfS8_RNS0_12MotionOutputEb
Y1:__ZN11UnityEngine15CloudWebService16SessionContainer21PrepareDataErrorEventERN4core12basic_stringIcNS2_20StringStorageDefaultIcEEEE
Jyf:_ExecuteEvents_get_pointerUpHandler_m3515704212
w9f:_ArrayList_set_Item_m2003485935
xsm:__ZNSt3__218uninitialized_copyIPNS_4pairIK10KeyWrapperIPK19Il2CppGenericMethodEP10MethodInfoEESB_EET0_T_SD_SC_
RZf:_SatelliteContractVersionAttribute__ctor_m3630863995
SUj:__ZL79Convert_t2465617642_CustomAttributesCacheGenerator_Convert_ToUInt64_m3102114524P21CustomAttributesCache
CAf:_MouseButtonEventData_PressedThisFrame_m1060658845
iwf:_AxisEventData_get_moveVector_m270528189
BMb:__Z19TransferField_ArrayI19StreamedBinaryWriteILb0EE27Converter_SimpleNativeClassI8GUIStyleEEvRK23StaticTransferFieldInfoR31RuntimeSerializationCommandInfoRT0_
AMk:_ReadOnlyCollection_1_System_Collections_Generic_IListU3CTU3E_RemoveAt_m3969985996_gshared
_7j:__ZL83AudioSource_t3935305588_CustomAttributesCacheGenerator_AudioSource_Play_m3389845180P21CustomAttributesCache
L$d:__ZN5physx14NpArticulationC2Ev
wQm:_emscripten_glCopyTexSubImage2D__wrapper
Sib:__ZNK13ScreenManager12GetIsFocusedEv
DJf:_GraphicRegistry_GetGraphicsForCanvas_m4219276355
olg:_NumberFormatter_FastToDecHex_m699829267
kPc:__Z35Transfer_Blittable_FixedBufferFieldI8JSONReadiEvRK29SerializationCommandArgumentsR31RuntimeSerializationCommandInfo
Fxa:__ZN15SerializeTraitsIN9ShaderLab16FastPropertyNameEE8TransferI19StreamedBinaryWriteILb0EEEEvRS1_RT_
PZc:__ZN22ParticleSystemRenderer16UpdateCachedMeshEv
zPj:__ZL59StreamingContext_t3711869237_CustomAttributesCacheGeneratorP21CustomAttributesCache
X$l:__ZNSt3__213__vector_baseIN6il2cpp2os19SocketHandleWrapperENS_9allocatorIS3_EEED2Ev
hHj:__ZL48_Type_t3588564251_CustomAttributesCacheGeneratorP21CustomAttributesCache
d0c:__ZN12LightsModule8TransferI24GenerateTypeTreeTransferEEvRT_
Chk:__ZL81FontUpdateTracker_t1839077620_CustomAttributesCacheGenerator_U3CU3Ef__mgU24cache0P21CustomAttributesCache
Rc:invoke_viiffi
yJj:__ZL103RegionInfo_t1090270226_CustomAttributesCacheGenerator_RegionInfo_t1090270226____NativeName_PropertyInfoP21CustomAttributesCache
sdc:__ZN13sorted_vectorINSt3__24pairIN4core12basic_stringIcNS2_20StringStorageDefaultIcEEEEPK17MessageIdentifierEEN10vector_mapIS6_S9_NS0_4lessIS6_EENS0_9allocatorISA_EEE13value_compareESF_E10insert_oneERKSA_
CM:__ZNSt3__227__insertion_sort_incompleteIRPFbPKN8Animator11AnimatorJobES4_EPS4_EEbT0_S9_T_
J1:__ZNSt3__26__treeINS_12__value_typeIN4core12basic_stringIcNS2_20StringStorageDefaultIcEEEEjEENS_19__map_value_compareIS6_S7_NS_4lessIS6_EELb1EEE13stl_allocatorIS7_L18MemLabelIdentifier88ELi16EEE4findIS6_EENS_15__tree_iteratorIS7_PNS_11__tree_nodeIS7_PvEEiEERKT_
KZf:_ResourceSet_ReadResources_m3663669011
zni:_Mathf_CeilToInt_m432108984
jeb:__ZNK12CubemapArray20GetRuntimeMemorySizeEv
WQi:_TimeSpan_FromHours_m1109641064
EUa:__ZN9GfxDevice5FlushEv
Wva:__Z14resize_trimmedINSt3__26vectorIN9ShaderLab18SerializedPropertyENS0_9allocatorIS3_EEEEEvRT_j
tHb:__Z18Transfer_BlittableI17RemapPPtrTransferLb0EN4math12int3_storageEEvRK29SerializationCommandArgumentsR31RuntimeSerializationCommandInfo
T6c:__Z20UpdateWholeSheet2TplIL27ParticleSystemCurveEvalMode3ELS0_3EEvfRK11MinMaxCurveS3_RK23ParticleSystemParticlesPf
Zge:__ZN5physx6shdfnd8PoolBaseINS_2Sc9ActorPairENS0_19ReflectionAllocatorIS3_EEE12allocateSlabEv
UZl:__ZN6il2cpp2vm13MetadataCache38GetMethodInfoFromMethodDefinitionIndexEi
uxf:_EventSystem_set_current_m38955169
gFk:_Collection_1_System_Collections_IList_Add_m3550619379_gshared
Alh:_TypeMetadata__ctor_m646635308
sml:_CostDelegate_EndInvoke_m2797921932
Qjb:__ZN10VertexData8TransferI24GenerateTypeTreeTransferEEvRT_
_8h:_Double_IsInfinity_m820013146
L5f:__ZN21InterfaceFuncInvoker1I19Decimal_t2948259380P12Il2CppObjectE6InvokeEjP11Il2CppClassS2_S2_
csm:__ZN13Il2CppHashMapIPK19Il2CppGenericMethodP10MethodInfoN6il2cpp8metadata23Il2CppGenericMethodHashENS6_26Il2CppGenericMethodCompareENSt3__29allocatorINS9_4pairIK10KeyWrapperIS2_ES4_EEEEEC2EjRKS7_RKS8_
i$k:_List_1_TrimExcess_m440552561_gshared
evi:_Screen_get_dpi_m495672463
xNi:_UTF8Encoding_InternalGetByteCount_m2120178851
Tyi:_Vector3__ctor_m1719387948
l8b:__ZL10CullLightsRK22SceneCullingParametersR11CullResults
$ig:_Convert_ToUInt64_m3170916409
mTl:_MainModule_SetStartLifetimeMultiplier_m3747684520
_H:__ZN7mecanim12statemachine20GetBlendTreeConstantERKNS0_13StateConstantEi
aie:__ZN5physx7NpScene21setDominanceGroupPairEhhRKNS_20PxDominanceGroupPairE
Pmg:_Int64_System_IConvertible_ToInt16_m4062196970_AdjustorThunk
oxg:_MonoType_GetGenericTypeDefinition_m3201894896
Zgc:__Z40GetTemporaryCachePathApplicationSpecificv
LBa:__ZN9GfxDevice16EndAsyncJobFrameEv
guj:__Z99RuntimeInvoker_Int32_t2950945753_Ray_t3785851493_RuntimeObject_Single_t1397266774_Int32_t2950945753PFvvEPK10MethodInfoPvPS4_
P8l:__ZNK15dense_hashtableINSt3__24pairIK10KeyWrapperINS1_IPK12PropertyInfoP11Il2CppClassEEEjEES9_17ReflectionMapHashIS8_EN14dense_hash_mapIS9_jSD_NS9_14EqualsComparerINS0_8equal_toIS8_EEEENS0_9allocatorISB_EEE9SelectKeyESI_SK_E10test_emptyERK30dense_hashtable_const_iteratorISB_S9_SD_SM_SI_SK_E
_6e:_UNITY_tt_face_load_hhea
KPf:_DerivedType_get_Assembly_m2979298667
Ol:___syscall3
S9d:__ZNK5physx15NpActorTemplateINS_16PxParticleSystemEE7getNameEv
Gqj:__Z135RuntimeInvoker_RaycastHit2D_t2279581989_Vector2_t2156229523_Vector2_t2156229523_Single_t1397266774_Int32_t2950945753_Single_t1397266774PFvvEPK10MethodInfoPvPS4_
Rl:___syscall6
gDa:__ZN9GfxDevice15GetNextCPUFenceEv
Tl:___syscall4
X2:__ZN11UnityEngine15CloudWebService20WebRequestRestClient17GetResponseStatusEv
Rhh:_ReturnMessage__ctor_m2352989078
M2l:__ZN6il2cpp2vm7Runtime9SetConfigEPKc
BCb:__ZNSt3__26__treeINS_12__value_typeIN4core12basic_stringIcNS2_20StringStorageDefaultIcEEEEPN16MemoryFileSystem4NodeEEENS_19__map_value_compareIS6_SA_NS_4lessIS6_EELb1EEE13stl_allocatorISA_L18MemLabelIdentifier55ELi16EEE7destroyEPNS_11__tree_nodeISA_PvEE
GFj:__ZL70RuntimeArray_CustomAttributesCacheGenerator_Array_get_Length_m21610649P21CustomAttributesCache
Unm:__ZN6il2cpp2vm3RCW14QueryInterfaceILb1EEEP14Il2CppIUnknownP15Il2CppComObjectRK10Il2CppGuid
wKg:_TlsServerCertificateRequest__ctor_m1334974076
jhd:__ZNSt3__26__sortIR24RayHitsByDepthComparitorP12RaycastHit2DEEvT0_S5_T_
xad:__ZN27PerformanceReportingManager23VirtualRedirectTransferER14SafeBinaryRead
zhg:_Convert_ToInt32_m1613163543
tAj:__Z52RuntimeInvoker_TimeSpan_t881159249_Int32_t2950945753PFvvEPK10MethodInfoPvPS4_
osh:_MatEntry__ctor_m1949610076
jxc:__ZN9Scripting25BroadcastScriptingMessageER10GameObjectPKc18ScriptingObjectPtr
gm:_emscripten_glShaderBinary
Y5j:__ZL80Logger_t274032455_CustomAttributesCacheGenerator_U3ClogEnabledU3Ek__BackingFieldP21CustomAttributesCache
j3:__ZN15DownloadHandler19OnFinishReceiveDataEv
UTi:_UInt16_ToString_m760649087
yBb:__ZNK20LocalFileSystemPosix6ExistsERK13FileEntryData
ZOk:_ReadOnlyCollection_1_System_Collections_ICollection_get_IsSynchronized_m4218941308_gshared
Pjj:__Z21RuntimeInvoker_Guid_tPFvvEPK10MethodInfoPvPS4_
Nkj:__Z46RuntimeInvoker_CipherAlgorithmType_t1174400495PFvvEPK10MethodInfoPvPS4_
ELd:__ZN5physx35NpArticulationJointGetBodiesFromScbERNS_3Scb17ArticulationJointERPNS0_4BodyES5_
iLe:__ZNK5physx2Sc15ClothFabricCore16getTetherLengthsEPfj
_gi:_Camera_GetAllCameras_m668492922
Obk:__ZL109Physics_t2310948930_CustomAttributesCacheGenerator_Physics_RaycastAll_m3084184534____queryTriggerInteraction4P21CustomAttributesCache
Xmf:__Z58Register_UnityEngine_Canvas_GetETC1SupportedCanvasMaterialv
kRi:_TimeSpan_op_Inequality_m2467851530
_Ob:__ZN17AnimationCurveTplIfE8TransferI18StreamedBinaryReadILb1EEEEvRT_
buk:_Array_Sort_TisUIVertex_t4057497605_m3996333845_gshared
dLg:_Context_get_ReceivedConnectionEnd_m4011125537
bVh:_ToBase64Transform_get_CanReuseTransform_m702204640
uel:_Hose__ctor_m515798238
_5:__Z17DebugStringToFilePKciS0_i15LogMessageFlagsiiPFvRK11CppLogEntryE
$oj:__Z53RuntimeInvoker_PropertyName_t3749835189_RuntimeObjectPFvvEPK10MethodInfoPvPS4_
jzg:_SByte_System_IConvertible_ToDouble_m2381680501
O4f:_Swapper_BeginInvoke_m1688449973
kji:_Display_get_renderingWidth_m1970428952
Rme:__ZN5physx2Sc13ConstraintSim8getForceERNS_6PxVec3ES3_
obk:__ZL78Physics_t2310948930_CustomAttributesCacheGenerator_Physics_Raycast_m4145022031P21CustomAttributesCache
R$a:__ZN16LevelGameManager23VirtualRedirectTransferER19StreamedBinaryWriteILb0EE
Rkj:__Z81RuntimeInvoker_Void_t1185182177_RuntimeObject_Int32_t2950945753_Int64_t3736567304PFvvEPK10MethodInfoPvPS4_
Ljb:__Z32TransferEnumWithNameForceIntSizeI14SafeBinaryRead16GfxPrimitiveTypeEvRT_RT0_PKc17TransferMetaFlags
zca:__ZN13dynamic_arrayIcLj1EE6insertEPcPKcS3_
s4j:__ZL92Mesh_t3648964284_CustomAttributesCacheGenerator_Mesh_SetTriangles_m2205169959____baseVertex3P21CustomAttributesCache
Oxj:__Z52RuntimeInvoker_Int32_t2950945753_HitInfo_t3229609740PFvvEPK10MethodInfoPvPS4_
qhj:__Z86RuntimeInvoker_Boolean_t97287965_Int16_t2552820387_Int16_t2552820387_Int32_t2950945753PFvvEPK10MethodInfoPvPS4_
pTj:__ZL80Convert_t2465617642_CustomAttributesCacheGenerator_Convert_ToBoolean_m2807110707P21CustomAttributesCache
xqd:__ZN5physx15PxGeometryQuery18computePenetrationERNS_6PxVec3ERfRKNS_10PxGeometryERKNS_11PxTransformES6_S9_
ywl:_IndexedSet_1_IndexOf_m241693686_gshared
BJk:_Collection_1_System_Collections_IList_Add_m1802516464_gshared
iqf:__ZN11UnityEngine15PlatformWrapper30GetGraphicsDriverLibraryStringEv
Syg:_RuntimeMethodHandle_Equals_m3301340296_AdjustorThunk
jVi:_UInt64_System_IConvertible_ToSingle_m925613075_AdjustorThunk
L_e:__ZN5Unity12PhysicsQueryC2Ev
TGl:__ZL24UnresolvedVirtualCall_40P12Il2CppObjectS0_PK10MethodInfo
zxl:_ListPool_1__cctor_m704263611_gshared
uQb:__Z18Transfer_BlittableI18StreamedBinaryReadILb0EELb0E4AABBEvRK29SerializationCommandArgumentsR31RuntimeSerializationCommandInfo
Gub:__ZN24GenerateTypeTreeTransfer19TransferSTLStyleMapINSt3__28multimapIN4core12basic_stringIcNS3_20StringStorageDefaultIcEEEE4PPtrI6ObjectENS1_4lessIS7_EE13stl_allocatorINS1_4pairIKS7_SA_EEL18MemLabelIdentifier52ELi16EEEEEEvRT_17TransferMetaFlags
mO:__ZN16MecanimAnimation24DeleteAnimatedPropertiesERP26IAnimatedPropertyEvaluator
MMl:_CanvasRenderer_SetMaterial_m824577244
Fpk:__ZL116U3CActivateU3Ec__Iterator0_t2664723090_CustomAttributesCacheGenerator_U3CActivateU3Ec__Iterator0_Dispose_m3341836850P21CustomAttributesCache
R$c:__ZN11ColorModule8TransferI24GenerateTypeTreeTransferEEvRT_
V_b:__Z14DrawGUITextureRK5RectTIfEP7Texture11ColorRGBA32P8Materiali
z$j:__ZL84RectOffset_t1369453676_CustomAttributesCacheGenerator_RectOffset_Cleanup_m2552807639P21CustomAttributesCache
wMk:_ReadOnlyCollection_1_System_Collections_Generic_ICollectionU3CTU3E_Add_m2686599243_gshared
oL:__ZN9BlobWrite8TransferI22OffsetPtrArrayTransferIKN4math7_float4EEEEvRT_PKc17TransferMetaFlags
I$b:__ZN22RenderingCommandBuffer20ExecuteCommandBufferER17ShaderPassContextR15RenderNodeQueuejP13dynamic_arrayINSt3__24pairIN9ShaderLab16FastPropertyNameEP13RenderTextureEELj4EE16ComputeQueueTypeSA_
Txi:_Transform_IsChildOf_m224006092
wab:__ZN15TextureSettings8TransferI24GenerateTypeTreeTransferEEvRT_
VOc:__ZN9JSONWrite8TransferI4AABBEEvRT_PKc17TransferMetaFlags
e_a:__ZN25MultiBlocksMemoryFileData9SetLengthEy
uyj:__Z58RuntimeInvoker_Void_t1185182177_ContactPoint2D_t3390240644PFvvEPK10MethodInfoPvPS4_
YYk:_List_1_Clear_m2154023298_gshared
dwf:_AbstractEventData_get_used_m2991176710
$Wg:_InternalEnumerator_1_get_Current_m3191242573_AdjustorThunk
Duj:__Z94RuntimeInvoker_Void_t1185182177_ObjectU5BU5DU26_t712384779_Int32_t2950945753_Int32_t2950945753PFvvEPK10MethodInfoPvPS4_
fyj:__Z71RuntimeInvoker_Void_t1185182177_CustomAttributeNamedArgument_t287865710PFvvEPK10MethodInfoPvPS4_
pIe:__ZNK18ScBeforeSolverTask7getNameEv
Qid:__ZN10Collider2D13AwakeFromLoadE17AwakeFromLoadMode
gvk:_Dictionary_2_Do_ICollectionCopyTo_TisRuntimeObject_m1855083806_gshared
gBl:_Aes__ctor_m178909601
mfb:__ZNK9Texture2D20GetRuntimeMemorySizeEv
vGc:__ZN11Marshalling39CreateNullExceptionForUnityEngineObjectE18ScriptingObjectPtr
zve:__ZN5physx14solve1D4_BlockEPKNS_23PxcSolverConstraintDescEjRNS_16PxcSolverContextE
$Kc:__ZN5Unity9rapidjson13GenericReaderINS0_4UTF8IcEES3_13JSONAllocatorE9ParseTrueILj0ENS0_19GenericStringStreamIS3_EENS0_15GenericDocumentIS3_S4_S4_EEEEvRT0_RT1_
w5k:_List_1_Clear_m2003943277_gshared
qn:_emscripten_glUniform2iv
KIg:_CipherSuite_get_Context_m1621551997
XUd:__ZN5physx2Sc8ShapeSim17onTransformChangeEv
Wqd:__ZL33GeomMTDCallback_ConvexHeightFieldRN5physx6PxVec3ERfRKNS_10PxGeometryERKNS_11PxTransformES5_S8_
z3k:__ZN21InterfaceFuncInvoker0I34ParticleCollisionEvent_t4055032941E6InvokeEjP11Il2CppClassP12Il2CppObject
vMi:_UnicodeEncoding_CopyChars_m785272451
z6i:_Enumerator_Dispose_m1204547613_AdjustorThunk
F1e:_UNITY_FT_Outline_Transform
AEc:__Z60Register_UnityEngine_Sprites_DataUtility_Internal_GetMinSizev
iVl:__ZN6il2cpp2vm5Class10GetMethodsEP11Il2CppClassPPv
q5i:_EqualityComparer_1_System_Collections_IEqualityComparer_Equals_m477570191_gshared
Nuf:__ZNK25UnityWebRequestJavaScript17GetUploadProgressEv
j4b:__Z30AddDefaultStreamsToMeshBuffersR9GfxDeviceR11MeshBuffersRK16DrawBuffersRange17ShaderChannelMaskS6_
ESc:__Z43ParticleSystemRenderer_RenderMultipleMeshesIL21SpriteMaskInteraction1EEvRK15RenderNodeQueueRK18RenderMultipleData17ShaderChannelMask
R0k:_List_1_GetEnumerator_m1430071802_gshared
DOa:__ZN7ApiGLES17DeleteFramebufferERN2gl6HandleILNS0_10ObjectTypeE9EEES3_
fSa:__ZN15UniformTFMethod13MapBoneBufferEj
vif:__ZN2UI14CanvasRendererD2Ev
Pwk:_Array_InternalArray__get_Item_TisParameterModifier_t1461694466_m29553316_gshared
fng:_Int64_CompareTo_m1928360444_AdjustorThunk
GAe:__ZN5physx26PxcPCMContactCapsuleConvexERKNS_2Gu13GeometryUnionES3_RKNS_11PxTransformES6_RKfRNS_10PxcNpCacheERNS0_13ContactBufferE
zbm:__ZN15dense_hashtableINSt3__24pairIK10KeyWrapperINS1_IPK9EventInfoP11Il2CppClassEEEjEES9_17ReflectionMapHashIS8_EN14dense_hash_mapIS9_jSD_NS9_14EqualsComparerINS0_8equal_toIS8_EEEENS0_9allocatorISB_EEE9SelectKeyESI_SK_E15set_deleted_keyERKSB_
zVb:__Z9SetupArgviPPKc
Phg:_Convert_ToInt64_m2075031821
lxb:__ZN13dynamic_arrayIP10UnitySceneLj4EE9push_backERKS1_
oWg:_InternalEnumerator_1__ctor_m236665673_gshared
yjh:_RemotingException__ctor_m1015537352
PPi:_Scheduler__cctor_m4042462055
fCl:_AnalyticsEventTracker_OnDisable_m1553012800
tRm:_glTexParameteri__wrapper
COd:__ZN5physx10PxsContext17addParticleSystemEPNS_15PxsParticleDataERKNS_26PxvParticleSystemParameterEb
yMd:__ZN5physx3Scb5Scene13addRigidNoSimINS0_4BodyELb1ELb1EEEvRT_RNS0_13ObjectTrackerE
Tea:__ZN12ImmediatePtrI10GameObjectE8TransferI19StreamedBinaryWriteILb0EEEEvRT_
neb:__ZN12CubemapArray23VirtualRedirectTransferER24GenerateTypeTreeTransfer
BGl:__ZL24UnresolvedVirtualCall_22P12Il2CppObjectS0_iS0_S0_S0_PK10MethodInfo
fda:__ZN12FileAccessor4OpenER15FileSystemEntry14FilePermission16FileAutoBehavior
f5a:__ZNSt3__26vectorI4PPtrI6ShaderE13stl_allocatorIS3_L18MemLabelIdentifier53ELi16EEE8__appendEj
Eqm:__ZN6il2cpp2os9Directory6CreateERKNSt3__212basic_stringIcNS2_11char_traitsIcEENS2_9allocatorIcEEEEPi
Mwa:__ZN4PPtrI6ShaderE8TransferI18StreamedBinaryReadILb0EEEEvRT_
gwd:__ZL19sweepBoxVsTrianglesjPKN5physx10PxTriangleERKNS_2Gu3BoxERKNS_6PxVec3EfRNS_10PxSweepHitENS_7PxFlagsINS_9PxHitFlag4EnumEtEEbPKj
kia:__ZN23TransformChangeDispatch32QueueTransformChangeIfHasChangedERK15TransformAccess
mZe:_PxCreateCooking
udb:__ZNSt3__26vectorINS_4pairIN9ShaderLab16FastPropertyNameEN18UnityPropertySheet11UnityTexEnvEEENS_9allocatorIS6_EEE21__push_back_slow_pathIKS6_EEvRT_
PZa:__ZN15ArchiveReadFile5WriteEyPKvPy
qMf:_Assembly_get_FullName_m293988418
jod:__ZN22WorldContactListener2D8PreSolveEP9b2ContactPK10b2Manifold
bvc:__Z15WeldVertexArrayR13dynamic_arrayI8Vector3fLj4EERS_I12BoneWeights4Lj4EERS_IjLj4EES7_
Kbg:_BitArray_get_IsSynchronized_m3546284417
B:tempValue
Uec:__Z29StdTemplateConversionFunctionIaiEbPvR14SafeBinaryRead
bCm:__ZN6il2cpp8metadata24Il2CppGenericContextHash4HashEPK20Il2CppGenericContext
HWg:_InternalEnumerator_1_get_Current_m356936020_AdjustorThunk
WHk:_Collection_1_CheckWritable_m1583234367_gshared
umg:_Int32_ToString_m141394615_AdjustorThunk
Gaa:__Z29scripting_class_from_fullnamePKcS0_S0_
hpg:_Directory_GetCurrentDirectory_m219218555
Fxi:_Transform_TransformDirection_m3784028109
g1f:_SmallXmlParser_UnexpectedEndError_m1914362401
xI:__ZN26AnimatorControllerPlayable18DeallocateBindingsEv
ePj:__ZL61FormatterTypeStyle_t3400733584_CustomAttributesCacheGeneratorP21CustomAttributesCache
drd:__ZN5physx2Gu29ConvexVsMeshContactGeneration20generateLastContactsEv
yZc:__ZNK4PPtrI12MeshRendererEptEv
hrj:__Z85RuntimeInvoker_Boolean_t97287965_Ray_t3785851493_Single_t1397266774_Int32_t2950945753PFvvEPK10MethodInfoPvPS4_
kJd:__ZNK5physx2Gu22SupportMapRelativeImplINS0_4BoxVEE14doSupportSweepERKNS_6shdfnd3aos5Vec3VE
uHa:__ZN14DelayedDeletorI15dense_hashtableINSt3__24pairIK9TextureIDiEES3_14GfxGenericHashIS3_EN14GfxDoubleCacheIS3_iS7_NS1_8equal_toIS3_EEN31GfxDoubleCacheConcurrencyPolicy11LocklessGetE42GfxDoubleCacheDefaultEmptyDeletedGeneratorIS3_EE9SelectKeyESA_13stl_allocatorIS5_L18MemLabelIdentifier24ELi16EEEEclEv
UY:__ZN11AudioSource19CreateOpenALRolloffEfff
U6e:_UNITY_FT_Stream_ReadAt
M7d:__ZN5physx2Sc17ParticleSystemSim16getParticleStateEv
mPl:_Physics_Raycast_m3336206959
vHe:__ZN5physx6shdfnd5ArrayINS_25PxsCompoundContactManagerENS0_19ReflectionAllocatorIS2_EEE8recreateEj
jQi:_TimeSpan__ctor_m1896986612_AdjustorThunk
y3i:_EqualityComparer_1_System_Collections_IEqualityComparer_Equals_m1907027006_gshared
E$f:_ArgumentException__ctor_m1216717135
bsi:_Ray_ToString_m1732834890_AdjustorThunk
q7c:__Z19UpdateSingleRow2TplIL27ParticleSystemCurveEvalMode3ELS0_1EEvfRK11MinMaxCurveS3_RK23ParticleSystemParticlesPfbiii
_6d:__ZN5physx22NpParticleBaseTemplateINS_15PxParticleFluidENS_15NpParticleFluidEE18setProjectionPlaneERKNS_6PxVec3Ef
n2k:_List_1_System_Collections_IList_Contains_m3860993176_gshared
rye:__ZN5physx14PxsAABBManagerC2ERNS_2Cm13EventProfilerERNS_19PxcScratchAllocatorE
IZ:__ZN11AudioModule22CreateAudioClipFromWWWEP10IWWWStreamPKcbbi
Llc:__ZN9Texture2DC2E10MemLabelId18ObjectCreationMode
Glh:_ObjectRecord_get_IsUnsolvedObjectReference_m1163921033
YTi:_UInt32_System_IConvertible_ToBoolean_m1763673183_AdjustorThunk
Tui:_SceneManager_INTERNAL_CALL_GetActiveScene_m1427626561
Aki:_UnityEvent_AddListener_m2276267359
Bkf:__Z13RegisterClassIN2UI11CanvasGroupEEvv
jnj:__Z35RuntimeInvoker_RangeInt_t2094684618PFvvEPK10MethodInfoPvPS4_
ehc:__ZN6prcoreL11inner_clearILj4EEEvPhjjj
ig:_emscripten_glClear
Sgh:_MethodCall_get_Args_m148309537
thh:_DictionaryEnumerator_get_Value_m2166220004
Yal:_CameraFollow_Awake_m2220155126
AVj:__ZL72LoaderOptimization_t1484956347_CustomAttributesCacheGenerator_DomainMaskP21CustomAttributesCache
Pbj:__Z74RuntimeInvoker_Void_t1185182177_RuntimeObject_StreamingContext_t3711869237PFvvEPK10MethodInfoPvPS4_
qri:_Quaternion_Euler_m3049309462
QCl:_TriggerRule__ctor_m225466603
$pa:__ZNK8Playable6HandleEv
jnh:_SetPropertyUtility_SetColor_m2229203028
IHm:___cxa_guard_abort
r4g:_Enumerator_MoveNext_m481679286_gshared
n5b:__Z30SetupBakedOcclusionForGeometrybRK26SharedLightmapSettingsDataRK15LightmapIndicesR17ShaderPassContext
lba:__ZN14MessageHandler28MessageIDToMessageIdentifierEi
kkb:__ZNK11SpriteAtlas20GetRuntimeRenderDataEPK6Sprite
Zog:_FileSystemInfo__ctor_m3035148496
LKg:_Context_get_SessionId_m1086671147
wfi:_AssetBundleCreateRequest_t3119663542_marshal_pinvoke_cleanup
Mlg:_Int32_System_IConvertible_ToDecimal_m2190376994_AdjustorThunk
b7i:_KeyValuePair_2_set_Key_m2121548577_AdjustorThunk
UAj:__Z46RuntimeInvoker_RefEmitPermissionSet_t484390987PFvvEPK10MethodInfoPvPS4_
dpj:__Z57RuntimeInvoker_PropertyName_t3749835189_Int32_t2950945753PFvvEPK10MethodInfoPvPS4_
vef:__ZN20TextRenderingPrivate15DynamicFontData36GetFaceForCharacterIfAvailableInFontERKNS_7FontRefERK13dynamic_arrayI4PPtrIN13TextRendering4FontEELj4EEj
vG:__ZN7mecanim14ValueArrayCopyILb0EEEvPKNS_10ValueArrayEPS1_
E0g:_DefaultComparer__ctor_m516312884_gshared
AQ:__Z51Register_UnityEngine_Animator_get_hasBoundPlayablesv
zCk:_Collection_1_CopyTo_m3142835220_gshared
ye:emscriptenWebGLGetUniform
Xp:FUNCTION_TABLE_iiiiiiiiiii
tyl:_GUI_CallWindowDelegate_m3309453386
obh:_ValueCollection_System_Collections_IEnumerable_GetEnumerator_m2535969909_gshared
l5e:_cff_set_mm_blend
kyd:__ZN5physx2Gu19sweepCapsuleCapsuleERKNS0_7CapsuleES3_RKNS_6PxVec3EfRfRS4_S8_jRt
Tte:__ZN5physx2Gu29EPASupportMapPairRelativeImplINS0_9TriangleVENS0_11ConvexHullVEED0Ev
tab:__Z32TransferEnumWithNameForceIntSizeI14SafeBinaryRead13TextureFormatEvRT_RT0_PKc17TransferMetaFlags
U9b:__ZL10CleanUpJobP20CullingGroupsJobData
i4b:__Z20IsRunningNativeTestsv
Uog:_DirectoryInfo_get_Exists_m3142069876
fsb:__ZN11TimeManager23VirtualRedirectTransferER17RemapPPtrTransfer
ILe:__ZN5physx13BigConvexData4LoadERNS_13PxInputStreamE
M_b:__ZN13RenderManager15BatchModeUpdateEv
MUk:_Predicate_1__ctor_m327447107_gshared
FNh:_X509Chain_get_CertificateAuthorities_m804805415
ujb:__ZN14SafeBinaryRead21TransferSTLStyleArrayI13dynamic_arrayI8Vector2fLj4EEEEvRT_17TransferMetaFlags
uKj:__ZL123GenericTypeParameterBuilder_t1988827940_CustomAttributesCacheGenerator_GenericTypeParameterBuilder_IsSubclassOf_m2266644074P21CustomAttributesCache
Wea:__ZN17PersistentManager51InstanceIDToLocalSerializedObjectIdentifierInternalEiR31LocalSerializedObjectIdentifier
cui:_Vector2_get_one_m738793577
Lkd:__ZN10ClipperLib7Clipper15SetWindingCountERNS_5TEdgeE
Drc:__ZNK4Mesh14GetIndexFormatEv
Iyi:_Vector2_get_magnitude_m2752892833_AdjustorThunk
l6i:_GenericEqualityComparer_1__ctor_m4072188982_gshared
HVd:__ZN5physx2Sc8ActorSim24postDominanceGroupChangeEv
Isl:_UriParser_set_DefaultPort_m4007715058
jDl:_FieldWithTarget__ctor_m583221563
ae:_glVertexAttribIPointer
Tli:_Input_GetAxisRaw_m2316819917
WNa:__ZN13dynamic_arrayI21ComputeShaderResourceLj4EE9push_backERKS0_
$rc:__ZNK6Sprite10GetPaddingE20SpriteRenderDataMode
zWd:__ZN5physx2Cm8PtrTable5clearERNS0_22PtrTableStorageManagerE
oCi:_Array_InternalArray__ICollection_Remove_TisUInt32_t2560061978_m733727733_gshared
fAg:_CryptographicException__ctor_m503735289
WBd:__ZN5physx3Cct15ObstacleContext7releaseEv
Yfh:_ConstructionCall_get_CallSiteActivationAttributes_m3498917408
dve:__ZN5physx27solveFrictionBlockWriteBackEPKNS_23PxcSolverConstraintDescEjRNS_16PxcSolverContextEPNS_25PxcThresholdStreamElementEjPi
Pgh:_RemotingConfiguration_get_ApplicationName_m593755586
g9i:__Z93RuntimeInvoker_Boolean_t97287965_Int32_t2950945753_SByte_t1669577662_ExceptionU26_t3600731591PFvvEPK10MethodInfoPvPS4_
d2b:__ZN14qsort_internal5QSortIP15RODataDepthPassi17ROSorterDepthPassEEvT_S4_T0_T1_
E7e:_UNITY_ft_glyphslot_alloc_bitmap
m$e:__ZN13PhysicsModule21SetAutoSyncTransformsEbb
uKk:_ReadOnlyCollection_1_System_Collections_IList_Add_m3642938800_gshared
UNg:_RSASslSignatureDeformatter_SetHashAlgorithm_m895570787
jnm:__ZN14dense_hash_mapI10KeyWrapperIP12Il2CppObjectEN6il2cpp2gc9CachedCCWENS4_5utils11PointerHashIS1_EENS3_14EqualsComparerINSt3__28equal_toIS2_EEEENSB_9allocatorINSB_4pairIKS3_S6_EEEEEC2EjRKS9_RKSE_
Lll:_X509CrlEntry__ctor_m4013514048
QXl:__ZN15dense_hashtableI10KeyWrapperIPK17Il2CppGenericInstES4_N6il2cpp8metadata21Il2CppGenericInstHashEN14dense_hash_setIS4_S7_NS4_14EqualsComparerINS6_24Il2CppGenericInstCompareEEENSt3__29allocatorIS4_EEE8IdentityESB_SE_E16reset_thresholdsEv
Koj:__Z87RuntimeInvoker_Color_t2555686324_Color_t2555686324_Color_t2555686324_Single_t1397266774PFvvEPK10MethodInfoPvPS4_
xcf:_ft_raster1_render
jHc:__Z47Register_UnityEngine_Mesh_RecalculateBoundsImplv
YBa:__ZN9GfxDevice27UpdateComputeSkinPoseBufferEP9GfxBufferP12SkinMeshInfo
MWk:_Enumerator_get_Current_m3382684163_AdjustorThunk
cSg:_InternalEnumerator_1_System_Collections_IEnumerator_Reset_m3677481164_AdjustorThunk
D_h:_String_LastIndexOf_m3451222878
sGm:__ZNKSt3__221__basic_string_commonILb1EE20__throw_length_errorEv
o3i:_EqualityComparer_1_System_Collections_IEqualityComparer_Equals_m245992594_gshared
bk:_JS_SystemInfo_GetMemory
cxh:_Selectable_get_allSelectables_m868218263
EJm:dynCall_fiffifi
jGi:_Array_InternalArray__IndexOf_TisParameterModifier_t1461694466_m1227120810_gshared
EPa:__ZN18GfxFramebufferGLES13ReadbackImageER14ImageReferenceiiiiii
DLc:__ZN5Unity9rapidjson6WriterI16TempBufferWriterNS0_4UTF8IcEES4_13JSONAllocatorE11WriteStringEPKcj
imh:_SerializationInfo_SetType_m3923964808
hLa:__ZN6prcoreL12RemapGenericI17TexFormatARGB888815TexFormatRGB565EEvPKNS_9InnerInfoE
yU:__ZN4FMOD7Channel19setReverbPropertiesEPK29FMOD_REVERB_CHANNELPROPERTIES
cDl:_StandardEventPayload_GetParameters_m2672427676
Nsg:_StreamReader_Dispose_m156389394
W9:__ZN13MonoBehaviour22GetScriptFullClassNameEv
xdm:_il2cpp_object_get_class
WUh:_SymmetricAlgorithm_get_Padding_m1011382560
C_c:__ZN11MinMaxCurve19GetWritableMinCurveEv
iSh:_RIPEMD160Managed_JJ_m112143231
z_k:_List_1_System_Collections_IList_Contains_m727430316_gshared
CHe:__ZN5physx6shdfnd4sortIPNS_15PxsContactPatchENS_27SortBoundsPredicateManifoldENS0_19ReflectionAllocatorIS3_EEEEvPT_jRKT0_RKT1_j
DAc:__Z48Register_UnityEngine_GameObject_BroadcastMessagev
B1b:__ZN13BatchRendererC2ER15RenderLoopStatsRK15RenderNodeQueuebb
s2g:_Comparer_1__ctor_m191896560_gshared
NBh:_PreviousInfo_t2148130204_marshal_pinvoke_back
sCb:__ZNK16MemoryFileSystem9EnumerateEPKcP19dynamic_block_arrayI13FileEntryInfoLj32EEbPPv19FileEnumerationFlag
xTb:__ZN13MonoBehaviour9CallAwakeEv
$8a:__ZN20SphericalHarmonicsL211AddWeightedERKS_f
che:__ZN5physx2Sc24ElementInteractionMarker12onDeactivateEj
icj:__Z82RuntimeInvoker_RuntimeObject_Int64_t3736567304_Int64_t3736567304_Int64_t3736567304PFvvEPK10MethodInfoPvPS4_
uuh:__Z14bankers_roundff
aqk:__ZL90WaypointProgressTracker_t1841386251_CustomAttributesCacheGenerator_lookAheadForSpeedOffsetP21CustomAttributesCache
GIb:__Z19TransferField_ArrayI17RemapPPtrTransfer27Converter_SimpleNativeClassI8GUIStyleEEvRK23StaticTransferFieldInfoR31RuntimeSerializationCommandInfoRT0_
Dsa:__ZL22StaticInitializeShaderPv
nMc:__ZN9JSONWrite8TransferI10ColorRGBAfEEvRT_PKc17TransferMetaFlags
gkm:__ZNK15dense_hashtableINSt3__24pairIK10KeyWrapperIP14Il2CppIUnknownEjEES5_N6il2cpp5utils11PointerHashIS3_EEN14dense_hash_mapIS5_jSB_NS5_14EqualsComparerINS0_8equal_toIS4_EEEENS0_9allocatorIS7_EEE9SelectKeyESG_SI_E10test_emptyERK30dense_hashtable_const_iteratorIS7_S5_SB_SK_SG_SI_E
pBd:__ZN5physx3Cct26CharacterControllerManager16createControllerERKNS_16PxControllerDescE
N_g:_InternalEnumerator_1__ctor_m3913006324_AdjustorThunk
fba:__Z25scripting_method_get_name18ScriptingMethodPtr
dOg:_SslCipherSuite_ComputeKeys_m661027754
ZGb:__Z19TransferField_ArrayI14SafeBinaryRead16Converter_StringEvRK23StaticTransferFieldInfoR31RuntimeSerializationCommandInfoRT0_
Fpi:_Object_set_name_m291480324
cgg:_Convert_ToBoolean_m481380807
vVc:__ZN14ParticleSystem17SimulateParticlesER24ParticleSystemUpdateDataR23ParticleSystemParticlesjRKfPj
A6h:_Decimal_Equals_m2486655999
Lxm:_GC_exit_check
dNf:_AssemblyName_SetPublicKeyToken_m582470133
Yz:__ZN7mecanim9animation9DenseClip8TransferI14SafeBinaryReadEEvRT_
I5c:__ZL24GenerateParticleGeometryIL24ParticleSystemRenderMode0ELb1ELb1EL25ParticleSystemRenderSpace4EEvPfRK22ParticleSystemTempDataRK26ParticleSystemRendererDataRK21ParticleSystemModulesRK23ParticleSystemParticlesRK31ParticleSystemParticlesTempData
Yrd:__ZNK5physx2Gu15OBBTriangleTest10obbTriTestERKNS_6PxVec3ES4_S4_
Yoj:__Z52RuntimeInvoker_Boolean_t97287965_HitInfo_t3229609740PFvvEPK10MethodInfoPvPS4_
CX:__ZNK4PPtrI9AudioClipEcvPS0_Ev
cKk:_Collection_1_set_Item_m11553568_gshared
F8:__Z20UnlockObjectCreationv
IWf:_MonoField_ToString_m2518484388
zEh:_DSAManaged_get_Random_m923751780
_8g:_Transform_1_Invoke_m2385719192_gshared
X8c:__ZN10SizeModuleC2E10MemLabelId
ezi:_Vector3_set_Item_m1772472431_AdjustorThunk
yQh:_Interpreter_PopulateGroup_m4042796257
AFb:__ZN15SerializeTraitsI13dynamic_arrayIyLj8EEE19ResizeSTLStyleArrayERS1_i
rSi:_Type_GetProperty_m3414567179
eim:__ZN6il2cpp2vm13LivenessState25FieldCanContainReferencesEP9FieldInfo
Kdc:__ZNSt3__26vectorINS_4pairIN4core12basic_stringIcNS2_20StringStorageDefaultIcEEEES6_EE13stl_allocatorIS7_L18MemLabelIdentifier38ELi16EEE6insertENS_11__wrap_iterIPKS7_EERSD_
$ki:_RenderPipelineManager_DoRenderLoop_Internal_m3799666479
w1j:__ZL78Sprite_t280657092_CustomAttributesCacheGenerator_Sprite_get_packed_m1179604684P21CustomAttributesCache
fL:__ZN9BlobWrite8TransferI22OffsetPtrArrayTransferI9OffsetPtrIN7mecanim12statemachine18StateMachineMemoryEEEEEvRT_PKc17TransferMetaFlags
rAm:__ZN6il2cpp2os12Cryptography23GetCryptographyProviderEv
S8:__ZN4core8hash_mapIiP6ObjectNS_4hashIiEENSt3__28equal_toIiEEE4growEi
R8:__ZN4core8hash_mapIiP6ObjectNS_4hashIiEENSt3__28equal_toIiEEE4growEv
xEk:_Collection_1_System_Collections_IList_IndexOf_m3894953546_gshared
ead:__Z73Register_UnityEngine_ParticleSystem_MainModule_SetStartLifetimeMultiplierv
Xjl:_PKCS12_get_Certificates_m26161562
mIh:_NameObjectCollectionBase_Init_m2525481323
nuk:_Array_swap_TisBoolean_t97287965_m2293774148_gshared
kYk:_List_1_Insert_m1582252370_gshared
OSl:_ParticlePhysicsExtensions_GetCollisionEvents_m1108737549
czg:_SByte_System_IConvertible_ToByte_m2268214252_AdjustorThunk
nqm:__ZN6il2cpp2os10ThreadImpl12QueueUserAPCEPFvPvES2_
Z2k:_List_1_get_Capacity_m3047075120_gshared
oR:__Z32TransferEnumWithNameForceIntSizeI14SafeBinaryReadN10SampleClip17CompressionFormatEEvRT_RT0_PKc17TransferMetaFlags
Zql:_RegularExpression__ctor_m119502265
Vqf:__ZN22BaseUnityConnectClient10QueueEventERN11UnityEngine15CloudWebService17CloudServiceEventEPKcjb
XCd:__ZN5physx12PxControllerD2Ev
xMk:_ReadOnlyCollection_1_System_Collections_Generic_ICollectionU3CTU3E_Clear_m522482168_gshared
Cnd:__ZN13ProduceHelperI17PhysicsMaterial2DLb0EE7ProduceE10MemLabelId18ObjectCreationMode
zPf:_DerivedType_IsByRefImpl_m2585680005
ncb:__ZN13dynamic_arrayI11ShaderTagIDLj4EE9push_backERKS0_
S9k:_BossFight_Update_m1464572148
$fh:_ConstructionCall_InitMethodProperty_m2021094586
Rxd:__ZNK5physx2Gu15HeightFieldUtil12traceSegmentI25CapsuleTraceSegmentReportLb0ELb0ELb1EEEvRKNS_6PxVec3ES6_PT_PS5_
CAd:__ZN5physx3Cct17CapsuleController13setStepOffsetEf
OUc:__Z9UpdateTplIL27ParticleSystemCurveEvalMode1EEvRK11MinMaxCurveR23ParticleSystemParticlesjjbjRK8Vector2f
Fze:__ZN5physx10PxsContext23prepareCMDiscreteUpdateEPNS_10PxBaseTaskE
Wba:__ZNK14SerializedFile12GetHighestIDEv
Y0e:__Z43Register_UnityEngine_SpringJoint_set_damperv
Y6j:__ZL95TextGenerator_t3211863866_CustomAttributesCacheGenerator_TextGenerator_get_lineCount_m916872812P21CustomAttributesCache
Rkk:__ZL74CanvasScaler_t2767979955_CustomAttributesCacheGenerator_m_DefaultSpriteDPIP21CustomAttributesCache
aWd:__ZN5physx6shdfnd5ArrayIPvNS0_19ReflectionAllocatorINS_2Cm5BlockIhLj256EEEEEE4copyINS0_15InlineAllocatorILj256ES7_EEEEvRKNS1_IS2_T_EE
sg:_emscripten_glGetError
iam:__ZN15dense_hashtableINSt3__24pairIK10KeyWrapperIPK14Il2CppAssemblyEPK22Il2CppMonoAssemblyNameEES6_N6il2cpp5utils11PointerHashIS4_EEN14dense_hash_mapIS6_SA_SF_NS6_14EqualsComparerINS0_8equal_toIS5_EEEENS0_9allocatorISB_EEE9SelectKeyESK_SM_E14squash_deletedEv
jV:__Z14FMOD_FILE_SeekPvjS_
TEk:_Collection_1_RemoveAt_m2240641437_gshared
GZd:__ZN5physx6shdfnd8PoolBaseINS_11NpAggregateENS0_19ReflectionAllocatorIS2_EEE15disposeElementsEv
Pbk:__ZL81Physics_t2310948930_CustomAttributesCacheGenerator_Physics_RaycastAll_m2709753186P21CustomAttributesCache
K9a:__ZN7TextureC2E10MemLabelId18ObjectCreationMode
yqh:_LayoutGroup__ctor_m2162961217
yof:__Z56Register_UnityEngine_Analytics_CustomEventData_AddStringv
bWi:_ValueType_t3640485471_marshal_pinvoke_cleanup
Vac:__ZNK13RenderTexture32CalculateNeedsInvertedProjectionEv
KBd:__ZN5physx2Gu17RadixSortBuffered4SortEPKfj
Ag:emscriptenWebGLGet
tma:__Z19CanReplaceComponentRN5Unity9ComponentEPKNS_4TypeEPN4core12basic_stringIcNS5_20StringStorageDefaultIcEEEE
Nug:_UnmanagedMemoryStream_Flush_m1540584491
nDk:_Collection_1_GetEnumerator_m3986802482_gshared
kjg:_GuidParser_ParseGuid2_m1914838819
Elc:__ZN12CubemapArray11InitTextureEiii13TextureFormatb
zLa:__ZN6prcoreL18BlitIntegerToFloatERK14ImageReferenceRS0_
_Hh:_ListDictionary_get_SyncRoot_m4242825143
m4c:__ZN32CustomDataModulePropertyBindings13SetFloatValueER14ParticleSystemif
zvc:__Z17GetSceneBuildInfoRKN4core12basic_stringIcNS_20StringStorageDefaultIcEEEEiR14SceneBuildInfo
F$k:_List_1_System_Collections_IList_get_Item_m1112579679_gshared
oig:_Convert_ToSingle_m3983149863
hRg:_InternalEnumerator_1_System_Collections_IEnumerator_get_Current_m55999184_gshared
Yah:_ValueCollection_System_Collections_Generic_ICollectionU3CTValueU3E_Contains_m1842955046_gshared
Y6l:__ZN24dense_hashtable_iteratorINSt3__24pairIK10KeyWrapperIPK10Il2CppTypeEjEES6_N6il2cpp8metadata14Il2CppTypeHashEN14dense_hash_mapIS6_jSB_NS6_14EqualsComparerINSA_26Il2CppTypeEqualityComparerEEENS0_9allocatorIS8_EEE9SelectKeyESF_SH_E30advance_past_empty_and_deletedEv
FIf:_Graphic_get_depth_m815589653
LId:__ZN27ConvexVsMeshOverlapCallbackC2ERKN5physx2Gu10ConvexMeshERKNS0_11PxMeshScaleERKNS0_2Cm23FastVertex2ShapeScalingERKNS0_11PxTransformESE_bRKNS1_3BoxE
Jtc:__Z18SetIParticleSystemP15IParticleSystem
LEf:_ContentSizeFitter_get_horizontalFit_m2773126143
Lwl:_U3CStartU3Ec__Iterator0__ctor_m2366347741_gshared
OL:__ZN7mecanim5human13HumanFixTwistEPKNS0_5HumanEPNS_8skeleton13SkeletonPoseTIN4math4trsXEEES9_iiRKf
T4b:__ZL24AssignProjectorQueuesJobP30AssignProjectorQueuesJobHeader
s_i:_KeyValuePair_2_get_Key_m1218836954_gshared
vIl:__ZL25UnresolvedVirtualCall_124P12Il2CppObjectPK10MethodInfo
tYf:_ParameterModifier_t1461694466_marshal_pinvoke
iZl:__ZN15dense_hashtableINSt3__24pairIK10KeyWrapperIN6il2cpp5utils13dynamic_arrayIPK10Il2CppTypeLj4EEEEPFvvEEESA_NS3_8metadata19Il2CppSignatureHashEN14dense_hash_mapISA_SD_SG_NSA_14EqualsComparerINSF_22Il2CppSignatureCompareEEENS0_9allocatorISE_EEE9SelectKeyESK_SM_E4swapERSP_
Pjg:_Int16_System_IConvertible_ToUInt32_m3410279543
bza:__ZN9ShaderLab20SerializedSubProgram14SetConstBufferEPKci
PTc:__ZN11ShapeModule9ResetSeedERK27ParticleSystemReadOnlyState
s3l:__ZN6il2cpp2os4File5CloseEPNS0_10FileHandleEPi
Auj:__Z54RuntimeInvoker_Void_t1185182177_RoutePoint_t3880028948PFvvEPK10MethodInfoPvPS4_
zwi:_Touch_get_fingerId_m859576425_AdjustorThunk
U_e:__ZN13PhysicsModule17SetRigidBodyStateER9RigidbodyRKN8IPhysics14RigidBodyStateE
Zvj:__Z48RuntimeInvoker_Boolean_t97287965_Link_t544317964PFvvEPK10MethodInfoPvPS4_
v2e:_cf2_getStdVW
n1k:_List_1_System_Collections_ICollection_CopyTo_m2688165607_gshared
Gvj:__Z53RuntimeInvoker_UIVertex_t4057497605_Int32_t2950945753PFvvEPK10MethodInfoPvPS4_
CTi:_UInt16_CompareTo_m2664746316_AdjustorThunk
fbh:_ValueCollection_GetEnumerator_m616748621_gshared
oAa:__ZN9GfxDevice13SetActiveTierE12GraphicsTier
Hqe:__ZN5physx2Sq12BucketPruner11shiftOriginERKNS_6PxVec3E
$Qc:__Z29Transfer_Blittable_ArrayFieldI8JSONReadjEvRT_R9ArrayInfoRK23StaticTransferFieldInfo
$Ld:__ZN5physx6shdfnd5ArrayIPNS_2Sc16ArticulationCoreENS0_19ReflectionAllocatorIS4_EEE15growAndPushBackERKS4_
Rxm:_GC_check_finalizer_nested
gh:__setLetterbox
Hdb:__ZNSt3__26__treeINS_12__value_typeIN9ShaderLab16FastPropertyNameEfEENS_19__map_value_compareIS3_S4_NS_4lessIS3_EELb1EEENS_9allocatorIS4_EEE12__find_equalIS3_EERPNS_16__tree_node_baseIPvEENS_21__tree_const_iteratorIS4_PNS_11__tree_nodeIS4_SE_EEiEESH_RKT_
vwh:_ScrollRect_OnScroll_m3861066534
bGe:__ZN5physx19normalizePartitionsERNS_6shdfnd5ArrayIjNS0_19ReflectionAllocatorIjEEEEPNS_23PxcSolverConstraintDescEPKNS_13PxcSolverBodyEjjS5_
YCh:_BigInteger_op_LessThanOrEqual_m2553515144
v6j:__ZL72FormerlySerializedAsAttribute_t2859083114_CustomAttributesCacheGeneratorP21CustomAttributesCache
Emh:_OnValidateInput_Invoke_m1009124904
Tsd:__ZN18ContactCapsuleMesh20processTriangleCacheILj16EEEbRN5physx2Gu13TriangleCacheIXT_EEE
Nnl:_PatternCompiler_EmitFastRepeat_m3012952683
Epk:__ZL151U3CActivateU3Ec__Iterator0_t2664723090_CustomAttributesCacheGenerator_U3CActivateU3Ec__Iterator0_System_Collections_IEnumerator_get_Current_m2800237092P21CustomAttributesCache
Qmb:__ZNSt3__26vectorI17BlendShapeChannelNS_9allocatorIS1_EEE6assignINS_11__wrap_iterIPS1_EEEENS_9enable_ifIXaasr21__is_forward_iteratorIT_EE5valuesr16is_constructibleIS1_NS_15iterator_traitsISA_E9referenceEEE5valueEvE4typeESA_SA_
Qfc:__ZN11TimeManager11GetRealtimeEv
I$j:__ZL91RectOffset_t1369453676_CustomAttributesCacheGenerator_RectOffset_get_horizontal_m2663785949P21CustomAttributesCache
Jpi:_Object_GetHashCode_m1944636947
IHd:__ZN5physx2Sc16InteractionScene25removeFromActiveActorListERNS0_5ActorE
DV:__ZN29AudioEffectInternalDefinitionC2EP26UnityAudioEffectDefinitionb
LRk:_ReadOnlyCollection_1_System_Collections_IList_Remove_m2434650390_gshared
VTi:_UInt16_ToString_m3056878594_AdjustorThunk
TN:__ZN4PPtrI6AvatarE8TransferI18StreamedBinaryReadILb0EEEEvRT_
n$i:_Dictionary_2_System_Collections_Generic_ICollectionU3CSystem_Collections_Generic_KeyValuePairU3CTKeyU2CTValueU3EU3E_Contains_m2803718146_gshared
DTc:__ZNK11MinMaxCurve20FindMinMaxIntegratedEv
TCd:__ZN5physx3Ext21InertiaTensorComputer6rotateERKNS_7PxMat33E
NCl:_EventTrigger_set_repeatTime_m1188543944
vRh:_Interval_get_IsSingleton_m3386290029
d5l:__ZNSt3__2plIcNS_11char_traitsIcEENS_9allocatorIcEEEENS_12basic_stringIT_T0_T1_EERKS9_PKS6_
twi:_Time_get_unscaledDeltaTime_m4270080131
WYi:_Dictionary_2_pick_key_m3282382413_gshared
gFe:__ZN5physx22PxcDiscreteNarrowPhaseERNS_18PxcNpThreadContextERNS_13PxcNpWorkUnitE
gKa:_stbir_resize
vFi:_Array_IndexOf_TisCustomAttributeTypedArgument_t2723150157_m3158556463_gshared
Q2i:_EqualityComparer_1_System_Collections_IEqualityComparer_GetHashCode_m360549782_gshared
qai:_Environment_GetOSVersionString_m407782784
e0h:_DecoderExceptionFallback_Equals_m1082173956
WPg:_U3CGetEnumeratorU3Ec__Iterator0__ctor_m1150758267_gshared
aLj:__ZL69Assembly_t_CustomAttributesCacheGenerator_Assembly_GetName_m981771927P21CustomAttributesCache
Znb:__ZN4PPtrI4MeshE8TransferI14SafeBinaryReadEEvRT_
yfd:__ZN24b2ChainAndCapsuleContact6CreateEP9b2FixtureiS1_iP16b2BlockAllocator
k_a:__Z37ReadDirectoryInfo_UnityWebAndUnityRawR12FileAccessorRKN20ArchiveStorageHeader6HeaderERNS1_13DirectoryInfoE
rRl:_Physics2D_INTERNAL_CALL_Internal_OverlapCircleAll_m991066286
Ela:__ZNSt3__26__treeINS_12__value_typeIPKciEENS_19__map_value_compareIS3_S4_15compare_tstringIS3_ELb1EEENS_9allocatorIS4_EEE7destroyEPNS_11__tree_nodeIS4_PvEE
NJi:_Array_InternalArray__Insert_TisIntPtr_t_m189626842_gshared
Fmg:_Int64_System_IConvertible_ToByte_m375085029_AdjustorThunk
Mzh:_Locale_GetText_m3374010885
OIk:_Collection_1_System_Collections_IEnumerable_GetEnumerator_m1598238343_gshared
ADg:_RijndaelManaged_CreateEncryptor_m263736311
SPi:_WaitCallback__ctor_m1893321019
zrf:__ZN13dynamic_arrayIN4core12basic_stringIcNS0_20StringStorageDefaultIcEEEELj4EE6assignEPKS4_S7_
b2b:__ZN20DynamicPropertySheet14SetValueQueuedEN9ShaderLab16FastPropertyNameEN19ShaderPropertySheet12PropertyTypeEjNS2_8SetFlagsE
jjf:__ZN2UI6Canvas26MarkAllNestedCanvasesDirtyEv
fki:_InvokableCallList_ClearPersistent_m1904264973
ZUb:__ZN25PathNamePersistentManagerD2Ev
y8:__ZN17PersistentManager48IntegrateObjectAndUnlockIntegrationMutexInternalEi
ssa:__ZZ29InitializeSortingGroupManagerPvEN44PostLateUpdateSortingGroupsUpdateRegistrator7ForwardEv
sek:__ZL55EventTrigger_t1076084509_CustomAttributesCacheGeneratorP21CustomAttributesCache
GXh:_SecurityElement_SearchForChildByTag_m900466299
$q:__ZN6Object12SetHideFlagsENS_9HideFlagsE
Jed:__ZN9b2Fixture11SynchronizeEP12b2BroadPhaseRK11b2TransformS4_
wUe:__ZN9Rigidbody23VirtualRedirectTransferER14SafeBinaryRead
hig:_Convert_ToSingle_m3227075028
eOm:_emscripten_glGetFramebufferAttachmentParameteriv__wrapper
m$b:__ZN13RendererScene15InitializeUmbraEv
S7a:__Z28CalculateGlobalMatrixInverse23TransformAccessReadOnly
Poi:_MonoBehaviour__ctor_m1579109191
cak:__ZL59GUITargetAttribute_t25796337_CustomAttributesCacheGeneratorP21CustomAttributesCache
pZc:__ZN23ParticleSystemParticles17SetUsesCustomDataEi
_5i:_GenericEqualityComparer_1_Equals_m3457564127_gshared
oEg:_BigInteger_ModInverse_m2426215562
_Sg:_InternalEnumerator_1_System_Collections_IEnumerator_Reset_m2386791007_AdjustorThunk
a0h:_DecoderExceptionFallback__ctor_m4044614564
SUg:_InternalEnumerator_1_System_Collections_IEnumerator_Reset_m3011999097_AdjustorThunk
_7d:__ZNK5physx15PxsParticleData15getWorldBoundsVEv
fgm:__ZN6il2cpp2vm6Thread17FullMemoryBarrierEv
Sug:_LocalDataStoreSlot__cctor_m644942532
Pyd:__ZN12_GLOBAL__N_124HfTrianglesEntityReport27onEventEjPj
$Bm:__ZN6il2cpp6icalls8mscorlib6System6Object7GetTypeEP12Il2CppObject
xXf:_MonoProperty_CachePropertyInfo_m2968057423
yae:__ZN5physx22NpParticleBaseTemplateINS_16PxParticleSystemENS_16NpParticleSystemEE17setStaticFrictionEf
Muf:__ZNK25UnityWebRequestJavaScript18GetDownloadedBytesEv
$ri:_Ray_GetPoint_m1852405345_AdjustorThunk
tJj:__ZL53RegionInfo_t1090270226_CustomAttributesCacheGeneratorP21CustomAttributesCache
Vck:__ZL85Canvas_t3310196443_CustomAttributesCacheGenerator_Canvas_get_sortingOrder_m1860900812P21CustomAttributesCache
EEj:__ZL74Single_t1397266774_CustomAttributesCacheGenerator_Single_IsNaN_m4024467661P21CustomAttributesCache
$Ud:__ZN5physx17PxsContactManager16resetCachedStateEv
Euf:__ZN12HeaderHelper14SetUnvalidatedERKN4core12basic_stringIcNS0_20StringStorageDefaultIcEEEES6_b
BR:__ZN4FMOD6SoundI7releaseEv
Xce:__ZN5physx20NpRigidActorTemplateINS_14PxRigidDynamicEE15setActorSimFlagEb
Xob:__ZN14SpriteRenderer13AwakeFromLoadE17AwakeFromLoadMode
Z3e:_cff_parse_num
O_a:__ZN10MemoryFile9SetLengthEy
Dv:__ZN7mecanim10ValueArray8TransferI19StreamedBinaryWriteILb0EEEEvRT_
CZc:__ZN11ShapeModule17DidModifyMeshDataEv
udd:__ZNK15b2RevoluteJoint10GetAnchorBEv
nBd:__ZNK5physx3Cct26CharacterControllerManager16getNbControllersEv
$Tb:__Z28scripting_class_is_interface17ScriptingClassPtr
xi:_glTexStorage2D
seg:_SyncHashtable_get_Item_m2686606216
yya:__ZNK9ShaderLab10SubProgram14EnsureCompiledEv
OSf:_MethodBuilder_GetGenericArguments_m1765425737
Q2h:_DateTime_CompareTo_m3687348273
Gwm:_GC_push_marked
Y3h:_DateTime_ToUniversalTime_m1945318289_AdjustorThunk
DXe:__ZN5physx7profile10DataBufferINS_6shdfnd6MutexTINS0_26WrapperReflectionAllocatorIhEEEENS0_14ScopedLockImplIS6_EEE17handleBufferFlushEPKhj
q9h:_Enum_t4135868527_marshal_pinvoke
Ngl:_Entry__ctor_m4021839415
Xaa:__Z18BuildScriptClassId17ScriptingClassPtr
rLl:_TextGenerator_Init_m1168488231
Lxi:_Transform_LookAt_m3649447396
XFh:_RSAManaged_Finalize_m3915335854
ds:__ZNK16LevelGameManager7GetNameEv
nYa:__ZL31DeleteLastPathNameComponentImplRKN4core12basic_stringIcNS_20StringStorageDefaultIcEEEEPKc
uic:__Z13RegisterClassI18DelayedCallManagerEvv
hrf:__ZN18UnityConnectClient15GetCloudServiceEv
UIb:__Z18Transfer_BlittableI24GenerateTypeTreeTransferLb0EiEvRK29SerializationCommandArgumentsR31RuntimeSerializationCommandInfo
OIe:__ZN5physx20PxsConstraintProjectEPKNS_13PxsConstraintEbf
G0d:__ZN5physx7NpShape7setFlagENS_11PxShapeFlag4EnumEb
GVg:_InternalEnumerator_1_get_Current_m2698009637_gshared
R$l:__ZN6il2cpp2os19SocketHandleWrapperD2Ev
hah:_Enumerator_System_Collections_IEnumerator_Reset_m278261807_gshared
cfd:__ZN15b2CircleContact6CreateEP9b2FixtureiS1_iP16b2BlockAllocator
UTb:__ZL28SerializationCommandGroupForRK31TransferFunctionScriptingTraits17ScriptingClassPtr17ScriptingFieldPtrRK20CoreScriptingClasses
t1a:__ZN10TagManager32RegisterDefaultTagsAndLayerMasksEv
dQi:_WaitHandle_Dispose_m738127030
j6k:_List_1_System_Collections_IList_get_IsReadOnly_m1729002068_gshared
mij:__Z50RuntimeInvoker_Double_t594665363_Int32_t2950945753PFvvEPK10MethodInfoPvPS4_
PUk:_Predicate_1_EndInvoke_m1490920825_gshared
BVj:__ZL78LoaderOptimization_t1484956347_CustomAttributesCacheGenerator_DisallowBindingsP21CustomAttributesCache
uIh:__KeysEnumerator__ctor_m1664513423
LEe:__ZN5physx2Sc35ParticleElementRbElementInteraction12onDeactivateEj
Fsj:__Z104RuntimeInvoker_Void_t1185182177_Color_t2555686324_Single_t1397266774_SByte_t1669577662_SByte_t1669577662PFvvEPK10MethodInfoPvPS4_
I5k:_List_1_Remove_m3853969205_gshared
aXk:_Enumerator_System_Collections_IEnumerator_get_Current_m1540440674_gshared
BYh:_Single_System_IConvertible_ToInt16_m809233024_AdjustorThunk
Gof:__Z56Register_UnityEngine_Analytics_CustomEventData_AddUInt32v
EEm:_fmodf
Hmh:_InputField_UpdateLabel_m1837760870
wGa:__ZN4gles8InitCapsEP7ApiGLESP12GraphicsCapsR16GfxDeviceLevelGL
YDa:__ZN13GfxDeviceGLES22GetNativeBufferPointerEP9GfxBuffer
N4a:__Z24CalculateVertexLightDataRK15SharedLightDataR14GfxVertexLight
fj:_glEnable
fBj:__Z49RuntimeInvoker_ParticleCollisionEvent_t4055032941PFvvEPK10MethodInfoPvPS4_
v8l:__ZN15dense_hashtableINSt3__24pairIK10KeyWrapperINS1_IPK12PropertyInfoP11Il2CppClassEEEjEES9_17ReflectionMapHashIS8_EN14dense_hash_mapIS9_jSD_NS9_14EqualsComparerINS0_8equal_toIS8_EEEENS0_9allocatorISB_EEE9SelectKeyESI_SK_E15insert_noresizeERKSB_
nYg:_InternalEnumerator_1_MoveNext_m973048327_gshared
vya:__ZNK9ShaderLab7Program28BeginReadUnsupportedVariantsEv
are:__ZN5physx2Sq10AABBPrunerC2Eb
Yha:__ZN12CachedWriter11Align4WriteEv
nvb:__ZNSt3__26vectorIN30RuntimeInitializeOnLoadManager9ClassInfoE13stl_allocatorIS2_L18MemLabelIdentifier13ELi16EEE7reserveEj
rme:__ZN5physx2Sq8AABBTreeC2Ev
snl:_PatternCompiler_EmitCategory_m851169746
AMc:__Z35Transfer_Blittable_FixedBufferFieldI9JSONWriteiEvRK29SerializationCommandArgumentsR31RuntimeSerializationCommandInfo
Z7j:__ZL85AudioSource_t3935305588_CustomAttributesCacheGenerator_AudioSource_set_clip_m31653938P21CustomAttributesCache
I3c:__ZN11TrailModuleD2Ev
GCh:_BigInteger_op_Subtraction_m1575155386
Mbl:_ButtonHandler_SetAxisPositiveState_m3921153019
pI:__ZN26AnimatorControllerPlayable17ProcessRootMotionEP35AnimationPlayableEvaluationConstantP32AnimationPlayableEvaluationInputP33AnimationPlayableEvaluationOutput
EHg:_RSAManaged_ImportParameters_m1117427048
XOj:__ZL54SoapServices_t133988723_CustomAttributesCacheGeneratorP21CustomAttributesCache
rug:_UnexceptionalStreamReader_Peek_m1842169584
BCl:_AnalyticsTracker_SendEvent_m2955089255
Kpf:__ZN11UnityEngine7Connect15DeviceInfoEvent16CollectExtraInfoEv
oum:__ZN6il2cpp2os11Environment22SetEnvironmentVariableERKNSt3__212basic_stringIcNS2_11char_traitsIcEENS2_9allocatorIcEEEESA_
Oyk:_Queue_1_System_Collections_IEnumerable_GetEnumerator_m3464578225_gshared
bAi:_TypeInferenceRuleAttribute__ctor_m2736695831
QLe:__ZN5physx2Gu10ConvexMeshD2Ev
s0j:__ZL84Light_t3756812086_CustomAttributesCacheGenerator_Light_set_shadowStrength_m881750843P21CustomAttributesCache
wAg:_CryptographicException__ctor_m1422015889
$9l:__ZN6il2cpp2gc19AppendOnlyGCHashMapIPK10Il2CppTypeP20Il2CppReflectionTypeNS_8metadata14Il2CppTypeHashENS7_26Il2CppTypeEqualityComparerEEC2Ev
Ezi:_Vector4_Equals_m1779210055_AdjustorThunk
F7a:__ZN17LightBakingOutput8TransferI19StreamedBinaryWriteILb0EEEEvRT_
QFm:_atoi
v$a:__ZN20ArchiveStorageReader10InitializeER15FileSystemEntryyb
RFm:_atol
Hum:__ZThn8_N6il2cpp2vm13CachedCCWBaseINS0_13ManagedObjectEE6AddRefEv
YSf:_TypeBuilder_CreateType_m3375483507
JKk:_ReadOnlyCollection_1_GetEnumerator_m3690861713_gshared
Sjk:__ZL88Selectable_t3250028441_CustomAttributesCacheGenerator_U3CisPointerDownU3Ek__BackingFieldP21CustomAttributesCache
Odh:_RemotingServices_GetRealProxy_m2081098851
fEh:_BlockProcessor_Core_m189015002
iXl:__ZN15dense_hashtableINSt3__24pairIK10KeyWrapperIPKcEP11Il2CppClassEES5_N6il2cpp5utils11StringUtils12StringHasherIS4_EEN14dense_hash_mapIS5_S8_SE_NS5_14EqualsComparerINSB_13VmStringUtils21CaseSensitiveComparerEEENS0_9allocatorIS9_EEE9SelectKeyESJ_SL_EC2EjRKSE_RKSJ_RKSN_
mOm:_emscripten_glScissor__wrapper
aq:FUNCTION_TABLE_viifi
dq:FUNCTION_TABLE_viiff
_ei:_AnimationCurve_GetKey_Internal_m1174643252
TFd:__ZNK5physx2Sc8ShapeSim10getBodySimEv
L$f:_X501__cctor_m1166912714
nfk:__ZL102PointerEventData_t3807901092_CustomAttributesCacheGenerator_PointerEventData_set_lastPress_m2928324031P21CustomAttributesCache
Ssh:_MaskUtilities_GetRectMasksForClip_m532898711
Laf:_UNITY_tt_face_free_hdmx
Hhd:__ZNSt3__26__sortIRN18Overlap2DQueryBase29ColliderHitsByDepthComparitorEPP10Collider2DEEvT0_S7_T_
Dgi:_Bounds_ToString_m4208690781
eem:__ZN15dense_hashtableINSt3__24pairIK10KeyWrapperINS1_IP11Il2CppClassjEEES4_EES6_N6il2cpp8metadata14ArrayClassHashEN14dense_hash_mapIS6_S4_SB_NS6_14EqualsComparerINSA_17ArrayClassCompareEEENS0_9allocatorIS8_EEE9SelectKeyESF_SH_E5clearEv
Vdj:__Z88RuntimeInvoker_RuntimeObject_RuntimeObject_RuntimeObject_Int32_t2950945753_RuntimeObjectPFvvEPK10MethodInfoPvPS4_
HWl:__ZNSt3__218uninitialized_copyIPNS_4pairIK10KeyWrapperIPK11Il2CppClassEPKcEESB_EET0_T_SD_SC_
L3l:__ZN6il2cpp2vm14TypeNameParser5ParseEb
jvg:_Math_Sqrt_m1297338011
etg:_StreamWriter_Initialize_m3490883444
ESi:_Type_GetGenericArguments_m3500465462
eWd:__ZN5physx6shdfnd5ArrayIPvNS0_19ReflectionAllocatorINS_2Cm5BlockIhLj128EEEEEE15growAndPushBackERKS2_
Ftf:__ZN23UnityPurchasingSettingsC2Ev
Eob:__ZNK9Transform13GetWorldScaleEv
FVf:_Module_IsDefined_m2423524910
mPf:_DerivedType_create_unmanaged_type_m747846525
v9j:__ZL60EventType_t3528516131_CustomAttributesCacheGenerator_repaintP21CustomAttributesCache
y3a:__ZN17GPUFenceInternals7ReleaseEv
Kjk:__ZL66Selectable_t3250028441_CustomAttributesCacheGenerator_m_NavigationP21CustomAttributesCache
NYf:_ResolveEventHandler__ctor_m1911137231
gLd:__ZN5physx2Sc11Interaction10onActivateEj
yxd:__ZNK5physx2Gu29EPASupportMapPairRelativeImplINS0_4BoxVENS0_11ConvexHullVEE6getDirEv
yRl:_RaycastHit2D_get_normal_m772343376
m1d:__ZN5physx14NpShapeManager15setupSceneQueryERNS_2Sq17SceneQueryManagerERKNS_12PxRigidActorERKNS_7NpShapeE
Wac:__ZL10RenderFaceR9GfxDeviceR18MaterialStateCacheP13RenderTextureiif
uFi:_Array_IndexOf_TisCustomAttributeNamedArgument_t287865710_m2817957199_gshared
hva:__ZN15SerializeTraitsI13dynamic_arrayIN9ShaderLab21SerializedBindChannelELj4EEE19ResizeSTLStyleArrayERS3_i
Ykm:__ZNK24NamespaceAndNamePairHashclERKNSt3__24pairIPKcS3_EE
kjl:_ExtendedKeyUsageExtension_ToString_m2116504780
gyb:__ZNK5Unity9Component38MarkGameObjectAndComponentDependenciesER27GarbageCollectorThreadState
JIe:__ZN22ScAfterIntegrationTask11runInternalEv
xog:_BinaryReader_Read_m3708759962
Wzf:_PointerEventData_IsPointerMoving_m1902409386
RNd:__ZNK5physx2Sc9ClothCore23getExternalAccelerationEv
pRg:_InternalEnumerator_1__ctor_m3349908318_AdjustorThunk
jZ:__ZNK7Texture21GetShadowSamplingModeEv
Cwd:__ZN5physx2Gu13coarseCullingERKNS_6PxVec3ES3_ffRKNS_10PxTriangleE
ejb:__ZN13ScreenManager21OnWindowRegainedFocusEv
jRb:__Z18Transfer_BlittableI18StreamedBinaryReadILb0EELb1EdEvRK29SerializationCommandArgumentsR31RuntimeSerializationCommandInfo
bGa:__ZN9GfxDevice26CreateDefaultVertexBuffersEv
GPm:_emscripten_glVertexAttrib2fv__wrapper
Mvf:__ZN13RuntimeStaticINSt3__26vectorIPN5physx15PxVehicleWheelsENS0_9allocatorIS4_EEEELb0EE13StaticDestroyEPv
Ftg:_SynchronizedReader_ReadToEnd_m2160105378
lFe:__ZN5physx2Sc5Scene29processNarrowPhaseTouchEventsEv
uJa:__ZN4crnd12symbol_codec32decode_receive_static_data_modelERNS_25static_huffman_data_modelE
mgc:__ZN18ScriptingArguments8AddFloatEf
Iwi:_TouchScreenKeyboard_Open_m3325559252
KKf:_Image_set_fillOrigin_m469806249
Apf:__ZN11UnityEngine15PlatformWrapper16GetVRRenderScaleEv
UPd:__ZN5physx6shdfnd5ArrayIPvNS0_15InlineAllocatorILj256ENS0_19ReflectionAllocatorINS_18NpArticulationLinkEEEEEE15growAndPushBackERKS2_
ANc:__Z18Transfer_BlittableI9JSONWriteLb0EaEvRK29SerializationCommandArgumentsR31RuntimeSerializationCommandInfo
vVe:__ZN5Unity11SpringJoint8TransferI19StreamedBinaryWriteILb0EEEEvRT_
s1:__ZN11UnityEngine15CloudWebService14DataDispatcher34OnSessionContainerArchivedAndReadyERNS0_16SessionContainerE
fpi:_ConnectionChangeEvent__ctor_m764126802
Sbd:__ZN7b2World11CreateJointEPK10b2JointDef
CEg:_Kernel_Multiply_m193213393
WVc:__ZN23ParticleSystemParticles20SetUsesTriggerEventsEb
fwg:_IntComparer__ctor_m2901422390
aCd:__ZNK5physx3Cct15ObstacleContext11getObstacleEj
OYf:_ResolveEventHandler_Invoke_m1337322179
aQj:__ZL50HMACMD5_t2742219965_CustomAttributesCacheGeneratorP21CustomAttributesCache
K1g:_Comparer_1__ctor_m1078828713_gshared
oLb:__Z18Transfer_BlittableI19StreamedBinaryWriteILb0EELb0E8Vector3fEvRK29SerializationCommandArgumentsR31RuntimeSerializationCommandInfo
OVk:_Enumerator_VerifyState_m2621680056_gshared
Url:_UriParser_InternalRegister_m3643767086
U6j:__ZL106TextGenerator_t3211863866_CustomAttributesCacheGenerator_TextGenerator_INTERNAL_get_rectExtents_m183810018P21CustomAttributesCache
Fta:__ZN14SafeBinaryRead19TransferSTLStyleMapINSt3__23mapIN4core12basic_stringIcNS3_20StringStorageDefaultIcEEEEiNS1_4lessIS7_EENS1_9allocatorINS1_4pairIKS7_iEEEEEEEEvRT_17TransferMetaFlags
K3h:_DateTimeFormatInfo_get_RawAbbreviatedDayNames_m1257850285
USh:_RSACryptoServiceProvider_EncryptValue_m944137256
_7l:__ZN15dense_hashtableINSt3__24pairIK10KeyWrapperINS1_IPK11Il2CppImageP11Il2CppClassEEEjEES9_17ReflectionMapHashIS8_EN14dense_hash_mapIS9_jSD_NS9_14EqualsComparerINS0_8equal_toIS8_EEEENS0_9allocatorISB_EEE9SelectKeyESI_SK_ED2Ev
X8e:_gray_move_to
V4h:_DBNull_System_IConvertible_ToSingle_m13713620
zlk:__ZL127U3CDelayedSetDirtyU3Ec__Iterator0_t3170500204_CustomAttributesCacheGenerator_U3CDelayedSetDirtyU3Ec__Iterator0_Reset_m160466733P21CustomAttributesCache
Wvj:__Z59RuntimeInvoker_Boolean_t97287965_KeyValuePair_2_t3699644050PFvvEPK10MethodInfoPvPS4_
Hdl:_VirtualInput_set_virtualMousePosition_m3001516108
hhi:_CameraCallback__ctor_m899467377
CLk:_ReadOnlyCollection_1_System_Collections_IList_Contains_m1327645028_gshared
XKf:_Image_GetDrawingDimensions_m3060965396
M6j:__ZL69FontTextureRebuildCallback_t2467502454_CustomAttributesCacheGeneratorP21CustomAttributesCache
XSi:_TypeLoadException__ctor_m1154572625
Vxc:__Z30RegisterValidateMethodCallbackiPF18ScriptingMethodPtrS_17ScriptingClassPtrP6ObjectEPKc
VAb:__ZN20LocalFileSystemPosixD0Ev
NEj:__ZL75Decimal_t2948259380_CustomAttributesCacheGenerator_Decimal__ctor_m593929528P21CustomAttributesCache
jLg:_Context_get_WriteSequenceNumber_m1115956887
Y1f:_Activator_CreateInstanceInternal_m1337209899
wvk:_Dictionary_2_Do_ICollectionCopyTo_TisKeyValuePair_2_t2401056908_m1169495264_gshared
dXc:__Z25GetTransformationMatricesPN4math8float3x3ES1_bbRK10Matrix4x4fS4_
KEf:_ContentSizeFitter__ctor_m2349275633
BXj:__ZL56TypeConverter_t2249118273_CustomAttributesCacheGeneratorP21CustomAttributesCache
b2c:__ZN4PPtrI14ParticleSystemE8TransferI19StreamedBinaryWriteILb0EEEEvRT_
Rpe:__ZN5physx13IslandManager6resizeEj
qGk:_Collection_1_RemoveAt_m3506636491_gshared
i8e:_tt_cmap_init
SRc:__ZN8JSONRead8TransferI9BoundsIntEEvRT_PKc17TransferMetaFlagsb
Ya:invoke_viidi
S7c:__Z17UpdateSprites2TplIL27ParticleSystemCurveEvalMode0ELS0_2EEvfRK11MinMaxCurveS3_RK23ParticleSystemParticlesPf
ccl:_CrossPlatformInputManager_GetAxisRaw_m3082695103
MKd:__ZN5physx6shdfnd8PoolBaseINS_2Cm5BlockIPvLj16EEENS0_19ReflectionAllocatorIS5_EEE17releaseEmptySlabsEv
wIf:_Graphic_OnRectTransformDimensionsChange_m3695755375
ezg:_SByte_System_IConvertible_ToChar_m1489191771_AdjustorThunk
cU:__ZN9AudioClip7CleanupEv
nzj:__Z76RuntimeInvoker_Void_t1185182177_Int32_t2950945753_PlayableBinding_t354260709PFvvEPK10MethodInfoPvPS4_
pRh:_Interval_t1802865632_marshal_pinvoke_cleanup
qfm:__ZNK15dense_hashtableINSt3__24pairIK10KeyWrapperIP11Il2CppClassES4_EES5_N6il2cpp8metadata16SZArrayClassHashEN14dense_hash_mapIS5_S4_SA_NS5_14EqualsComparerINS9_19SZArrayClassCompareEEENS0_9allocatorIS7_EEE9SelectKeyESE_SG_E12test_deletedEj
SIf:_Graphic_GraphicUpdateComplete_m1502194795
MCd:__ZL20updateMassAndInertiabRN5physx11PxRigidBodyEPKfjPKNS_6PxVec3Eb
X_g:_InternalEnumerator_1__ctor_m63033851_AdjustorThunk
tQc:__Z18Transfer_BlittableI8JSONReadLb0EdEvRK29SerializationCommandArgumentsR31RuntimeSerializationCommandInfo
NXe:__ZN5physx24NpPtrTableStorageManagerC2Ev
iu:__ZN7mecanim9animation21BlendTreeNodeConstant35Transfer_4_0_BackwardsCompatibilityI14SafeBinaryReadEEvRT_
bfh:_SynchronizationAttribute_EnterContext_m1660729920
Rmf:__Z44Register_UnityEngine_Canvas_set_sortingOrderv
$Ll:_Canvas_get_referencePixelsPerUnit_m3420541976
ILk:_ReadOnlyCollection_1_System_Collections_ICollection_get_SyncRoot_m2522539235_gshared
$xl:_Event_get_current_m2393892120
jEl:_VertexHelper_Clear_m627349662
y1i:_DefaultComparer_Equals_m3688244916_gshared
_Aa:__ZNK9GfxDevice13GetViewMatrixEv
Oug:_UnmanagedMemoryStream_Dispose_m2681886347
Iie:__ZN5physx7NpScene15flushSimulationEb
VRg:_InternalEnumerator_1_System_Collections_IEnumerator_get_Current_m1295084274_gshared
A$d:__ZN5physx6shdfnd8PoolBaseINS_10NpMaterialENS0_19ReflectionAllocatorIS2_EEE12allocateSlabEv
tca:__ZN8TypeTree8BlobReadERPKhS1_ib
M_j:__ZL87Display_t1387065949_CustomAttributesCacheGenerator_Display_GetSystemExtImpl_m2808197389P21CustomAttributesCache
l4f:_Array_Reverse_m3714848183
SGf:_Dropdown_ClearOptions_m4085591601
XDf:_CanvasUpdateRegistry_InternalRegisterCanvasElementForGraphicRebuild_m3522560454
I_i:_KeyValuePair_2__ctor_m880186442_gshared
uPe:__ZN5physx18ReducedVertexCloudC2EPKNS_6PxVec3Ej
Kvb:__ZN18LoadSceneOperation23GetAllowSceneActivationEv
T1a:__ZN6CameraD0Ev
zzk:_Collection_1_System_Collections_IList_get_IsReadOnly_m2319019412_gshared
era:__ZN31CanvasBatchIntermediateRenderer16StaticInitializeEPv
wSk:_ReadOnlyCollection_1_CopyTo_m586367390_gshared
SIk:_Collection_1_System_Collections_IList_IndexOf_m837396833_gshared
HH:__ZN7mecanim12AndValueMaskILb0EEEvPKNS_14ValueArrayMaskEPS1_
bvb:__ZN14SafeBinaryRead21TransferSTLStyleArrayINSt3__26vectorIi13stl_allocatorIiL18MemLabelIdentifier13ELi16EEEEEEvRT_17TransferMetaFlags
_Ji:_EncoderFallback__cctor_m3806755293
FSg:_InternalEnumerator_1__ctor_m962177456_AdjustorThunk
Uef:_raccess_guess_apple_double
s0e:__Z48Rigidbody_CUSTOM_INTERNAL_CALL_AddExplosionForceP12Il2CppObjectfRK8Vector3fffi
zNa:__ZL18ProgramUniform1uivPK7ApiGLESjiihPKv
Zrj:__Z65RuntimeInvoker_Boolean_t97287965_RuntimeObject_Single_t1397266774PFvvEPK10MethodInfoPvPS4_
U4c:__ZN27ShapeModulePropertyBindings13GetFloatValueERK14ParticleSystemi
Olc:__ZN14Texture2DArray13RebuildMipMapEv
hWl:__ZN13Il2CppHashSetIPK17Il2CppGenericInstN6il2cpp8metadata21Il2CppGenericInstHashENS4_24Il2CppGenericInstCompareENSt3__29allocatorI10KeyWrapperIS2_EEEEC2EjRKS5_RKS6_
pEb:__Z18Transfer_BlittableI14SafeBinaryReadLb1EaEvRK29SerializationCommandArgumentsR31RuntimeSerializationCommandInfo
urm:__ZN6il2cpp2gc16GarbageCollector14RemoveWeakLinkEPPv
cza:__ZN9ShaderLab20SerializedSubProgram14AddVectorParamEPKcii15ShaderParamTypei
O1k:_List_1_GetEnumerator_m563931292_gshared
NQl:_Collision2D_t2842956331_marshal_pinvoke
Vkf:__ZN2UI14CanvasRenderer12CleanupClassEv
QTd:__ZNK5physx19NpRigidBodyTemplateINS_18PxArticulationLinkEE27getMinCCDAdvanceCoefficientEv
Afg:_Enumerator__ctor_m3362421874
Spj:__Z117RuntimeInvoker_CSSSize_t3377836552_IntPtr_t_Single_t1397266774_Int32_t2950945753_Single_t1397266774_Int32_t2950945753PFvvEPK10MethodInfoPvPS4_
dUm:_emscripten_glIsFramebuffer__wrapper
uom:__ZN6il2cpp2vm6Object3BoxEP11Il2CppClassPv
egm:__ZN6il2cpp2vm6Thread7SetNameEP12Il2CppThreadP12Il2CppString
cr:__ZN6Object23VirtualRedirectTransferER19StreamedBinaryWriteILb1EE
fWb:__ZN13ScreenManager18SetAllowCursorLockEb
M2:__ZN11UnityEngine15CloudWebService10RestClientINS0_23WebRequestRestHeaderMapEE16SetRequestHeaderERKN4core12basic_stringIcNS4_20StringStorageDefaultIcEEEESA_
gvb:__ZN30RuntimeInitializeOnLoadManager15ClassMethodInfo8TransferI14SafeBinaryReadEEvRT_
Qfh:_ConstructionCall_InitDictionary_m2824447813
Lbj:__Z53RuntimeInvoker_Decimal_t2948259380_Single_t1397266774PFvvEPK10MethodInfoPvPS4_
jOd:__ZNK5physx2Sc10ClothShape8isActiveEv
mVc:__ZN23ParticleSystemParticles14element_assignEjj
GYf:_TargetException__ctor_m3701535709
Qwj:__Z86RuntimeInvoker_Int32_t2950945753_Vector3_t3722313464_Vector3_t3722313464_RuntimeObjectPFvvEPK10MethodInfoPvPS4_
__:__ZL22InitializeModule_Audiov
uqe:__ZN5physx2Sq11PruningPoolD0Ev
fCb:__ZN16MemoryFileSystem8IsLockedERK13FileEntryData
mye:__ZN3MBP15removeBoxPrunerEj
Pok:__ZL72U3CFOVKickDownU3Ec__Iterator1_t1440840980_CustomAttributesCacheGeneratorP21CustomAttributesCache
Nhm:__ZN6il2cpp6icalls8mscorlib6System2IO6MonoIO5WriteEiP11Il2CppArrayiiPi
u5c:__ZN14ParticleSystem23OnGeometryJobsScheduledEj
Nni:_Mathf_InverseLerp_m4155825980
zfj:__Z92RuntimeInvoker_RuntimeObject_RuntimeObject_RuntimeObject_SByte_t1669577662_SByte_t1669577662PFvvEPK10MethodInfoPvPS4_
Ul:_emscripten_glBindRenderbuffer
y$k:_List_1_System_Collections_IList_Insert_m1011775503_gshared
Gxm:_GC_dirty_init
Rlm:__ZN6il2cpp2vm5Image33GetCachedMemoryMappedResourceFileEP24Il2CppReflectionAssembly
xgl:_U3CReloadLevelU3Ec__Iterator2__ctor_m2619543322
rkf:__ZNK2UI6Canvas16GetTargetDisplayEv
Nvj:__Z69RuntimeInvoker_Void_t1185182177_Int32_t2950945753_Vector2_t2156229523PFvvEPK10MethodInfoPvPS4_
aud:__ZL15SweepBoxCapsulePKN5physx3Cct9SweepTestEPKNS0_11SweptVolumeEPKNS0_11TouchedGeomERKNS_14PxExtendedVec3ERKNS_6PxVec3ERNS0_12SweptContactE
Voa:__ZN6Object17FindObjectsOfTypeEPKN5Unity4TypeER13dynamic_arrayIPS_Lj4EEb
Aqc:__ZNSt3__26vectorINS_4pairIiiEE13stl_allocatorIS2_L18MemLabelIdentifier1ELi16EEE21__push_back_slow_pathIKS2_EEvRT_
gOc:__ZN9JSONWrite8TransferI4PPtrI9Texture2DEEEvRT_PKc17TransferMetaFlags
GCk:_Collection_1_Remove_m3611142372_gshared
rTb:__ZN13MonoBehaviour17RemoveFromManagerEv
czi:_Vector3_get_Item_m668685504_AdjustorThunk
SJe:__ZN5physx2Sc19ParticlePacketShapeD2Ev
fWf:_MonoEventInfo_GetEventInfo_m873645389
Bib:__ZL11DecodeValuePPKcS0_
B3k:_List_1_AsReadOnly_m3401993541_gshared
Byl:_GUIUtility_get_pixelsPerPoint_m2369948084
sXh:_WindowsIdentity_System_Runtime_Serialization_IDeserializationCallback_OnDeserialization_m3428853631
$5:__ZN13MemoryManagerC2Ev
sRa:__ZN12SkinMeshInfo10DeallocateEPS_
XWl:__ZNK15dense_hashtableINSt3__24pairIK10KeyWrapperIPKcEP11Il2CppClassEES5_N6il2cpp5utils11StringUtils12StringHasherIS4_EEN14dense_hash_mapIS5_S8_SE_NS5_14EqualsComparerINSB_13VmStringUtils21CaseSensitiveComparerEEENS0_9allocatorIS9_EEE9SelectKeyESJ_SL_E8min_sizeEjj
Yvh:_ScrollRect_SetDirty_m214267968
Cv:__ZN15SerializeTraitsI22OffsetPtrArrayTransferIN7mecanim13ValueConstantEEE8TransferI19StreamedBinaryWriteILb0EEEEvRS3_RT_
b$a:__ZN20ArchiveStorageReader28AcquireAndPrefillUnusedBlockEjPNS_11CacheResultE
W5f:_Boolean_System_IConvertible_ToDateTime_m603510836
Ilc:__Z12NHxRoughnessIA4_tEvP9Texture2DPT_iiii
IDh:_ASN1_get_Value_m1857007406
cIl:__ZL25UnresolvedVirtualCall_105P12Il2CppObjecthPK10MethodInfo
npa:__ZN18AsyncUploadManagerD2Ev
Jzb:__ZN9Transform5ResetEv
$6h:_Decimal_op_Explicit_m1842265407
$Kb:__Z22TransferField_NonArrayI24GenerateTypeTreeTransfer16Converter_StringEvRK23StaticTransferFieldInfoR31RuntimeSerializationCommandInfoRT0_
RMl:_CanvasRenderer_SetAlphaTexture_m2009567627
D4e:_UNITY_FT_CMap_New
tSg:_InternalEnumerator_1_get_Current_m4241643334_AdjustorThunk
wRg:_InternalEnumerator_1_MoveNext_m154749640_AdjustorThunk
_Vb:__Z17MainLoopKeepalivePv
DNd:__ZN5physx7NpScene16addActorInternalERNS_7PxActorE
bkk:__ZL62Slider_t3903728902_CustomAttributesCacheGenerator_m_HandleRectP21CustomAttributesCache
UXl:__ZN15dense_hashtableI10KeyWrapperIPK17Il2CppGenericInstES4_N6il2cpp8metadata21Il2CppGenericInstHashEN14dense_hash_setIS4_S7_NS4_14EqualsComparerINS6_24Il2CppGenericInstCompareEEENSt3__29allocatorIS4_EEE8IdentityESB_SE_E12expand_arrayEjN21dense_hash_map_traits17integral_constantIbLb0EEE
JYg:_InternalEnumerator_1_get_Current_m1588647567_AdjustorThunk
EMf:_Assembly_UnprotectedGetName_m600830855
IMj:__ZL51GCHandle_t3351438187_CustomAttributesCacheGeneratorP21CustomAttributesCache
Axe:__ZN5physx17MBPUpdateWorkTaskD2Ev
e9b:__Z14CalcHullBoundsPK8Vector3fPKhhRK5PlaneRK10Matrix4x4fR10MinMaxAABB
_mh:_InputField_get_caretBlinkRate_m3620074524
Bxb:__ZN11PreloadData39ShouldIgnoreInGarbageDependencyTrackingEv
INk:_ReadOnlyCollection_1_System_Collections_Generic_IListU3CTU3E_set_Item_m375376101_gshared
Y1b:__Z19SetupLODFadeKeywordR17ShaderPassContexti
oae:__ZN5physx22NpParticleBaseTemplateINS_16PxParticleSystemENS_16NpParticleSystemEE23setExternalAccelerationERKNS_6PxVec3E
oTh:_RSAPKCS1SignatureFormatter_CreateSignature_m3191980616
Obb:__ZN10builtintex16GetDefaultTexEnvE16TextureDimensionb
Vxj:__Z52RuntimeInvoker_Int32_t2950945753_Vector4_t3319028937PFvvEPK10MethodInfoPvPS4_
WQa:__ZL25CheckCopyTextureArgumentsRK7ApiGLESP11GLESTextureS3_
g5c:__ZN24UVModulePropertyBindings13AddPropertiesER10vector_mapIi22ParticleModulePropertyNSt3__24lessIiEENS2_9allocatorINS2_4pairIiS1_EEEEE
N$k:_List_1_AsReadOnly_m2400800347_gshared
SSm:_glDeleteShader__wrapper
yKb:__Z29Transfer_Blittable_ArrayFieldI24GenerateTypeTreeTransferyEvRT_R9ArrayInfoRK23StaticTransferFieldInfo
fWi:_ValueType_Equals_m1524437845
U3j:__ZL71RuntimePlatform_t4159857903_CustomAttributesCacheGenerator_OSXWebPlayerP21CustomAttributesCache
PU:__ZN4FMOD7SystemI9playSoundE17FMOD_CHANNELINDEXPNS_5SoundEbPPNS_7ChannelE
huj:__Z123RuntimeInvoker_RuntimeObject_Ray_t3785851493_RuntimeObject_Single_t1397266774_Int32_t2950945753_RuntimeObject_RuntimeObjectPFvvEPK10MethodInfoPvPS4_
ing:_Int64_GetHashCode_m703091690
gdb:__ZNSt3__26__sortIRPFbRKNS_4pairIN9ShaderLab16FastPropertyNameE10ColorRGBAfEES7_EPS5_EEvT0_SC_T_
jJl:__ZL25UnresolvedVirtualCall_166P12Il2CppObject25RaycastResult_t3360306849PK10MethodInfo
srb:__ZN19StreamedBinaryWriteILb0EE21TransferSTLStyleArrayINSt3__26vectorI17SubstanceEnumItemNS2_9allocatorIS4_EEEEEEvRT_17TransferMetaFlags
Yll:_X509CrlEntry_get_RevocationDate_m606796547
fmd:__ZN17PhysicsMaterial2D5ResetEv
Uxl:_Event_get_commandName_m4275147343
GH:__ZN27AnimationLayerMixerPlayable17LayerMixerProcessEP35AnimationPlayableEvaluationConstantP32AnimationPlayableEvaluationInputP33AnimationPlayableEvaluationOutputM17AnimationPlayableFvS1_S3_S5_EMS_FvS1_S3_S5_ESA_MS_FvS5_S1_S3_S5_ifE
g7h:_Decimal_op_Implicit_m4256234411
oT:__ZN12AudioManager23VirtualRedirectTransferER18StreamedBinaryReadILb0EE
acj:__Z60RuntimeInvoker_RuntimeObject_RuntimeObject_Int16_t2552820387PFvvEPK10MethodInfoPvPS4_
zmb:__ZN10VertexData13SwapEndianessEv
Jsg:_StreamReader__ctor_m3941437302
i4c:__ZN27ColorModulePropertyBindings13GetFloatValueERK14ParticleSystemi
JFc:__Z57Register_UnityEngine_Transform_INTERNAL_get_localRotationv
bKh:_IPv6Address_get_Address_m1389170741
Vub:__ZN30RuntimeInitializeOnLoadManager23VirtualRedirectTransferER17RemapPPtrTransfer
CKm:dynCall_viif
WMf:_AssemblyName_get_Flags_m1616840602
kZg:_InternalEnumerator_1_MoveNext_m1590908934_AdjustorThunk
p1j:__ZL86Material_t340375123_CustomAttributesCacheGenerator_Material_DisableKeyword_m1245091008P21CustomAttributesCache
M3b:__ZN29MotionVectorRenderLoopScratchD2Ev
LIe:__ZN5physx2Sc24ConstraintProjectionTree11projectPoseERNS0_19ConstraintGroupNodeE
eIb:__ZL26Transfer_SimpleNativeClassI17RemapPPtrTransfer8GradientLb0EEvRK29SerializationCommandArgumentsR31RuntimeSerializationCommandInfo
D3k:_List_1_Contains_m1508588659_gshared
h6c:__ZL32TransformParticleMeshAnimatedUVsILb1EEvRK16ParticleMeshDataiRK22ParticleSystemTempDataRK31ParticleSystemParticlesTempData11ColorRGBA32RK26ParticleSystemRendererDataRK21ParticleSystemModulesRK10Matrix4x4fRK10Matrix3x3fRK8Vector3fRK23ParticleSystemParticlesjPPhPPf
rJ:__ZN17AnimationPlayable26DisconnectNoTopologyChangeEPS_i
D6f:_Boolean_Equals_m2410333903_AdjustorThunk
_6k:_List_1_System_Collections_IList_Contains_m2131605266_gshared
nPj:__ZL61ISurrogateSelector_t3040401154_CustomAttributesCacheGeneratorP21CustomAttributesCache
ASd:__ZN5physx2Sc21ArticulationJointCore28setSwingLimitContactDistanceEf
sTd:__ZNK5physx20NpRigidActorTemplateINS_18PxArticulationLinkEE14getConstraintsEPPNS_12PxConstraintEjj
jLm:dynCall_viifffi
F8k:_List_1_ToArray_m1990123684_gshared
H3:__ZN13UploadHandlerD2Ev
yIm:dynCall_viiiiiffi
rd:_emscripten_glBlendFuncSeparate
HEk:_Collection_1_Add_m809543251_gshared
naa:__Z20scripting_string_newPKc
SDc:__Z43Material_CUSTOM_Internal_CreateWithMaterialP12Il2CppObjectS0_
crl:_Parser_IsSingleline_m326238187
zcg:_CollectionBase_get_Count_m1708965601
TBg:_HMAC__ctor_m97939284
tNk:_ReadOnlyCollection_1_System_Collections_IList_get_Item_m1005238747_gshared
dVj:__ZL49DBNull_t3725197148_CustomAttributesCacheGeneratorP21CustomAttributesCache
eWi:_ValueType_DefaultEquals_m2927252100
YLc:__ZN9JSONWrite12AppendToNodeEPN5Unity9rapidjson12GenericValueINS1_4UTF8IcEE13JSONAllocatorEEPKcRS6_
PDh:_ASN1_ToString_m1340204511
ved:__ZN16PhysicsManager2D20GetRigidBodyVelocityERK11Rigidbody2D
LNh:_X509Store_get_Certificates_m2149701265
V0e:__Z44Register_UnityEngine_Joint_set_connectedBodyv
STd:__ZNK5physx19NpRigidBodyTemplateINS_18PxArticulationLinkEE27getMaxDepenetrationVelocityEv
kSi:_Type_GetField_m2961003358
kOk:_ReadOnlyCollection_1_System_Collections_Generic_IListU3CTU3E_set_Item_m711370667_gshared
hgk:__ZL144StandaloneInputModule_t2760469101_CustomAttributesCacheGenerator_StandaloneInputModule_t2760469101____allowActivationOnMobileDevice_PropertyInfoP21CustomAttributesCache
MMe:__ZThn8_N5physx2Gu11HeightFieldD1Ev
ULi:_StringBuilder_set_Chars_m3548656617
k3l:__ZN6il2cpp2os4File17GetFileAttributesERKNSt3__212basic_stringIcNS2_11char_traitsIcEENS2_9allocatorIcEEEEPi
jde:__ZN5physx19NpRigidBodyTemplateINS_14PxRigidDynamicEED0Ev
IRd:__ZNK5physx19PxArticulationJoint19getConcreteTypeNameEv
Bxj:__Z59RuntimeInvoker_Int32_t2950945753_X509ChainStatus_t133602714PFvvEPK10MethodInfoPvPS4_
wM:__ZNSt3__26__sortIRPFbPKN8Animator11AnimatorJobES4_EPS4_EEvT0_S9_T_
tS:__ZN17AudioCustomFilterD2Ev
BJc:__ZN11IMGUIModule26SetDeveloperConsoleVisibleEb
kyj:__Z56RuntimeInvoker_Void_t1185182177_MonoResource_t4103430009PFvvEPK10MethodInfoPvPS4_
Qzb:__ZN9Transform16ResetReplacementEv
zvm:_GC_unpromote_black_lists
_Ij:__ZL64DebuggerBrowsableState_t747501856_CustomAttributesCacheGeneratorP21CustomAttributesCache
lPa:__ZN18GfxFramebufferGLES18ReleaseFramebufferEP17RenderSurfaceBaseP14GfxContextGLES
jPc:__Z18Transfer_BlittableI8JSONReadLb1EiEvRK29SerializationCommandArgumentsR31RuntimeSerializationCommandInfo
zQf:_EnumBuilder_GetEvent_m4074915332
_4:__ZN19CloudServiceHandler34HandleSaveFileWebRequestPlayerLoopEv
IWj:__ZL82BigInteger_t2902905090_CustomAttributesCacheGenerator_BigInteger__ctor_m2474659844P21CustomAttributesCache
dJ:__ZN7mecanim21ValueArrayReverseCopyEPKNS_18ValueArrayConstantEPKNS_10ValueArrayES2_PS3_PKi
bS:__Z31GetParentSampleClipFromInstancePN11SoundHandle8InstanceE
xhl:_InternalAsyncResult_get_BytesRead_m3975435112
Ujc:__ZNK28RectTransformPropertyBinding13GetFloatValueERKN11UnityEngine9Animation10BoundCurveE
Bzd:__ZN5physx11PxHitBufferINS_12PxOverlapHitEE14processTouchesEPKS1_j
rbc:__ZN6Camera22StandaloneCustomRenderENS_10RenderFlagEP6ShaderRKN4core12basic_stringIcNS3_20StringStorageDefaultIcEEEEPNS_21PerformRenderFunctionE
RFi:_Array_InternalArray__IndexOf_TisKeyValuePair_2_t2401056908_m4118889689_gshared
yub:__ZNSt3__26vectorI4PPtrI6ObjectE13stl_allocatorIS3_L18MemLabelIdentifier52ELi16EEE6assignINS_11__wrap_iterIPS3_EEEENS_9enable_ifIXaasr21__is_forward_iteratorIT_EE5valuesr16is_constructibleIS3_NS_15iterator_traitsISD_E9referenceEEE5valueEvE4typeESD_SD_
HJk:_Collection_1_System_Collections_ICollection_get_IsSynchronized_m500240145_gshared
ZXj:__ZL68X509CertificateCollection_t3399372417_CustomAttributesCacheGeneratorP21CustomAttributesCache
pee:__ZL22addOrRemoveRigidObjectILb0ELb0ELb0ELb1EN5physx3Scb11RigidStaticEEvRNS0_2Sc5SceneERT3_b
wCm:__ZN6il2cpp2os16ThreadLocalValue8GetValueEPPv
OMh:_X509Certificate2_get_PublicKey_m370665820
Bfh:_AsyncResult_AsyncProcessMessage_m2076471000
CJl:__ZL25UnresolvedVirtualCall_185P12Il2CppObject25RaycastResult_t3360306849S1_PK10MethodInfo
b$:__ZN13AudioListener17ReadExtensionNameEi
id:invoke_iiidii
YId:__ZNK5physx2Gu19SupportMapLocalImplINS0_11ConvexHullVEE18doWarmStartSupportEiRNS_6shdfnd3aos5Vec3VE
gCk:_Collection_1_System_Collections_Generic_ICollectionU3CTU3E_get_IsReadOnly_m1419845799_gshared
nCl:_U3CTimedTriggerU3Ec__Iterator0_System_Collections_Generic_IEnumeratorU3CobjectU3E_get_Current_m3822291412
YKd:__ZN5physx6shdfnd4sortIPvNS0_4LessIS2_EENS0_19ReflectionAllocatorINS_2Cm5BlockIS2_Lj8EEEEEEEvPT_jRKT0_RKT1_j
I_:__ZN9AudioClip15InitializeClassEv
h$d:__ZNK5physx9NpPhysics11getNbShapesEv
Rq:setThrew
nih:_SoapMethodAttribute_get_XmlNamespace_m4029617514
zlc:__ZL21BuildEmptyCubeTexturePKci11ColorRGBA3217TextureColorSpace
sZj:__ZL106AsyncOperation_t1445031843_CustomAttributesCacheGenerator_AsyncOperation_InvokeCompletionEvent_m1410305036P21CustomAttributesCache
kvi:_SelectionBaseAttribute__ctor_m2749097321
Ita:__ZN14SafeBinaryRead21TransferSTLStyleArrayINSt3__26vectorIN9ShaderLab20SerializedSubProgramENS1_9allocatorIS4_EEEEEEvRT_17TransferMetaFlags
oGi:_Array_InternalArray__IndexOf_TisX509ChainStatus_t133602714_m48896230_gshared
GZa:__ZN19dynamic_block_arrayI13FileEntryInfoLj32EE4growEj
sPc:__Z15Transfer_StringI8JSONReadLb1EEvRK29SerializationCommandArgumentsR31RuntimeSerializationCommandInfo
pTk:_Comparison_1_BeginInvoke_m816899747_gshared
jCc:__Z35Light_Set_Custom_PropShadowStrengthP12Il2CppObjectf
XZh:_String_IndexOf_m3406607758
X6e:_sfnt_load_face
ref:_UNITY_FT_Render_Glyph_Internal
Fim:__ZNSt3__212basic_stringIDsNS_11char_traitsIDsEENS_9allocatorIDsEEE21__grow_by_and_replaceEjjjjjjPKDs
X4e:_UNITY_ft_service_list_lookup
ZHb:__Z18Transfer_BlittableI17RemapPPtrTransferLb1E11ColorRGBA32EvRK29SerializationCommandArgumentsR31RuntimeSerializationCommandInfo
_Ic:__ZN5IMGUI21SelectReceivingWindowER8GUIStateb
hCg:_HMAC_Initialize_m3157696427
Usd:__ZN5physx2Gu20intersectTriangleBoxERKNS_6PxVec3ES3_S3_S3_S3_
Mtg:_SynchronizedWriter_Write_m2529550287
c_d:__ZN5physx10NpMaterial8setFlagsENS_7PxFlagsINS_14PxMaterialFlag4EnumEtEE
b5k:_List_1_System_Collections_ICollection_CopyTo_m3643417403_gshared
A5:__ZN13BaseAllocator13TryDeallocateEPv
cNb:__Z29Transfer_Blittable_ArrayFieldI19StreamedBinaryWriteILb0EEfEvRT_R9ArrayInfoRK23StaticTransferFieldInfo
yxl:_ListPool_1_Release_m1363449253_gshared
HLh:_X509SubjectKeyIdentifierExtension__ctor_m2055934916
bWk:_Enumerator_Dispose_m2531396701_AdjustorThunk
qJk:_Collection_1_set_Item_m480139225_gshared
PBb:__ZN16MemoryFileSystem5WriteER13FileEntryDatayPvPy
ppc:__ZN10GUIElementC2E10MemLabelId18ObjectCreationMode
FDm:_sprintf
z5j:__ZL67NativeContainerAttribute_t2600515814_CustomAttributesCacheGeneratorP21CustomAttributesCache
yxc:__ZN9Scripting25CreateNullExceptionObjectE18ScriptingObjectPtr
SFh:_PrivateKeyInfo_DecodeRSA_m2889346634
XS:__ZN13AudioListener17RemoveFromManagerEv
me:_glAttachShader
VEf:_ContentSizeFitter_SetLayoutHorizontal_m2833273874
AKk:_ReadOnlyCollection_1_System_Collections_IList_RemoveAt_m134366701_gshared
fWe:__ZN5physx6shdfnd8internal8HashBaseINS0_4PairIKtPKcEEtNS0_4HashItEENS1_11HashMapBaseItS6_S9_NS_7profile26WrapperReflectionAllocatorIS6_EEE6GetKeyESD_Lb1EE6createERS4_Rb
T7:__ZNK6Camera19GetProjectionMatrixEv
hKe:__ZNK5physx2Cm12DelegateTaskINS_2Sc5SceneEXadL_ZNS3_18clothPreprocessingEPNS_10PxBaseTaskEEEE7getNameEv
Bje:__ZNK5physx7NpScene24getWakeCounterResetValueEv
Ace:__ZN5physx20NpRigidActorTemplateINS_14PxRigidDynamicEE17resolveReferencesERNS_24PxDeserializationContextE
m7c:__Z19UpdateSingleRow2TplIL27ParticleSystemCurveEvalMode2ELS0_4EEvfRK11MinMaxCurveS3_RK23ParticleSystemParticlesPfbiii
Anh:_InputField_SetToCustomIfContentTypeIsNot_m2813459946
T8i:__Z49RuntimeInvoker_DateTime_t3738529785_RuntimeObjectPFvvEPK10MethodInfoPvPS4_
eFk:_Collection_1_System_Collections_ICollection_CopyTo_m1691066866_gshared
eHe:__ZNK5physx16PxsSolverEndTask7getNameEv
zei:_Guid_GetHashCode_m3042133858_AdjustorThunk
TAe:__ZN5physx2Gu32PCMConvexVsMeshContactGeneration20generateLastContactsEv
O9:__Z38PreallocateObjectFromPersistentManagerib
Kxl:_Event_t2956885303_marshal_pinvoke_cleanup
xck:__ZL57SphereCollider_t2077223608_CustomAttributesCacheGeneratorP21CustomAttributesCache
m_d:__ZThn12_N5physx10NpMaterialD0Ev
GQh:_Interpreter_Backtrack_m2828876822
tfb:__ZNK9Texture2D20GetUnscaledTextureIDEv
T4h:_DBNull_System_IConvertible_ToInt64_m3889862579
uzg:_SByte_System_IConvertible_ToType_m4075253447
TGh:_StrongName_get_PublicKey_m1841537984
vQe:__ZN5physx6shdfnd4sortIjNS_19SortBoundsPredicateENS0_19ReflectionAllocatorIjEEEEvPT_jRKT0_RKT1_j
WQm:_glFenceSync__wrapper
M0d:__ZN5physx7NpShape14onRefCountZeroEv
Bxi:_Transform_INTERNAL_get_worldToLocalMatrix_m2730237241
DVc:__ZNK14ParticleSystem7GetLoopEv
T4f:_AssemblyLoadEventHandler_Invoke_m1462077361
Ndl:_ExplosionFireAndDebris_Start_m3801736675
UPe:__ZL15TestContainmentRKN5physx6PxVec3EPKfjPKNS_2Gu15HullPolygonDataE
Ayj:__Z51RuntimeInvoker_Void_t1185182177_HitInfo_t3229609740PFvvEPK10MethodInfoPvPS4_
yfb:__ZNK9Texture2D26CanReuploadDataToGfxDeviceEv
aSb:__ZN18StreamedBinaryReadILb0EE21TransferSTLStyleArrayI13dynamic_arrayI4AABBLj4EEEEvRT_17TransferMetaFlags
jRj:__ZL63CodeAccessPermission_t2681295399_CustomAttributesCacheGeneratorP21CustomAttributesCache
uwb:__Z29ClearRepeatingLogMessageStatev
WWg:_InternalEnumerator_1_get_Current_m3191242573_gshared
G7f:_Byte_Equals_m1161982810_AdjustorThunk
Qxj:__Z53RuntimeInvoker_Int32_t2950945753_UICharInfo_t75501106PFvvEPK10MethodInfoPvPS4_
VMe:__ZN5physx2Gu11HeightField12loadFromDescERKNS_17PxHeightFieldDescEb
dkc:__ZN15QualitySettings12CleanupClassEv
Joa:__ZN21EnlightenSceneMappingaSERKS_
yZg:_InternalEnumerator_1_System_Collections_IEnumerator_Reset_m500203932_AdjustorThunk
Ozk:_Collection_1_Remove_m62181110_gshared
oVa:__ZN7ApiGLESD2Ev
P0a:__ZN9Transform47ClearTransformHierarchyAndApplyToSerializedDataEv
Hge:__ZN5physx6shdfnd8PoolBaseINS_2Gu30LargePersistentContactManifoldENS0_19ReflectionAllocatorIS3_EEE12allocateSlabEv
HQc:__ZN8JSONRead21TransferSTLStyleArrayINSt3__26vectorI8MonoPPtr13stl_allocatorIS3_L18MemLabelIdentifier1ELi16EEEEEEvRT_17TransferMetaFlags
bog:_IntPtr_op_Explicit_m536245531
Z1a:__ZN6Camera23VirtualRedirectTransferER19StreamedBinaryWriteILb0EE
ZKm:dynCall_fidi
V5l:__ZN15dense_hashtableINSt3__24pairIK10KeyWrapperINS1_IPK9FieldInfoP11Il2CppClassEEEjEES9_17ReflectionMapHashIS8_EN14dense_hash_mapIS9_jSD_NS9_14EqualsComparerINS0_8equal_toIS8_EEEENS0_9allocatorISB_EEE9SelectKeyESI_SK_E12resize_deltaEjj
XEe:__ZN5physx20getVertexEdgeIndicesERKNS_2Gu11HeightFieldEjjjPNS_8EdgeDataE
f0k:_List_1_TrimExcess_m3433550210_gshared
Nle:__ZN5physx6shdfnd5ArrayIPNS_2Sc8BodyCoreENS0_19ReflectionAllocatorIS4_EEE6resizeEjRKS4_
vXl:__ZNK15dense_hashtableINSt3__24pairIK10KeyWrapperIPK19Il2CppGenericMethodEPK26Il2CppGenericMethodIndicesEES6_N6il2cpp8metadata23Il2CppGenericMethodHashEN14dense_hash_mapIS6_SA_SE_NS6_14EqualsComparerINSD_26Il2CppGenericMethodCompareEEENS0_9allocatorISB_EEE9SelectKeyESI_SK_E8min_sizeEjj
qBd:__ZN5physx3Cct26CharacterControllerManager16createControllerERNS_9PxPhysicsEPNS_7PxSceneERKNS_16PxControllerDescE
Myl:_GUILayoutEntry__ctor_m2229197035
e4:__ZN11UnityEngine15CloudWebService14RestDownloaderD2Ev
VPf:_EnumBuilder_get_Assembly_m1175292766
oec:__Z29StdTemplateConversionFunctionIjhEbPvR14SafeBinaryRead
Yfa:__ZN15dense_hashtableINSt3__24pairIKN9ShaderLab7Program23ShaderKeywordSetAndHashEPKNS2_10SubProgramEEES4_NS3_24ShaderKeywordHashFunctorEN14dense_hash_mapIS4_S8_SA_NS0_8equal_toIS4_EE13stl_allocatorIS9_L18MemLabelIdentifier67ELi16EEE9SelectKeyESD_SG_E15insert_noresizeERKS9_
suk:_Array_swap_TisCustomAttributeNamedArgument_t287865710_TisCustomAttributeNamedArgument_t287865710_m881919420_gshared
crb:__ZN14SubstanceInput8TransferI24GenerateTypeTreeTransferEEvRT_
vxc:__ZNK13MonoBehaviour13GetScriptTypeEv
I9a:__ZN13RenderTexture12SetDimensionE16TextureDimension
tOg:_SslClientStream_set_ClientCertSelectionDelegate_m1261530976
df:_SDL_FreeRW
Uoe:__ZN5physx6shdfnd8PoolBaseINS_2Cm5BlockIhLj128EEENS0_19ReflectionAllocatorIS4_EEE15disposeElementsEv
Mek:__ZL109ExecuteEvents_t3484638744_CustomAttributesCacheGenerator_ExecuteEvents_U3Cs_HandlerListPoolU3Em__0_m391641698P21CustomAttributesCache
U5g:_Enumerator__ctor_m1320896511_gshared
Glf:__Z34CanvasRenderer_Get_Custom_PropCullP12Il2CppObject
Y8d:__ZN5physx3Scb14ParticleSystem14setRestOffsetsEjRKNS_16PxStrideIteratorIKjEERKNS2_IKfEE
JY:__ZN20SoundChannelInstance8getDelayE14FMOD_DELAYTYPEPjS1_
Yzm:__ZNSt3__26__treeINS_12__value_typeIPvxEENS_19__map_value_compareIS2_S3_NS_4lessIS2_EELb1EEENS_9allocatorIS3_EEE12__find_equalIS2_EERPNS_16__tree_node_baseIS2_EESF_RKT_
nga:__ZNSt3__26vectorIN20GpuProgramParameters15StructParameterENS_9allocatorIS2_EEEC2ERKS5_
yQg:_ArrayReadOnlyList_1_Contains_m232667507_gshared
Rhj:__Z77RuntimeInvoker_Boolean_t97287965_IntPtr_t_Int32_t2950945753_SByte_t1669577662PFvvEPK10MethodInfoPvPS4_
Cqi:_PlayableHandle_GetPlayableType_m432385838_AdjustorThunk
gdf:__ZNSt3__26vectorIN20TextRenderingPrivate8FontImpl13CharacterInfoE13stl_allocatorIS3_L18MemLabelIdentifier1ELi16EEE8__appendEj
tsg:_Stream_Dispose_m2589290611
v:tempBigInt
Jqk:_Array_InternalArray__Insert_TisKeyframe_t4206410242_m1558638568_gshared
uTj:__ZL77Convert_t2465617642_CustomAttributesCacheGenerator_Convert_ToByte_m3567528984P21CustomAttributesCache
mf:_emscripten_glVertexAttrib1fv
pua:__ZNSt3__26vectorIN9ShaderLab20SerializedSubProgram12UAVParameterENS_9allocatorIS3_EEE7reserveEj
RDg:_BigInteger__ctor_m2644482640
nHm:__ZSt11__terminatePFvvE
Bke:__ZN5physx13NpVolumeCacheC2EPNS_2Sq17SceneQueryManagerEjj
ULd:__ZThn24_N5physx2Sc20ArticulationJointSimD1Ev
nV:__ZN12AudioManager14systemCallbackEP11FMOD_SYSTEM24FMOD_SYSTEM_CALLBACKTYPEPvS3_
xUk:_Nullable_1_Equals_m4046255732_gshared
cri:_QualitySettings_set_shadowDistance_m3878605578
xoj:__Z70RuntimeInvoker_Void_t1185182177_Int32_t2950945753_SceneU26_t1660954847PFvvEPK10MethodInfoPvPS4_
PPk:_ReadOnlyCollection_1_System_Collections_Generic_ICollectionU3CTU3E_Clear_m3451551308_gshared
GCf:_BaseMeshEffect_OnEnable_m3291426649
khi:_ClassLibraryInitializer_Init_m988673678
U4f:_AssemblyLoadEventHandler_BeginInvoke_m1281107466
Z8d:__ZN5physx2Sc18ParticleSystemCore14setRestOffsetsEjRKNS_16PxStrideIteratorIKjEERKNS2_IKfEE
jtd:__ZN5physx2Gu16testPolyDataAxisERKNS0_8CapsuleVERKNS0_13PolygonalDataEPNS0_12SupportLocalERKNS_6shdfnd3aos6FloatVERSB_RNSA_5Vec3VE
U8a:__ZN16ReflectionProbes16UpdateSampleDataEv
sXc:__Z9UpdateTplIL27ParticleSystemCurveEvalMode1EEvRK11MinMaxCurveR23ParticleSystemParticlesjjPKN4math8floatNx3E
LOd:__ZN5physx2Sc17ParticleSystemSimD0Ev
n6j:__ZL90PlayerEditorConnectionEvents_t3411787513_CustomAttributesCacheGenerator_disconnectionEventP21CustomAttributesCache
Pci:_CultureInfo_GetCultureInfo_m56098747
vqb:__ZN18ProceduralMaterial23VirtualRedirectTransferER17RemapPPtrTransfer
KIl:__ZL25UnresolvedVirtualCall_139P12Il2CppObject17Color_t2555686324faaPK10MethodInfo
Kkb:__ZN14Texture2DArray5ResetEv
u8b:__Z20AddActiveLocalLightsR11CullResultsR27LocalLightCullingParametersPPK15SharedLightDataPK8Vector4fRK9IndexListPfRSA_R12ActiveLightsSG_P5RectTIfEP13TargetEyeMask
BIj:__ZL80Hashtable_t1853889766_CustomAttributesCacheGenerator_Hashtable__ctor_m1763145853P21CustomAttributesCache
Qgg:_Convert_ToDecimal_m1284148187
mHk:_Collection_1__ctor_m3489157029_gshared
oOm:_emscripten_glRenderbufferStorage__wrapper
f4l:__ZNK6il2cpp2vm14TypeNameParser10NextWillBeEcb
r2e:_cf2_getNormalizedVector
Jf:_JS_Sound_Play
m7g:_KeyCollection_GetEnumerator_m1862005650_gshared
Gqf:__Z26GetUnityConnectSettingsPtrv
MQk:_ReadOnlyCollection_1_System_Collections_IList_set_Item_m1538987737_gshared
j1g:_DefaultComparer_Compare_m1920986590_gshared
lNg:_RecordProtocol_ProcessChangeCipherSpec_m15839975
Wsa:__ZN9ShaderLab16SerializedShader8TransferI14SafeBinaryReadEEvRT_
jXa:__ZN5Mutex7TryLockEv
VJf:_GridLayoutGroup_set_constraint_m3308895167
g8j:__ZL103AudioSource_t3935305588_CustomAttributesCacheGenerator_AudioSource_ReadExtensionPropertyValue_m72717540P21CustomAttributesCache
kgh:_ConstructionCallDictionary_SetMethodProperty_m3145285304
amg:_Int32_System_IConvertible_ToUInt32_m3557270157
Mkj:__Z243RuntimeInvoker_Void_t1185182177_Int16_t2552820387_RuntimeObject_Int32_t2950945753_Int32_t2950945753_Int32_t2950945753_SByte_t1669577662_SByte_t1669577662_SByte_t1669577662_SByte_t1669577662_Int16_t2552820387_SByte_t1669577662_SByte_t1669577662PFvvEPK10MethodInfoPvPS4_
mng:_Int64_Parse_m3309897583
QL:__ZN7mecanim8skeleton13SkeletonAlignEPKNS0_8SkeletonERKN4math7_float4ES7_i
rmc:__ZN19ShaderPropertySheet16SetVectorIndexedEN9ShaderLab16FastPropertyNameEifRK8Vector4fNS_8SetFlagsE
FRi:_Type_get_IsAbstract_m1120089130
hzi:_Vector3_get_normalized_m2454957984_AdjustorThunk
Yr:__ZN14SafeBinaryRead21TransferSTLStyleArrayIN4core12basic_stringIcNS1_20StringStorageDefaultIcEEEEEEvRT_17TransferMetaFlags
Bsl:_UriFormatException__ctor_m1115096473
WUg:_InternalEnumerator_1_Dispose_m2818366163_AdjustorThunk
GDi:_Array_InternalArray__IEnumerable_GetEnumerator_TisSlot_t384495010_m460993382_gshared
P7k:_List_1__ctor_m2203182218_gshared
dem:__ZN15dense_hashtableINSt3__24pairIK10KeyWrapperINS1_IP11Il2CppClassjEEES4_EES6_N6il2cpp8metadata14ArrayClassHashEN14dense_hash_mapIS6_S4_SB_NS6_14EqualsComparerINSA_17ArrayClassCompareEEENS0_9allocatorIS8_EEE9SelectKeyESF_SH_E9copy_fromERKSK_j
Sec:__Z29StdTemplateConversionFunctionIayEbPvR14SafeBinaryRead
Wde:__ZNK5physx20NpRigidActorTemplateINS_13PxRigidStaticEE14getConstraintsEPPNS_12PxConstraintEjj
Hvd:__ZN25MeshMTDGenerationCallbackD0Ev
cDj:__Z55RuntimeInvoker_Boolean_t97287965_Nullable_1_t2603721331PFvvEPK10MethodInfoPvPS4_
vAl:_GUIUtility_IsExitGUIException_m3644066650
H4:__ZN11UnityEngine15CloudWebService14DataDispatcher4StopEv
Rjg:_Int16_System_IConvertible_ToUInt64_m134975563
rua:__ZNSt3__26vectorIN9ShaderLab20SerializedSubProgram12UAVParameterENS_9allocatorIS3_EEE8__appendEj
eMj:__ZL68TargetInvocationException_t4266643902_CustomAttributesCacheGeneratorP21CustomAttributesCache
A9l:__ZNK15dense_hashtableINSt3__24pairIK10KeyWrapperINS1_IPK9EventInfoP11Il2CppClassEEEjEES9_17ReflectionMapHashIS8_EN14dense_hash_mapIS9_jSD_NS9_14EqualsComparerINS0_8equal_toIS8_EEEENS0_9allocatorISB_EEE9SelectKeyESI_SK_E12test_deletedERK24dense_hashtable_iteratorISB_S9_SD_SM_SI_SK_E
SIc:__ZN5IMGUI9GUIWindow5OnGUIER8GUIState
YFl:_AudioConfigurationChangeHandler_EndInvoke_m4175380841
wuj:__Z79RuntimeInvoker_Void_t1185182177_RuntimeObject_RuntimeObject_Vector3_t3722313464PFvvEPK10MethodInfoPvPS4_
duc:__ZNK17AnimationCurveTplI11QuaternionfE8GetRangeEv
TIi:_Array_InternalArray__ICollection_CopyTo_TisSingle_t1397266774_m455540885_gshared
CYa:__ZN17ScriptingGCHandle7AcquireE18ScriptingObjectPtr25ScriptingGCHandleWeakness
j7g:_KeyCollection_System_Collections_ICollection_get_IsSynchronized_m829086683_gshared
dkj:__Z74RuntimeInvoker_RuntimeObject_RuntimeObject_Int64_t3736567304_RuntimeObjectPFvvEPK10MethodInfoPvPS4_
Bjf:__ZN2UI14CanvasRenderer14AttachToCanvasER8JobFencePNS_6CanvasENS0_15InstructionTypeE
TUd:__ZN5physx12NpConstraint8comShiftEPNS_12PxRigidActorE
zah:_Enumerator__ctor_m1734342590_gshared
yJm:dynCall_iifiii
lmj:__Z85RuntimeInvoker_Int32_t2950945753_RuntimeObject_Int32U26_t1369213839_Int32_t2950945753PFvvEPK10MethodInfoPvPS4_
WJa:__Z21HasAlphaTextureFormat13TextureFormat
s_:__ZN12AudioManager6UpdateEv
PJa:__ZN14ImageReference9BlitImageERKS_NS_8BlitModeE
sD:__ZN8Animator12AddToManagerEv
svg:_MissingFieldException__ctor_m3742452630
_sc:__Z26ApplyBlendShapesToVerticesR12SkinMeshInfoRKN4math5_int4EPNS1_8floatNx3ES6_
jsd:__ZNK5physx2Gu16SupportLocalImplINS0_11ConvexHullVEE9doSupportERKNS_6shdfnd3aos5Vec3VERNS5_6FloatVESA_
lUb:__ZN23CachedSerializationDataD2Ev
rac:__ZNK25CameraStackRenderingState31CalculateStereoCameraTargetTypeEv
epd:__ZNK5physx3Cct13BoxController8getActorEv
u8a:__ZN14RenderSettings23VirtualRedirectTransferER14SafeBinaryRead
w_g:_InternalEnumerator_1_get_Current_m114240259_gshared
Xgd:__ZNK13b2CircleShape5CloneEP16b2BlockAllocator
vqm:__ZN6il2cpp2os10ThreadImpl15CurrentThreadIdEv
Vqk:_Array_InternalArray__Insert_TisVector2_t2156229523_m2148694950_gshared
n5a:__ZN17GlobalGameManager8TransferI17RemapPPtrTransferEEvRT_
nnk:__ZL73FieldWithTarget_t3058750293_CustomAttributesCacheGenerator_m_StaticStringP21CustomAttributesCache
MNe:__ZN5physx6shdfnd8internal8HashBaseIPNS_2Gu12TriangleMeshES5_NS0_4HashIS5_EENS1_11HashSetBaseIS5_S7_NS0_9AllocatorELb1EE6GetKeyES9_Lb1EE5eraseERKS5_
PUh:_SymmetricAlgorithm_get_Key_m3241860519
Uph:_U3CMouseDragOutsideRectU3Ec__Iterator1_Reset_m2233410497
knh:_InputField_set_customCaretColor_m720445789
a8a:__ZN16LevelGameManager8TransferI18StreamedBinaryReadILb0EEEEvRT_
pka:__ZN19ThreadSpecificValueIP13MonoBehaviourE15ReinitializeTLSEPv
J0a:__Z17IsObjectAvailablei
Drb:__ZN12InputManagerD0Ev
Qyk:_Queue_1_Peek_m1713833142_gshared
_Pj:__ZL64DSASignatureFormatter_t2007981259_CustomAttributesCacheGeneratorP21CustomAttributesCache
qOi:_ExecutionContext_Capture_m681135907
f$i:_Dictionary_2_System_Collections_IDictionary_Add_m4011968134_gshared
pVd:__ZN5physx2Sc9RigidCore20removeShapeFromSceneERNS0_9ShapeCoreEb
FQb:__Z18Transfer_BlittableI18StreamedBinaryReadILb0EELb1EtEvRK29SerializationCommandArgumentsR31RuntimeSerializationCommandInfo
JSg:_InternalEnumerator_1_System_Collections_IEnumerator_get_Current_m2889979481_AdjustorThunk
hGm:_posix_memalign
qQe:__ZN5physx11RTreeCooker18buildFromTrianglesERNS_2Gu5RTreeEPKNS_6PxVec3EjPKtPKjjRNS_6shdfnd5ArrayIjNSB_19ReflectionAllocatorIjEEEEPNS0_13RemapCallbackEfNS_17PxMeshCookingHint4EnumE
APd:__ZN5physx6shdfnd5ArrayIPvNS0_15InlineAllocatorILj256ENS0_19ReflectionAllocatorINS_14NpArticulationEEEEEE15growAndPushBackERKS2_
msi:_Rect_get_position_m2115952571
A2j:__ZL90SceneManager_t2787271929_CustomAttributesCacheGenerator_SceneManager_LoadScene_m1758133949P21CustomAttributesCache
ANk:_ReadOnlyCollection_1_get_Item_m4005849861_gshared
Yxh:_Slider_get_direction_m3871593184
MDh:_ASN1_GetBytes_m3305539297
z8k:_List_1_Remove_m2092116835_gshared
e6j:__ZL86Logger_t274032455_CustomAttributesCacheGenerator_Logger_LogFormat_m3030796110____args2P21CustomAttributesCache
ZTj:__ZL77Convert_t2465617642_CustomAttributesCacheGenerator_Convert_ToSByte_m717245755P21CustomAttributesCache
HFk:_Collection_1_get_Count_m1256581455_gshared
Y0g:_DefaultComparer__ctor_m2039558311_gshared
S9:__ZNK15MonoScriptCache7ReleaseEv
UUl:__ZN6il2cpp2vm5Class13HasReferencesEP11Il2CppClass
xCe:__ZN5physx9PxTaskMgrC2EPNS_15PxCpuDispatcherEPNS_15PxGpuDispatcherEPNS_15PxSpuDispatcherE
p9f:_CLSCompliantAttribute__ctor_m581760440
Xg:_glBindTexture
wEm:_snprintf
gog:_InvalidCastException__ctor_m2551002860
zsj:__Z50RuntimeInvoker_RuntimeObject_Resources_t1597885468PFvvEPK10MethodInfoPvPS4_
FPm:_emscripten_glVertexAttrib1fv__wrapper
Lyj:__Z76RuntimeInvoker_Void_t1185182177_Int32_t2950945753_KeyValuePair_2_t2401056908PFvvEPK10MethodInfoPvPS4_
Uxb:__Z36scripting_liveness_calculation_begin17ScriptingClassPtriPFvPP12Il2CppObjectiPvES3_PFvvES7_
Du:__ZN7mecanim12statemachine13StateConstant8TransferI24GenerateTypeTreeTransferEEvRT_
rIm:dynCall_viiiiiifi
cOm:_emscripten_glGetProgramInfoLog__wrapper
qO:__ZN25AnimatedPropertyEvaluator29BindCurveToScriptingObjectPtrERKN13AnimationClip10FloatCurveEj18ScriptingObjectPtrb
iRj:__ZL80AllowPartiallyTrustedCallersAttribute_t1828959166_CustomAttributesCacheGeneratorP21CustomAttributesCache
Uzk:_Collection_1_SetItem_m1090516645_gshared
igk:__ZL52InputMode_t3382566315_CustomAttributesCacheGeneratorP21CustomAttributesCache
Pba:__ZN17PersistentManager23DestroyFromFileInternalEi
iji:_Display__ctor_m501911701
WLk:_ReadOnlyCollection_1_System_Collections_Generic_IListU3CTU3E_Insert_m1020890112_gshared
FGf:_Dropdown_get_onValueChanged_m2462066659
TFf:_DefaultControls_SetDefaultTextValues_m1943359795
C3b:__Z19SetupMotionMatricesR6CameraR18RPDataMotionVector
BQl:__ZL7log2_64y
_Ih:_TypeConverterAttribute_Equals_m1580461255
kN:__ZN26AnimatorControllerPlayable18PrepareForPlaybackERN7mecanim6memory9AllocatorE
LH:__ZN7mecanim5human25HumanPoseAddOverrideLayerERNS0_9HumanPoseERKS1_fRKNS_6bitsetILj83EEE
QJf:_GridLayoutGroup_get_cellSize_m2967185053
Fse:__ZN5physx19PxsMaterialCombiner24combineIsotropicFrictionERKNS_15PxsMaterialDataES3_
Mjl:_PKCS12_Decrypt_m1280162536
XRl:_CustomEventData_AddChar_m2745147926
SSg:_InternalEnumerator_1_get_Current_m3081223448_gshared
cyl:_Event_get_isMouse_m1058251071
u6a:__ZN10VertexDataC2ERKS_17ShaderChannelMask10MemLabelId
dae:__ZN5physx22NpParticleBaseTemplateINS_16PxParticleSystemENS_16NpParticleSystemEE20lockParticleReadDataEv
uAk:_Collection_1_IndexOf_m3762683187_gshared
y5e:_otv_JSTF_validate
qga:__ZN22CreateGpuProgramOutputC2Ev
ZEg:_BigInteger_op_LessThanOrEqual_m3925173639
tki:_PersistentCallGroup_Initialize_m4253175514
V5f:_Boolean_System_IConvertible_ToChar_m4279513009_AdjustorThunk
RHh:_DictionaryNodeEnumerator__ctor_m1005316675
tGj:__ZL66RuntimeArray_CustomAttributesCacheGenerator_Array_Sort_m3145621264P21CustomAttributesCache
Iph:_InputField_get_layoutPriority_m2945430764
elg:_NumberFormatter_ScaleOrder_m3813786990
cZk:_List_1_GetEnumerator_m239622569_gshared
Esj:__Z43RuntimeInvoker_VerticalWrapMode_t2936607737PFvvEPK10MethodInfoPvPS4_
py:__Z21GetAnimatableBindTypeRK16TypeTreeIterator
b3i:_EqualityComparer_1__ctor_m2241711498_gshared
TFh:_PrivateKeyInfo_DecodeDSA_m771724585
CTj:__ZL81Convert_t2465617642_CustomAttributesCacheGenerator_Convert_ToDateTime_m1031474510P21CustomAttributesCache
yOe:__ZN5physx7Cooking16cookTriangleMeshERKNS_18PxTriangleMeshDescERNS_14PxOutputStreamE
m7l:__ZNK15dense_hashtableINSt3__24pairIK10KeyWrapperINS1_IPK10MethodInfoP11Il2CppClassEEEjEES9_17ReflectionMapHashIS8_EN14dense_hash_mapIS9_jSD_NS9_14EqualsComparerINS0_8equal_toIS8_EEEENS0_9allocatorISB_EEE9SelectKeyESI_SK_E23find_position_with_hashERSA_j
jof:__Z38CustomEventData_CUSTOM_InternalDestroyP12Il2CppObject
lek:__ZL53EventHandle_t600343995_CustomAttributesCacheGeneratorP21CustomAttributesCache
QZe:__ZN14CompletionTask4InitEPN5physx7PxSceneE
lbg:_SynchronizedArrayListWrapper_get_SyncRoot_m3862302789
MMd:__ZN5physx2Sc7ElementD0Ev
nUi:_UInt32_System_IConvertible_ToSByte_m1061556466
XQe:__ZN5physx6shdfnd10Foundation7releaseEv
fdh:_WellKnownClientTypeEntry__ctor_m2471908952
TUl:__ZN6il2cpp2vm5Class4InitEP11Il2CppClass
wf:_emscripten_glBindBuffer
byg:_NumberFormatter_FormatRoundtrip_m19342689
Gjh:_RemotingServices_CreateClientProxyForContextBound_m783705199
Ftj:__Z30RuntimeInvoker_Axis_t809944411PFvvEPK10MethodInfoPvPS4_
ntc:__ZNK15GUIEventManager15GetEventAtIndexEi
shl:_InternalAsyncResult_get_ProceedAfterHandshake_m2508379800
Sjf:__ZN2UI14CanvasRenderer17SyncDirtyElementsER8JobFence
BQb:__Z18Transfer_BlittableI18StreamedBinaryReadILb0EELb0ExEvRK29SerializationCommandArgumentsR31RuntimeSerializationCommandInfo
z8f:_Convert_ToUInt16_m2952781888
c4g:_Enumerator_System_Collections_IEnumerator_get_Current_m3816090481_gshared
ytm:__ZN6il2cpp5utils11StringUtils15StringDuplicateEPKc
W1i:_DefaultComparer_Equals_m2480133610_gshared
Hfa:__ZNK9ShaderLab21ShaderRasterStateDesc16ToGfxRasterStateEPK19ShaderPropertySheetS3_R14GfxRasterState
huk:_Array_Sort_TisVector3_t3722313464_m1915176437_gshared
DCm:__ZN6il2cpp2os9EventImplC2Ebb
IYc:__Z12RangedRandomR5RandNRKiS2_
MFk:_Collection_1_ConvertItem_m2110978655_gshared
yv:__ZN4PPtrI13MonoBehaviourE8TransferI19StreamedBinaryWriteILb0EEEEvRT_
a3k:_List_1_get_Item_m2113769949_gshared
Ksh:_MaskableGraphic_OnTransformParentChanged_m329502413
nA:__ZNSt3__26vectorIN13AnimationClip9PPtrCurveE13stl_allocatorIS2_L18MemLabelIdentifier26ELi16EEE6resizeEj
fvi:_ScriptableObject_t2528358522_marshal_pinvoke
Gga:__Z20IsMatrixBuiltinParamPKcPi
_9l:__ZN6il2cpp2gc19AppendOnlyGCHashMapINSt3__24pairIPK10MethodInfoP11Il2CppClassEEP11Il2CppArray17ReflectionMapHashIS9_ENS2_8equal_toIS9_EEEC2Ev
gWh:_String_memcpy4_m979367827
VXh:_SecurityFrame_t1422462475_marshal_pinvoke
t7l:__ZN15dense_hashtableINSt3__24pairIK10KeyWrapperINS1_IPK10MethodInfoP11Il2CppClassEEEjEES9_17ReflectionMapHashIS8_EN14dense_hash_mapIS9_jSD_NS9_14EqualsComparerINS0_8equal_toIS8_EEEENS0_9allocatorISB_EEE9SelectKeyESI_SK_E16reset_thresholdsEv
uMi:_UnicodeEncoding_GetBytesInternal_m1902824297
_lc:__ZN8Renderer19PostInitializeClassEv
kFi:_Array_FindIndex_TisRuntimeObject_m2504082708_gshared
Dll:_X509Chain_FindCertificateRoot_m1937726457
xUg:_InternalEnumerator_1__ctor_m217498388_AdjustorThunk
Sym:__ZN6il2cpp6icalls8mscorlib6System8Delegate23CreateDelegate_internalEP20Il2CppReflectionTypeP12Il2CppObjectP22Il2CppReflectionMethodb
d5g:_Enumerator_System_Collections_IEnumerator_get_Current_m921113401_AdjustorThunk
Ycg:_DictionaryEntry_get_Value_m618120527_AdjustorThunk
FTb:__ZN18DelayedCallManager18CancelCallDelayed2E4PPtrI6ObjectEPF15CallObjectStatePS1_PvES7_
Qni:_Matrix4x4_GetHashCode_m4034747639
qWa:__ZN25ThreadsafeLinearAllocator10ReallocateEPvji
GDb:__Z18Transfer_BlittableI14SafeBinaryReadLb1E11QuaternionfEvRK29SerializationCommandArgumentsR31RuntimeSerializationCommandInfo
WSd:__ZNK5physx18PxArticulationLink8isKindOfEPKc
osa:__ZN18SpriteAtlasManagerD0Ev
$5i:_GenericEqualityComparer_1__ctor_m1058369027_gshared
Ije:__ZN5physx13NpVolumeCache13onOriginShiftERKNS_6PxVec3E
Vvj:__Z57RuntimeInvoker_Boolean_t97287965_KeyValuePair_2_t71524366PFvvEPK10MethodInfoPvPS4_
Imb:__ZN10Matrix4x4f8TransferI14SafeBinaryReadEEvRT_
Dn:FUNCTION_TABLE_vifiiiiiiiiiiiiiiiiii
tAg:_CryptographicUnexpectedOperationException__ctor_m2381988196
Dam:__ZN14dense_hash_mapI10KeyWrapperIPK22Il2CppGenericParameterEPK24MonoGenericParameterInfoN6il2cpp5utils11PointerHashIS2_EENS4_14EqualsComparerINSt3__28equal_toIS3_EEEENSD_9allocatorINSD_4pairIKS4_S7_EEEEE15set_deleted_keyERSJ_
eN:__ZN14AvatarPlayback8StopTimeEv
vVg:_InternalEnumerator_1_System_Collections_IEnumerator_get_Current_m4213507601_gshared
Tma:__Z6AppendRKN4core12basic_stringIcNS_20StringStorageDefaultIcEEEEPKc
NBj:__Z74RuntimeInvoker_DictionaryEntry_t3123975638_RuntimeObject_SByte_t1669577662PFvvEPK10MethodInfoPvPS4_
Txb:__ZL14OnWorldStoppedv
PDi:_Array_InternalArray__IEnumerable_GetEnumerator_TisCustomAttributeNamedArgument_t287865710_m523021714_gshared
MJk:__ZN21InterfaceFuncInvoker1I19Vector4_t3319028937iE6InvokeEjP11Il2CppClassP12Il2CppObjecti
qNb:__Z18Transfer_BlittableI18StreamedBinaryReadILb1EELb0E8Vector3fEvRK29SerializationCommandArgumentsR31RuntimeSerializationCommandInfo
_dg:_HashKeys_get_SyncRoot_m3757723936
oAl:_GUIUtility_RemoveCapture_m1294193818
QFa:__ZN7ApiGLES18ClearBufferSubDataEjN2gl12BufferTargetEll
dQ:__ZN8Animator7SetBoolEib
fzc:__Z37Camera_Get_Custom_PropAllCamerasCountv
dlb:__ZN14Texture2DArray8TransferI18StreamedBinaryReadILb0EEEEvRT_
s7k:_List_1_CopyTo_m2746988508_gshared
qWd:__ZN5physx15NpActorTemplateINS_18PxArticulationLinkEED2Ev
D7b:__Z18ApplyOcclusionMaskR19ProbeOcclusionCacheRK17LightProbeContextRK10RenderNodeb
xDa:__ZN13GfxDeviceGLES13AfterDrawCallEv
scf:_Split_Cubic
vb:invoke_fiiii
rph:_InputField_OnSubmit_m3583210804
u8g:_ShimEnumerator_get_Value_m1878724567_gshared
T9j:__ZL72GUISkin_t1244372282_CustomAttributesCacheGenerator_m_horizontalScrollbarP21CustomAttributesCache
IJm:dynCall_viiiiiiffii
Orl:_Uri_CheckHostName_m2213216182
CPm:_emscripten_glBindRenderbuffer__wrapper
_vk:_Mesh_SetUvsImpl_TisVector2_t2156229523_m3009194955_gshared
eGg:_HMAC_set_Key_m3535779141
IXd:__ZN5physx2Sc16ArticulationCore26setMaxProjectionIterationsEj
lzd:__ZN26IntersectAnyVsMeshCallbackILi1ELb0EED2Ev
k_g:_InternalEnumerator_1_System_Collections_IEnumerator_Reset_m729791527_AdjustorThunk
qag:_ArrayListWrapper_Contains_m2641184447
ecf:_ft_black_render
mhj:__Z177RuntimeInvoker_Int32_t2950945753_RuntimeObject_Int32_t2950945753_Int32_t2950945753_RuntimeObject_Int32_t2950945753_EncoderFallbackBufferU26_t2343550713_CharU5BU5DU26_t3299466565PFvvEPK10MethodInfoPvPS4_
fLm:dynCall_viiifi
yOa:__ZN18GfxFramebufferGLES20ActiveContextChangedEPP17RenderSurfaceBaseS2_
A9f:_ArrayList_get_IsFixedSize_m24366329
tcj:__Z78RuntimeInvoker_Int32_t2950945753_RuntimeObject_RuntimeObject_Int32_t2950945753PFvvEPK10MethodInfoPvPS4_
pOa:__Z19PluginsRenderMarkeri
v0g:_InternalEnumerator_1__ctor_m2307827786_AdjustorThunk
GP:__ZN10HumanTrait18InitializeBoneNameEv
uDg:_RijndaelManaged_GenerateKey_m1736287430
yua:__ZNSt3__26vectorIN9ShaderLab20SerializedSubProgram15StructParameterENS_9allocatorIS3_EEE6assignINS_11__wrap_iterIPS3_EEEENS_9enable_ifIXaasr21__is_forward_iteratorIT_EE5valuesr16is_constructibleIS3_NS_15iterator_traitsISC_E9referenceEEE5valueEvE4typeESC_SC_
Jkb:__ZN14Texture2DArray21AwakeFromLoadThreadedEv
BRb:__Z29Transfer_Blittable_ArrayFieldI18StreamedBinaryReadILb0EEyEvRT_R9ArrayInfoRK23StaticTransferFieldInfo
pEd:__ZNK5physx3Ext5JointINS_15PxDistanceJointENS_30PxDistanceJointGeneratedValuesEE18getConstraintFlagsEv
Bwi:_Touch_get_position_m3109777936_AdjustorThunk
Wlm:__ZNSt3__214__split_bufferIN6il2cpp2vm5Image20EmbeddedResourceDataERNS_9allocatorIS4_EEEC2EjjS7_
J3d:__ZNK5physx7NpCloth25getNbSelfCollisionIndicesEv
CCh:_Kernel_multiByteDivide_m4249920547
iDf:_CanvasScaler_set_screenMatchMode_m2975492035
BS:__ZN12AudioManager17RemoveAudioSourceEP11AudioSource
MNh:_X509Certificate2Collection_Add_m3151757943
MGj:__ZL83RuntimeArray_CustomAttributesCacheGenerator_RuntimeArray____LongLength_PropertyInfoP21CustomAttributesCache
F2g:_Comparer_1__cctor_m951016718_gshared
jcg:_CaseInsensitiveHashCodeProvider_get_DefaultInvariant_m4264275163
YLe:__ZNK5physx2Gu10ConvexMesh17getReferenceCountEv
wVj:__ZL67IndexOutOfRangeException_t1578797820_CustomAttributesCacheGeneratorP21CustomAttributesCache
Ehj:__Z195RuntimeInvoker_Int32_t2950945753_RuntimeObject_Int32_t2950945753_Int32_t2950945753_Int32_t2950945753_RuntimeObject_DecoderFallbackBufferU26_t3866396827_ByteU5BU5DU26_t4057885439_SByte_t1669577662PFvvEPK10MethodInfoPvPS4_
Zje:__ZN5physx2Sc5Scene22setNbContactDataBlocksEj
l0:__ZN5physx14PxLightCpuTask12addReferenceEv
c6a:__ZNK15InstancingProps35FillInstanceBufferDispatchConstantsIN10Instancing14RenderLoopArgsEEEvPPvjjRK19ShaderPropertySheetRKT_
Jwj:__Z86RuntimeInvoker_Int32_t2950945753_Color32_t2600501292_Color32_t2600501292_RuntimeObjectPFvvEPK10MethodInfoPvPS4_
Hhb:__ZN21EnlightenSceneMapping8TransferI19StreamedBinaryWriteILb0EEEEvRT_
Hnm:__ZN6il2cpp2gc16GarbageCollector19InitializeFinalizerEv
fJ:__ZN7mecanim8skeleton18CreateSkeletonMaskEjPKNS0_19SkeletonMaskElementERNS_6memory9AllocatorE
DRk:_ReadOnlyCollection_1_System_Collections_Generic_ICollectionU3CTU3E_get_IsReadOnly_m2508509261_gshared
xIc:__ZN10GUIManager10DoGUIEventER10InputEventb
yJb:__Z35Transfer_Blittable_FixedBufferFieldI24GenerateTypeTreeTransferxEvRK29SerializationCommandArgumentsR31RuntimeSerializationCommandInfo
m6e:_otv_LangSys_validate
pti:_RectOffset_get_right_m2294081512
irk:_Array_InternalArray__set_Item_TisLink_t544317964_m1234244240_gshared
Xaf:_UNITY_TT_Init_Glyph_Loading
D2b:__Z20CalculateSqrDistanceRK8Vector3fRK4AABB
LGf:_OptionData_get_text_m2997376818
d6g:_Enumerator__ctor_m324536319_gshared
$6g:_KeyCollection_get_Count_m1441964482_gshared
D_e:__ZN14PhysicsManager15ProcessContactsEv
kmh:_SerializationInfo_GetBoolean_m1756153320
Pwd:__ZN21BoxTraceSegmentReport7onEventEjPj
DSd:__ZN5physx2Sc21ArticulationJointCore13setSwingLimitEff
_W:__Z32AudioMixerDuckingProcessCallbackP21UnityAudioEffectStatePfS1_jii
Asd:__ZL20HullProjectionCB_BoxRKN5physx2Gu13PolygonalDataERKNS_6PxVec3ERKNS_2Cm8Matrix34ERKNS7_23FastVertex2ShapeScalingERfSE_
toi:_Mesh_get_uv2_m3615020997
NLk:_ReadOnlyCollection_1_Contains_m2979956790_gshared
clc:__ZN26CustomRenderTextureManagerD2Ev
W2i:_EqualityComparer_1_System_Collections_IEqualityComparer_Equals_m4172006498_gshared
xye:__ZN5physx14PxsAABBManager21selfCollideAggregatesEPKNS_19AggregateSortedDataE
tT:__ZN12AudioManager8TransferI24GenerateTypeTreeTransferEEvRT_
qsk:_Array_qsort_TisOrderBlock_t1585977831_m3322202512_gshared
yni:_Mathf_Round_m4098141538
Q3c:__ZN16CustomDataModuleD0Ev
UIa:__Z25GetBytesFromTextureFormat13TextureFormat
zlb:__ZN9Texture3D19UnloadFromGfxDeviceEb
ihm:__ZN6il2cpp6icalls8mscorlib6System9Threading6Thread20Thread_free_internalEP12Il2CppThreadi
FGe:__ZN5physx12_GLOBAL__N_112innerProductERKNS_14Px1DConstraintERS1_RKNS0_9MassPropsE
HHb:__Z18Transfer_BlittableI17RemapPPtrTransferLb0EsEvRK29SerializationCommandArgumentsR31RuntimeSerializationCommandInfo
mBk:_Collection_1_get_Item_m4103760396_gshared
FIh:__KeysEnumerator_get_Current_m2996478063
iMf:_AmbiguousMatchException__ctor_m2012725345
xJm:dynCall_iifff
JDd:__ZN19ControllerHitReportD2Ev
Fba:__Z32scripting_class_get_assemblyname17ScriptingClassPtr
Cpf:__ZN11UnityEngine15PlatformWrapper15GetVRDeviceNameEv
Xlk:__ZL109LayoutUtility_t2745813735_CustomAttributesCacheGenerator_LayoutUtility_U3CGetFlexibleWidthU3Em__3_m1091238571P21CustomAttributesCache
msj:__Z99RuntimeInvoker_Boolean_t97287965_Int32_t2950945753_PointerEventDataU26_t867828220_SByte_t1669577662PFvvEPK10MethodInfoPvPS4_
AHc:__Z50Register_UnityEngine_Rigidbody2D_AddForce_Injectedv
Lue:__ZN5physx26PxcFrictionPatchStreamPairC2ERNS_17PxcNpMemBlockPoolE
bUg:_InternalEnumerator_1_get_Current_m2128158355_AdjustorThunk
sUa:__ZN9GfxDevice21RegisterNativeTextureE9TextureIDi16TextureDimension
BIf:_GraphicRegistry__ctor_m1851575309
vyj:__Z52RuntimeInvoker_Void_t1185182177_Keyframe_t4206410242PFvvEPK10MethodInfoPvPS4_
tWj:__ZL53TypeFilter_t2356120900_CustomAttributesCacheGeneratorP21CustomAttributesCache
gAm:__ZN6il2cpp6icalls8mscorlib6System10Reflection4Emit11TypeBuilder20create_generic_classEP27Il2CppReflectionTypeBuilder
CTh:_SHA1Internal_FillBuff_m3615718415
SCi:_PlayableHandle_IsPlayableOfType_TisAnimationLayerMixerPlayable_t3631223897_m201603007_gshared
vSj:__ZL50Monitor_t2197244473_CustomAttributesCacheGeneratorP21CustomAttributesCache
M1l:__ZNSt3__26vectorIPK10MethodInfoNS_9allocatorIS3_EEE26__swap_out_circular_bufferERNS_14__split_bufferIS3_RS5_EE
kFg:_PrimalityTest_EndInvoke_m1035389364
P$:__Z60Register_UnityEngine_AudioListener_GetNumExtensionPropertiesv
Qj:_emscripten_glUniformMatrix4fv
gpk:__ZL128U3CResetCoroutineU3Ec__Iterator0_t3232105836_CustomAttributesCacheGenerator_U3CResetCoroutineU3Ec__Iterator0_Dispose_m2623673044P21CustomAttributesCache
zyb:__ZN12ScriptMapperD2Ev
Fah:_Enumerator_Dispose_m3040896940_AdjustorThunk
oUe:__ZN9Rigidbody13AwakeFromLoadE17AwakeFromLoadMode
woi:_Mesh_get_colors32_m1253190811
w_c:__ZN9SubModule8TransferI14SafeBinaryReadEEvRT_
hwm:_GC_stopped_mark
Upm:__ZN6il2cpp2os6Thread3RunEPFvPvES2_
Xei:_AnimationCurve_Finalize_m2397002729
jUc:__ZN14ParticleSystem15AddCustomLightsERK27LocalLightCullingParametersRK11CullResultsR12ActiveLightsRi9LightType
iYd:__ZNK5physx14NpSceneQueries10multiQueryINS_12PxOverlapHitEEEbRKNS_15MultiQueryInputERNS_13PxHitCallbackIT_EENS_7PxFlagsINS_9PxHitFlag4EnumEtEEPKNS_12PxQueryCacheERKNS_17PxQueryFilterDataEPNS_21PxQueryFilterCallbackEPNS_20BatchQueryFilterDataE
uDj:__Z50RuntimeInvoker_RuntimeObject_ColorTween_t809614380PFvvEPK10MethodInfoPvPS4_
b0g:_InternalEnumerator_1__ctor_m945079686_AdjustorThunk
Vlh:_SerializationCallbacks__cctor_m1674315180
Fal:_MainMenuController__ctor_m3120332928
Cva:__Z32TransferEnumWithNameForceIntSizeI14SafeBinaryRead7FogModeEvRT_RT0_PKc17TransferMetaFlags
REc:__Z52Register_UnityEngine_RenderTexture_Internal_GetWidthv
bxm:_GC_check_leaked
yxa:__ZN9ShaderLab20SerializedSubProgram16TextureParameter8TransferI19StreamedBinaryWriteILb0EEEEvRT_
Qb:invoke_fiiiiiiiifiiiif
$Sc:__ZN14ParticleSystem23RendererBecameInvisibleEv
VVa:__ZNK7Hash12812PackToUInt32Ev
rbg:_SynchronizedArrayListWrapper_IndexOf_m3642674350
sda:__ZNSt3__227__insertion_sort_incompleteIRNS_6__lessI14ObjectLoadDataS2_EEPS2_EEbT0_S6_T_
P4:__ZN11UnityEngine15CloudWebService16SessionContainer8AddEventEPNS0_14CloudEventInfoE
hTa:__Z4TrimRKN4core12basic_stringIcNS_20StringStorageDefaultIcEEEES5_
wbl:_VirtualInput_AxisExists_m2330478845
COk:_ReadOnlyCollection_1_CopyTo_m209634623_gshared
Gjd:__ZN13dynamic_arrayIN19CompositeCollider2D11SubColliderELj4EE12emplace_backEv
ovk:_Dictionary_2_Do_ICollectionCopyTo_TisKeyValuePair_2_t3842366416_m1399105608_gshared
xek:__ZL77ExecuteEvents_t3484638744_CustomAttributesCacheGenerator_U3CU3Ef__mgU24cache2P21CustomAttributesCache
YMh:_X509Certificate2_Import_m4026562329
r6g:_Enumerator_System_Collections_IEnumerator_get_Current_m2763095718_AdjustorThunk
UQm:_glGetStringi__wrapper
Djb:__ZN10VertexData8TransferI14SafeBinaryReadEEvRT_
KRd:__ZN5physx19NpArticulationJointD0Ev
IJa:__ZN11TextureData17GetImageReferenceEii
Xxm:_GC_malloc_atomic
DYe:__ZN5physx9NpPhysics14createInstanceEjRNS_12PxFoundationERKNS_17PxTolerancesScaleEbPNS_20PxProfileZoneManagerE
H0e:__Z59Register_UnityEngine_Physics_INTERNAL_CALL_Internal_Raycastv
_6i:_HashSet_1_GetEnumerator_m3346268098_gshared
FAm:__ZN6il2cpp5utils6Memory13AlignedMallocEjj
zie:__ZNK5physx7NpScene17getFilterCallbackEv
Xqi:_PropertyName_GetHashCode_m3570549176_AdjustorThunk
C4j:__ZL55PropertyName_t3749835189_CustomAttributesCacheGeneratorP21CustomAttributesCache
xph:_Selectable_get_animator_m2899312855
I8:__ZL20SortItemByInstanceIDRKN18AwakeFromLoadQueue4ItemES2_
wyi:_Vector2_op_Multiply_m2347887432
jYe:__ZN5physx6shdfnd5ArrayIPvNS0_15InlineAllocatorILj256ENS0_19ReflectionAllocatorINS_24NpPtrTableStorageManager8PtrBlockILi16EEEEEEEE15growAndPushBackERKS2_
RHf:_FontData_get_maxSize_m195374730
XIh:_TypeConverterAttribute__ctor_m1774069684
qJ:__ZNK34AnimationStateMachineMixerPlayable26GetInterruptedPosePlayableEv
tsf:__ZN20UnityConnectSettings8TransferI24GenerateTypeTreeTransferEEvRT_
x$c:__ZN25IParticleSystemProperties8PropertyIfNS_11ClampRadiusEE8TransferI14SafeBinaryReadEEvRT_PKc
rL:__ZN34BlobWriteTransferSTLStyleArrayImplI22OffsetPtrArrayTransferIbEEclERS1_17TransferMetaFlagsR9BlobWrite
F0f:_Byte_ToString_m4063101981
Bwg:_MonoType_GetConstructors_m2574682189
Rdk:__ZL95CustomEventData_t317522481_CustomAttributesCacheGenerator_CustomEventData_AddUInt16_m3928706382P21CustomAttributesCache
F$l:__ZN6il2cpp2vm13MetadataCache31GetParameterDefinitionFromIndexEi
Yui:_SceneManager_LoadSceneAsyncNameIndexInternal_m4031498323
E0d:__ZN5physx7NpShape13setRestOffsetEf
vsm:__ZNK15dense_hashtableINSt3__24pairIK10KeyWrapperIPK19Il2CppGenericMethodEP10MethodInfoEES6_N6il2cpp8metadata23Il2CppGenericMethodHashEN14dense_hash_mapIS6_S9_SD_NS6_14EqualsComparerINSC_26Il2CppGenericMethodCompareEEENS0_9allocatorISA_EEE9SelectKeyESH_SJ_E10test_emptyERK30dense_hashtable_const_iteratorISA_S6_SD_SL_SH_SJ_E
MNj:__ZL59SinkProviderData_t4151372974_CustomAttributesCacheGeneratorP21CustomAttributesCache
HJh:_ServicePointManager_FindServicePoint_m4119451290
e1g:__ZN21InterfaceFuncInvoker1Ii22OrderBlock_t1585977831E6InvokeEjP11Il2CppClassP12Il2CppObjectS0_
C5l:__ZN15dense_hashtableINSt3__24pairIK10KeyWrapperINS1_IPK14Il2CppAssemblyP11Il2CppClassEEEjEES9_17ReflectionMapHashIS8_EN14dense_hash_mapIS9_jSD_NS9_14EqualsComparerINS0_8equal_toIS8_EEEENS0_9allocatorISB_EEE9SelectKeyESI_SK_E12expand_arrayEjN21dense_hash_map_traits17integral_constantIbLb0EEE
xoa:__ZL31InitializeRendererUpdateManagerPv
MOf:_ParameterInfo__ctor_m2779026345
rnh:_InputField_set_onValueChange_m1251390545
$Hf:_FontData_get_verticalOverflow_m4132840071
e1d:__ZN5physxL11getTriangleERKNS_2Gu12TriangleMeshEjPNS_6PxVec3EPKS4_PKvRKNS_2Cm8Matrix34Eb
u$f:_DeriveBytes_set_Password_m3005258189
Vxg:_NumberFormatter_get_IsZeroInteger_m2263284741
S_:__ZN13AudioListener12CleanupClassEv
$Te:__ZN14SafeBinaryRead21TransferSTLStyleArrayINSt3__26vectorIjNS1_9allocatorIjEEEEEEvRT_17TransferMetaFlags
Soa:__Z13GetIEnlightenv
k2d:__ZNK5physx7NpCloth16lockParticleDataEv
tvi:_HitInfo_t3229609740_marshal_pinvoke
Zhl:_X509Certificate_PEM_m2020851166
Fzg:_SByte_Equals_m865896384_AdjustorThunk
lDh:_BigInteger_op_GreaterThanOrEqual_m700865613
HJi:_Array_InternalArray__Insert_TisDateTime_t3738529785_m2308632330_gshared
lsb:__ZN11TimeManager8TransferI19StreamedBinaryWriteILb0EEEEvRT_
zMg:_TlsServerCertificateRequest_ProcessAsTls1_m3214041063
I6e:_compare_uni_maps
rpj:__Z72RuntimeInvoker_Boolean_t97287965_Vector2_t2156229523_Vector2_t2156229523PFvvEPK10MethodInfoPvPS4_
NOl:_ContactPoint_get_point_m1734743878_AdjustorThunk
nqf:__ZN11UnityEngine15PlatformWrapper27GetGraphicsCapsSupportFlagsEv
Xhf:__ZNSt3__218__insertion_sort_3IRPFbPN2UI6CanvasES3_EPS3_EEvT0_S8_T_
pvk:_Dictionary_2_Do_ICollectionCopyTo_TisRuntimeObject_m3695543300_gshared
S0e:__Z63Register_UnityEngine_Rigidbody_INTERNAL_CALL_AddForceAtPositionv
Kne:__ZN5physx13NpRigidStatic9visualizeERNS_2Cm12RenderOutputEPNS_7NpSceneE
$Mb:__ZN12NativeBufferI16Converter_StringE15SetupForWritingER9ArrayInfo
rDh:_SequentialSearchPrimeGeneratorBase_GenerateSearchBase_m3595783982
Hra:__ZN13RuntimeStaticI18AssetBundleManagerLb1EE16StaticInitializeEPv
wSm:___cxa_end_catch__wrapper
mmj:__Z121RuntimeInvoker_Int32_t2950945753_RuntimeObject_Int32U26_t1369213839_Int32_t2950945753_Int32_t2950945753_Int32_t2950945753PFvvEPK10MethodInfoPvPS4_
ik:_emscripten_glVertexAttrib3fv
L5c:__ZL24GenerateParticleGeometryIL24ParticleSystemRenderMode0ELb1ELb0EL25ParticleSystemRenderSpace4EEvPfRK22ParticleSystemTempDataRK26ParticleSystemRendererDataRK21ParticleSystemModulesRK23ParticleSystemParticlesRK31ParticleSystemParticlesTempData
Hae:__ZNK5physx22NpParticleBaseTemplateINS_16PxParticleSystemENS_16NpParticleSystemEE13getRestOffsetEv
eqe:__ZN5physx6shdfnd8PoolBaseINS_2Sc35ParticleElementRbElementInteractionENS0_19ReflectionAllocatorIS3_EEE15disposeElementsEv
xTh:_SHA1CryptoServiceProvider_Dispose_m1653611664
f9f:_Char_ToString_m278452217
uIg:_CipherSuite_get_DecryptionCipher_m2839827488
u9i:__Z32RuntimeInvoker_Boolean_t97287965PFvvEPK10MethodInfoPvPS4_
o4b:__ZNK4PPtrI5LightEcvPS0_Ev
XVh:_String_Format_m1881875187
UEg:_BigInteger_op_RightShift_m460065452
f6j:__ZL86Logger_t274032455_CustomAttributesCacheGenerator_Logger_LogFormat_m3300686007____args3P21CustomAttributesCache
oUb:__ZN13MonoBehaviour22DoScriptRebuildWarningEv
hzc:__Z38Camera_CUSTOM_INTERNAL_CALL_RaycastTryP12Il2CppObjectRK3Rayfi
Woc:__ZNK10GameObject22GetComponentPtrAtIndexEi
Enc:__ZZL23RegisterLightPropertiesR22GenericPropertyBindingEN22Wrapper_LightSpotAngle13GetFloatValueEPv
Uyf:_ExecuteEvents_get_cancelHandler_m1220395193
Tbk:__ZL81Physics_t2310948930_CustomAttributesCacheGenerator_Physics_OverlapSphere_m1830905P21CustomAttributesCache
$_k:_List_1_Insert_m3987412300_gshared
Ygf:__Z38TextGenerator_Get_Custom_PropLineCountP12Il2CppObject
Uwd:__ZN5physx2Gu26EPASupportMapPairLocalImplINS0_9TriangleVENS0_4BoxVEED0Ev
Fhl:_InternalAsyncResult_SetComplete_m963842420
PKi:_Encoding_GetEncoding_m2801244948
zJc:__ZN11IMGUIModule25GetGUIStyleScriptingClassEv
k9e:_tt_get_interface
pPg:_SslStreamBase_EndRead_m495357226
Vgm:__ZN6il2cpp5utils9PathUtils7CombineIcEENSt3__212basic_stringIT_NS3_11char_traitsIS5_EENS3_9allocatorIS5_EEEERKSA_SC_
Q0e:__Z46Register_UnityEngine_Rigidbody_set_isKinematicv
Hye:__ZN5physx14PxsAABBManager16processBPResultsERKNS_20PxsComputeAABBParamsE
Rwh:_ScrollRect_CalculateLayoutInputHorizontal_m1852828502
hPc:__ZN9JSONWrite8TransferI13dynamic_arrayIiLj4EEEEvRT_PKc17TransferMetaFlags
Owe:__ZN5physx23PxsBroadPhaseContextSapD2Ev
aGk:_Collection_1_System_Collections_IList_get_IsFixedSize_m214626114_gshared
Xjj:__Z64RuntimeInvoker_RuntimeObject_SByte_t1669577662_SByte_t1669577662PFvvEPK10MethodInfoPvPS4_
xS:__ZL16FMOD_ErrorString11FMOD_RESULT_363
eqc:__ZN13PlayableGraph21InvalidateMultithreadEv
aEd:__ZNK5physx15PxDistanceJoint19getConcreteTypeNameEv
aSj:__ZL86UTF7Encoding_t2644108479_CustomAttributesCacheGenerator_UTF7Encoding_Equals_m227704363P21CustomAttributesCache
z5i:_GenericComparer_1_Compare_m459680062_gshared
pQf:_EnumBuilder_GetConstructorImpl_m3068576149
qaa:__Z18ConvertUTF16toUTF8PPKtS0_PPhS2_15ConversionFlags
Qrm:__ZN6il2cpp2os20PathErrnoToErrorCodeERKNSt3__212basic_stringIcNS1_11char_traitsIcEENS1_9allocatorIcEEEEi
jik:__ZL68InputField_t3762917431_CustomAttributesCacheGenerator_m_KeyboardTypeP21CustomAttributesCache
GUh:_SymmetricAlgorithm_System_IDisposable_Dispose_m3402297829
dvc:__Z24GetActualTargetFrameRatev
oQl:__ZL16my_g_bit_nth_msfj
OVj:__ZL65NonSerializedAttribute_t2945079482_CustomAttributesCacheGeneratorP21CustomAttributesCache
Hem:__ZN15dense_hashtableINSt3__24pairIK10KeyWrapperIP11Il2CppClassES4_EES5_N6il2cpp8metadata16SZArrayClassHashEN14dense_hash_mapIS5_S4_SA_NS5_14EqualsComparerINS9_19SZArrayClassCompareEEENS0_9allocatorIS7_EEE9SelectKeyESE_SG_E12expand_arrayEjN21dense_hash_map_traits17integral_constantIbLb0EEE
$0i:_DefaultComparer_GetHashCode_m3369508712_gshared
WO:__ZN9Animation12CleanupClassEv
lyk:_Enumerator_MoveNext_m3662315381_AdjustorThunk
hMg:_TlsClientFinished_ProcessAsTls1_m2429863130
c$f:_ActivatedClientTypeEntry_get_ApplicationUrl_m2894992111
P0b:__Z23SetupStereoFlareElementP11FlareVertexRK8Vector2fS3_S3_RK11ColorRGBA32RK10Matrix4x4fRK8Vector3fb
TPf:_DerivedType_GetCustomAttributes_m851300494
fVl:__ZN6il2cpp2vm5Class15GetInstanceSizeEPK11Il2CppClass
cWi:_ValueType__ctor_m2036258423
d3k:_List_1__ctor_m2718798376_gshared
fb:invoke_iiiifiiii
gPk:_ReadOnlyCollection_1_IndexOf_m3549361731_gshared
xnh:_InputField_EnforceContentType_m2436948794
t9c:__ZN11ShapeModule13DidDeleteMeshEv
K4d:__ZNK5physx2Sc9ClothCore16getRestPositionsEPNS_6PxVec4E
oGk:__ZN23InterfaceActionInvoker2Ii20UICharInfo_t75501106E6InvokeEjP11Il2CppClassP12Il2CppObjectiS0_
vte:__ZN5physx20PxcSweepConvexConvexERKNS_11PxsCCDShapeES2_PKNS_12PxsRigidBodyES5_RKNS_11PxTransformES8_S8_S8_fRNS_6PxVec3ESA_RNS_10PxcNpCacheERNS_18PxcNpThreadContextEf
e$h:_String_Join_m2050845953
R7d:__ZN5physx15PxsParticleDataD0Ev
rPa:__ZL19BlitFramebufferImplRN4gles23BlitFramebufferDrawQuadER9GfxDevice9TextureIDRK8Vector4f
jHb:__Z18Transfer_BlittableI17RemapPPtrTransferLb0EhEvRK29SerializationCommandArgumentsR31RuntimeSerializationCommandInfo
oOe:__ZN5physx6shdfnd5ArrayIPvNS0_19ReflectionAllocatorIN17PxcPoolMallocData9PoolData8EEEE15growAndPushBackERKS2_
w6l:__ZN15dense_hashtableINSt3__24pairIK10KeyWrapperIPK10Il2CppTypeEjEES6_N6il2cpp8metadata14Il2CppTypeHashEN14dense_hash_mapIS6_jSB_NS6_14EqualsComparerINSA_26Il2CppTypeEqualityComparerEEENS0_9allocatorIS8_EEE9SelectKeyESF_SH_E4findERS7_
uJm:dynCall_viiiiiiiiiiiiii
Baf:_UNITY_FT_List_Add
Clc:__ZN14Texture2DArray11InitTextureEiii13TextureFormatb
Yil:_X509Extension__ctor_m1474351312
PRj:__ZL104Encoding_t1523322056_CustomAttributesCacheGenerator_Encoding_t1523322056____DecoderFallback_PropertyInfoP21CustomAttributesCache
$tl:_InvokableCall_1_Invoke_m1524307439_gshared
cSe:__ZN5physx15PxGeometryQuery14getWorldBoundsERKNS_10PxGeometryERKNS_11PxTransformEf
geb:__ZN12CubemapArray21AwakeFromLoadThreadedEv
Z5d:__ZN5physx2Sc9ClothCore18setSolverFrequencyEf
Rog:_Directory_CreateDirectoriesInternal_m3735342319
vgk:__ZL108U3CStartU3Ec__Iterator0_t1249263001_CustomAttributesCacheGenerator_U3CStartU3Ec__Iterator0__ctor_m1316384627P21CustomAttributesCache
jZk:_List_1_RemoveAll_m517055598_gshared
zZe:__ZN8ColliderC2E10MemLabelId18ObjectCreationMode
sbm:__ZN15dense_hashtableINSt3__24pairIK10KeyWrapperINS1_IPK11Il2CppImageP11Il2CppClassEEEjEES9_17ReflectionMapHashIS8_EN14dense_hash_mapIS9_jSD_NS9_14EqualsComparerINS0_8equal_toIS8_EEEENS0_9allocatorISB_EEE9SelectKeyESI_SK_E14squash_deletedEv
EUh:_SHAConstants__cctor_m1699027474
Wrb:__ZN9InputAxis8TransferI18StreamedBinaryReadILb0EEEEvRT_
KMe:__ZN5physx2Gu11HeightField8requiresERNS_23PxProcessPxBaseCallbackE
pZk:_List_1_TrimExcess_m4121641494_gshared
OTj:__ZL78Convert_t2465617642_CustomAttributesCacheGenerator_Convert_ToInt16_m1733792763P21CustomAttributesCache
fsd:__ZN5physx2Gu16buildPartialHullERKNS0_13PolygonalDataEPNS0_12SupportLocalERNS0_14SeparatingAxesERKNS_6shdfnd3aos5Vec3VESC_
rvb:__Z14resize_trimmedINSt3__26vectorIN4core12basic_stringIcNS2_20StringStorageDefaultIcEEEE13stl_allocatorIS6_L18MemLabelIdentifier13ELi16EEEEEvRT_j
oEb:__Z18Transfer_BlittableI14SafeBinaryReadLb0EaEvRK29SerializationCommandArgumentsR31RuntimeSerializationCommandInfo
j9f:_CharEnumerator_System_Collections_IEnumerator_get_Current_m1328529384
NXc:__ZN11NoiseModule17CalculateNoiseJobILi3ELb1ELb1EEEvP12NoiseJobData
CMm:_emscripten_glFrustum__wrapper
YQd:__ZNK5physx2Sc16ArticulationCore17releaseDriveCacheERNS_9PxcFsDataE
Wth:_GetRayIntersectionAllCallback_Invoke_m1316694896
D9i:__Z98RuntimeInvoker_Boolean_t97287965_RuntimeObject_Int32_t2950945753_RuntimeObject_Int64U26_t200113976PFvvEPK10MethodInfoPvPS4_
fbf:_UNITY_FT_List_Iterate
i5a:__ZN17GlobalGameManager8TransferI24GenerateTypeTreeTransferEEvRT_
iFd:__ZN5physx11NpAggregate7releaseEv
E8f:_Char_System_IConvertible_ToUInt64_m3536560782
l2i:_EqualityComparer_1__cctor_m3452395357_gshared
ePh:_X509ChainStatus_get_Status_m2572005749_AdjustorThunk
fRe:__ZN5physx6shdfnd7PAUtilsD2Ev
QC:__ZN19StreamedBinaryWriteILb0EE8TransferIKN4math7_float3EEEvRT_PKc17TransferMetaFlags
u$b:__Z20SyncFenceCullResultsR11CullResults
VRa:__ZN15TextureTFMethod20IsBoneCountSupportedEi
Mqi:_PlayableOutputHandle_CompareVersion_m841260813
l9h:_Double_ToString_m3828879243_AdjustorThunk
JIb:__Z22TransferField_NonArrayI17RemapPPtrTransfer27Converter_SimpleNativeClassI8GUIStyleEEvRK23StaticTransferFieldInfoR31RuntimeSerializationCommandInfoRT0_
y0d:__ZN5physx7NpShape12setMaterialsEPKPNS_10PxMaterialEt
tgc:__ZNK17AnimationCurveTplIfE20EvaluateWithoutCacheEfRf
jpj:__Z67RuntimeInvoker_Boolean_t97287965_Rect_t2360479859_SByte_t1669577662PFvvEPK10MethodInfoPvPS4_
M8a:__ZN19ShaderPropertySheet10SetTextureERK23FastTexturePropertyNameP7Texture
KNf:_CustomAttributeData__ctor_m2966233049
KDf:_CanvasUpdateRegistry_PerformUpdate_m1793997159
xLg:_Context_set_ClientWriteIV_m3405909624
Hsc:__ZN4Mesh10SetNormalsEPK8Vector3fj
Wod:__Z66Register_UnityEngine_Physics2D_INTERNAL_CALL_GetRayIntersectionAllv
kBl:_AesManaged_CreateDecryptor_m692040246
QUj:__ZL79Convert_t2465617642_CustomAttributesCacheGenerator_Convert_ToUInt64_m2343585091P21CustomAttributesCache
eLl:_TextGenerationSettings_t1351628751_marshal_pinvoke_back
wA:__ZN17AnimationCurveTplIfE8TransferI14SafeBinaryReadEEvRT_
b4k:_List_1__ctor_m808270210_gshared
OYi:_Dictionary_2_get_Count_m2449135560_gshared
ork:_Array_InternalArray__set_Item_TisInt16_t2552820387_m2544074754_gshared
T2f:_ArithmeticException__ctor_m3551809662
qpg:_MonoIO_ExistsDirectory_m2182482658
w8c:__ZN22ParticleSystemRenderer15InitializeClassEv
h9k:__ZN21InterfaceFuncInvoker0I19Vector4_t3319028937E6InvokeEjP11Il2CppClassP12Il2CppObject
gAj:__Z72RuntimeInvoker_CustomAttributeNamedArgument_t287865710_Int32_t2950945753PFvvEPK10MethodInfoPvPS4_
MBd:__ZN5physx2Gu9RadixSortD2Ev
_dc:__Z29StdTemplateConversionFunctionIybEbPvR14SafeBinaryRead
cib:__ZNSt3__26vectorIN15QualitySettings14QualitySettingENS_9allocatorIS2_EEE6assignIPS2_EENS_9enable_ifIXaasr21__is_forward_iteratorIT_EE5valuesr16is_constructibleIS2_NS_15iterator_traitsIS9_E9referenceEEE5valueEvE4typeES9_S9_
jea:__ZNK5Unity9Component10GetEnabledEv
Jzd:__Z15raycast_capsuleRKN5physx10PxGeometryERKNS_11PxTransformERKNS_6PxVec3ES8_fNS_7PxFlagsINS_9PxHitFlag4EnumEtEEjPNS_12PxRaycastHitEbPFbRSD_PvESG_
Ivh:_ScrollRect_get_scrollSensitivity_m2832710591
I6d:__ZNK5physx15NpActorTemplateINS_15PxParticleFluidEE14getOwnerClientEv
v6k:_List_1_CopyTo_m1758106197_gshared
hZk:_List_1_CheckCollection_m1671972112_gshared
Rcm:_il2cpp_class_get_image
IJg:_CipherSuiteFactory_GetSsl3SupportedCiphers_m3757358569
GMi:_UnicodeEncoding_GetPreamble_m3002287178
Xca:__Z16AsyncReadRequestP16AsyncReadCommand
tUl:__ZNK15dense_hashtableINSt3__24pairIK10KeyWrapperIPK22Il2CppGenericParameterEP11Il2CppClassEES6_N6il2cpp5utils11PointerHashIS4_EEN14dense_hash_mapIS6_S9_SE_NS6_14EqualsComparerINS0_8equal_toIS5_EEEENS0_9allocatorISA_EEE9SelectKeyESJ_SL_E12test_deletedEj
yHe:__ZNK5physx34PxsSolverConstraintPostProcessTask7getNameEv
Ooj:__Z52RuntimeInvoker_Color_t2555686324_Color32_t2600501292PFvvEPK10MethodInfoPvPS4_
Xya:__ZN20GpuProgramParameters14AddVectorParamEPKcii15ShaderParamTypeiiiP16PropertyNamesSet
ptd:__ZN5physx2Gu23distancePointBoxSquaredERKNS_6PxVec3ES3_S3_RKNS_7PxMat33EPS1_
uYe:__ZN5physx9NpPhysics20MeshDeletionListener28onGuMeshFactoryBufferReleaseEPKNS_6PxBaseEtb
puf:__ZNK12HeaderHelper3GetERKN4core12basic_stringIcNS0_20StringStorageDefaultIcEEEE
Znf:__Z24GetUnityAnalyticsManagerv
f1g:_DefaultComparer__ctor_m704436039_gshared
Trb:__ZN9InputAxis8TransferI14SafeBinaryReadEEvRT_
b9:__ZNK21ExecutionOrderManager30GetCustomAwakeFromLoadQueueForEPKN5Unity4TypeE
Uhe:__ZNK5physx7NpScene9getActorsENS_7PxFlagsINS_15PxActorTypeFlag4EnumEtEEPPNS_7PxActorEjj
Itf:__Z27RegisterModule_UnityConnectv
Irg:_MemoryStream_Expand_m3554752073
i2h:_DateTimeFormatInfo_get_RoundtripPattern_m796050488
G9d:__ZN5physx15PxParticleFluidD0Ev
Kpe:__ZN5physx11NodeManagerD0Ev
ivi:_ScriptableObject_CreateInstance_m2611081756
bkh:_ObjectRecord_get_IsInstanceReady_m2304516395
v_g:_InternalEnumerator_1_System_Collections_IEnumerator_get_Current_m1635397542_gshared
nsg:_Path__cctor_m3273994011
MBl:_AnalyticsEventTracker__ctor_m3064238498
MFd:__ZNK5physx2Sc8BodyCore6getSimEv
tHm:__ZNSt11logic_errorD2Ev
U1h:_DateTimeUtils_CountRepeat_m3396693018
Uld:__ZNK17Physics2DSettings22GetTypeVirtualInternalEv
ROm:_glBindRenderbuffer__wrapper
bW:__ZN10ObjectPoolIN4FMOD12ChannelGroupENS0_13ChannelGroupIEE7SetSizeEi
Llk:__ZL103LayoutRebuilder_t541313304_CustomAttributesCacheGenerator_LayoutRebuilder_U3CRebuildU3Em__5_m1288787547P21CustomAttributesCache
XAl:_SymmetricTransform_FinalDecrypt_m764004682
Bqm:__ZN6il2cpp2os10ThreadImpl33UnregisterCurrentThreadForCleanupEv
e8k:_List_1_System_Collections_IList_get_Item_m1315368445_gshared
sfk:__ZL114PointerEventData_t3807901092_CustomAttributesCacheGenerator_PointerEventData_get_pointerCurrentRaycast_m2627585223P21CustomAttributesCache
Iol:_Parser_ParseGroupingConstruct_m263270497
jC:__ZN18StreamedBinaryReadILb0EE21TransferSTLStyleArrayI22OffsetPtrArrayTransferIN7mecanim9animation10ValueDeltaEEEEvRT_17TransferMetaFlags
Nhc:__ZN9Polygon2D7SetPathEiRK13dynamic_arrayI8Vector2fLj4EE
r6:__Z22ValidateTlsfAllocationPvjiS_
tUg:_InternalEnumerator_1_MoveNext_m3525157932_gshared
E$d:__ZN5physx2Cm12RefCountable14onRefCountZeroEv
rt:__ZN15SerializeTraitsINSt3__24pairI8StateKey10StateRangeEEE8TransferI14SafeBinaryReadEEvRS4_RT_
ybm:__ZN14dense_hash_mapI10KeyWrapperINSt3__24pairIPK9EventInfoP11Il2CppClassEEEj17ReflectionMapHashIS8_ENS9_14EqualsComparerINS1_8equal_toIS8_EEEENS1_9allocatorINS2_IKS9_jEEEEE15set_deleted_keyERSH_
gGf:_Dropdown_RefreshShownValue_m2806045241
U2d:__ZNK5physx7NpCloth25getMotionConstraintConfigEv
y$c:__Z32TransferEnumWithNameForceIntSizeI14SafeBinaryReadN11ShapeModule17MeshPlacementModeEEvRT_RT0_PKc17TransferMetaFlags
pac:__ZN25CameraStackRenderingState19SetupLastEyeCamerasERK11CameraStack
s$a:__Z12GUIDToStringRK9UnityGUID
VNg:_RSASslSignatureDeformatter_SetKey_m2204705853
jpm:__ZN6il2cpp6icalls8mscorlib6System4Enum12get_hashcodeEP12Il2CppObject
_R:__ZN11SoundHandleC2ERKS_
HD:__ZN17AnimationPlayableC2E18DirectorPlayerType
iYc:__Z9UpdateTplIL27ParticleSystemCurveEvalMode2EEvRK11MinMaxCurveR23ParticleSystemParticlesPfRKN4math7_float4Ejj
f_l:__ZNK6il2cpp5utils11collections13ArrayValueMapIPK10Il2CppType17Il2CppInteropData26InteropDataToTypeConverterNS_8metadata14Il2CppTypeLessENS8_26Il2CppTypeEqualityComparerEE10find_firstERKS5_
Rs:__ZN18AnimatorController23VirtualRedirectTransferER18StreamedBinaryReadILb0EE
ehe:__ZThn8_N5physx2Sc24ElementInteractionMarker7destroyEv
z9k:_List_1_Reverse_m1445355384_gshared
lqg:_FileStream_get_CanSeek_m331583577
sec:__Z29StdTemplateConversionFunctionItxEbPvR14SafeBinaryRead
vjh:_WellKnownServiceTypeEntry_get_ObjectType_m3211195371
TEl:_PCMReaderCallback_EndInvoke_m3916876196
qHm:__ZNSt9bad_allocD0Ev
xUf:_TypeBuilder_get_ContainsGenericParameters_m1769080325
wBg:_DSAParameters_t1885824122_marshal_pinvoke_back
zBd:__ZN5physx3Cct26CharacterControllerManager24setOverlapRecoveryModuleEb
WJ:__ZN8Animator22OnGraphTopologyChangedEP8Playablei
gDh:_Kernel_MultiplyByDword_m1266935086
mtm:__ZN4utf89unchecked8utf8to16INSt3__220back_insert_iteratorINS2_12basic_stringIDsNS2_11char_traitsIDsEENS2_9allocatorIDsEEEEEEPKcEET_T0_SE_SD_
gG:__ZN17AnimationPlayable18DeallocateBindingsEv
Zbc:__ZN6Camera25StandaloneRenderToCubemapEP7TextureiPFvPK9SceneNodePK4AABBR9IndexListPvESA_j
b_h:_String_Trim_m3384720403
y8a:__ZN14RenderSettings18TransferDeprecatedI14SafeBinaryReadEEvRT_
dvd:__ZN24ConvexVsHeightfieldSweepD0Ev
Nxl:_Event__ctor_m526447123
ZVj:__ZL56RankException_t3812021567_CustomAttributesCacheGeneratorP21CustomAttributesCache
awj:__Z72RuntimeInvoker_Boolean_t97287965_CustomAttributeNamedArgument_t287865710PFvvEPK10MethodInfoPvPS4_
Ukj:__Z88RuntimeInvoker_RuntimeObject_RuntimeObject_RuntimeObject_RuntimeObject_Int32_t2950945753PFvvEPK10MethodInfoPvPS4_
mxj:__Z59RuntimeInvoker_Int32_t2950945753_KeyValuePair_2_t2530217319PFvvEPK10MethodInfoPvPS4_
DSi:_Type_ToString_m3975981286
V8:__ZN12TLSAllocatorI14StackAllocatorE8AllocateEji
Waa:__ZN16ScriptingManager18GetMonoScriptCacheEi
zjh:_RemotingServices__cctor_m4056345423
Wol:_ExpressionAssertion__ctor_m2554412824
sql:_CapturingGroup_IsComplex_m4061114763
hFd:__ZNK5physx3Ext5JointINS_15PxDistanceJointENS_30PxDistanceJointGeneratedValuesEE11getBodyPoseEPKNS_12PxRigidActorE
Tsk:_Array_Resize_TisCustomAttributeTypedArgument_t2723150157_m3021884250_gshared
O7i:_Enumerator_System_Collections_IEnumerator_get_Current_m2237476582_gshared
vEb:__Z18Transfer_BlittableI14SafeBinaryReadLb1EyEvRK29SerializationCommandArgumentsR31RuntimeSerializationCommandInfo
T_j:__ZL99GameObject_t1113636619_CustomAttributesCacheGenerator_GameObject_GetComponentInChildren_m2670866854P21CustomAttributesCache
eWc:__ZNSt3__27__sort5IR31SortCollisionEventsByGameObjectP22ParticleCollisionEventEEjT0_S5_S5_S5_S5_T_
Gxg:_NullReferenceException__ctor_m3076065613
dMc:__ZN8JSONRead8TransferIfEEvRT_PKc17TransferMetaFlagsb
Ou:__ZN25RuntimeAnimatorController8TransferI17RemapPPtrTransferEEvRT_
Uje:__ZNK5physx2Sc10NPhaseCore39getDefaultContactReportStreamBufferSizeEv
aTk:_Comparison_1_EndInvoke_m3981968715_gshared
uya:__ZN9ShaderLab7Program22ComputeSupportsShadowsEv
KLh:_X509SubjectKeyIdentifierExtension_Decode_m1505409124
F3d:__ZN5physx7NpCloth25setSelfCollisionStiffnessEf
bte:__ZZN5physx28PxcSweepEstimateAnyShapeMeshERKNS_11PxsCCDShapeES2_PKNS_12PxsRigidBodyES5_RKNS_11PxTransformES8_fEN2CBD0Ev
JBl:_AnalyticsEventParamListContainer__ctor_m1995104893
GZh:_String_System_IConvertible_ToUInt16_m2888090399
KX:__ZN11AudioSource21ApplyCachedParametersE12SoundChannel
AMf:_Assembly_InternalGetType_m3065345470
J0:__ZN13Simd4iFactoryIN6detail9FourTupleEEC2Eiiii
gTg:_InternalEnumerator_1__ctor_m3390957028_gshared
zZf:_ResourceSet__ctor_m3356376607
xFf:_FloatTween_set_startValue_m53556027_AdjustorThunk
dzf:_PhysicsRaycaster_get_maxRayIntersections_m3887348715
tNj:__ZL56_ParameterInfo_t489405856_CustomAttributesCacheGeneratorP21CustomAttributesCache
hhb:__ZN15SerializeTraitsI33EnlightenTerrainChunksInformationE8TransferI14SafeBinaryReadEEvRS0_RT_
uZd:__ZN5physx2Sc14ConstraintCoreD2Ev
Ded:__ZN6b2Body12SetTransformERK6b2Vec2f
omc:__ZNK32RendererMaterialAnimationBinding9BindValueER6ObjectRKN11UnityEngine9Animation14GenericBindingERNS3_10BoundCurveE
Vik:__ZL109MaskableGraphic_t3839221559_CustomAttributesCacheGenerator_MaskableGraphic_ParentMaskStateChanged_m1092090553P21CustomAttributesCache
M9g:_Transform_1_Invoke_m1731820209_gshared
tWd:__ZN5physx15NpActorTemplateINS_18PxArticulationLinkEE13setActorFlagsENS_7PxFlagsINS_11PxActorFlag4EnumEtEE
t9a:__Z13GetIAnimationv
sKa:__ZL18stbir__support_onef
YNe:__ZN5physx6shdfnd8internal8HashBaseIPNS_11PxAggregateES4_NS0_4HashIS4_EENS1_11HashSetBaseIS4_S6_NS0_9AllocatorELb0EE6GetKeyES8_Lb0EE15reserveInternalEj
ZYh:_Single_CompareTo_m189772128
QNc:__Z26Transfer_UnityEngineObjectI9JSONWriteLb0EEvRK29SerializationCommandArgumentsR31RuntimeSerializationCommandInfo
U0g:_DefaultComparer_Compare_m4042058291_gshared
q3c:__ZN14VelocityModuleD2Ev
Ocb:__ZNSt3__26vectorIN4core12basic_stringIcNS1_20StringStorageDefaultIcEEEE13stl_allocatorIS5_L18MemLabelIdentifier1ELi16EEE6assignINS_11__wrap_iterIPS5_EEEENS_9enable_ifIXaasr21__is_forward_iteratorIT_EE5valuesr16is_constructibleIS5_NS_15iterator_traitsISF_E9referenceEEE5valueEvE4typeESF_SF_
tKm:dynCall_iiiifii
_if:__ZNSt3__27__sort5IRNS_6__lessIN2UI14DepthSortEntryES3_EEPS3_EEjT0_S7_S7_S7_S7_T_
Ypg:_FileLoadException_ToString_m2989457882
Xil:_AuthorityKeyIdentifierExtension__ctor_m2197389230
EFl:_AudioListener_ClearExtensionProperties_m3849891634
xSc:__Z39ParticleSystemRenderer_RenderBillboardsIL21SpriteMaskInteraction0EEvRK15RenderNodeQueuej17ShaderChannelMaski
_1e:_UNITY_FT_DivFix
Bwk:_Array_InternalArray__get_Item_TisDecimal_t2948259380_m3511003792_gshared
i8l:__ZNSt3__218uninitialized_copyIPNS_4pairIK10KeyWrapperINS1_IPK11Il2CppImageP11Il2CppClassEEEjEESC_EET0_T_SE_SD_
sWh:_SecurityElement_IsValidAttributeValue_m948345692
Plc:__ZN14Texture2DArrayC2E10MemLabelId18ObjectCreationMode
Na:invoke_vdd
Ko:FUNCTION_TABLE_fiii
PLj:__ZL102MethodInfo_t_CustomAttributesCacheGenerator_MethodInfo_MakeGenericMethod_m1996785325____typeArguments0P21CustomAttributesCache
iug:_TextWriter_Write_m2252948084
vpc:__Z19RegisterModule_Corev
Hfh:_AsyncResult_get_CallMessage_m1679778649
oEi:_Array_InternalArray__IEnumerable_GetEnumerator_TisPlayableBinding_t354260709_m1924544205_gshared
Hkc:__ZNK30SpriteRendererAnimationBinding12GetPPtrValueERKN11UnityEngine9Animation10BoundCurveE
Bgf:__ZZ29InitializeTextRenderingModulevEN27cleanupAfterLoadRegistrator7ForwardEv
Bzb:__ZNSt3__26__sortIRPFbRK23TransformAccessReadOnlyS3_EPS1_EEvT0_S8_T_
bbi:_CCFixed_FromDateTime_m3894190577
WAm:__ZN6il2cpp6icalls8mscorlib4Mono8Security12Cryptography18KeyPairPersistence19_IsMachineProtectedEP12Il2CppString
cac:__Z29PluginsIssueRenderingExtEvent26UnityRenderingExtEventTypePv
Kcj:__Z116RuntimeInvoker_RuntimeObject_RuntimeObject_Int32_t2950945753_RuntimeObject_RuntimeObject_RuntimeObject_RuntimeObjectPFvvEPK10MethodInfoPvPS4_
Myg:_RuntimeMethodHandle__ctor_m2229201676_AdjustorThunk
Hkh:_MessageFormatter_ReadMethodCall_m2327590823
k7c:__Z19UpdateSingleRow2TplIL27ParticleSystemCurveEvalMode2ELS0_2EEvfRK11MinMaxCurveS3_RK23ParticleSystemParticlesPfbiii
Hkj:__Z48RuntimeInvoker_Void_t1185182177_Byte_t1134296376PFvvEPK10MethodInfoPvPS4_
plc:__Z14RandomRotationP9Texture2DPhiiii
NHi:_Array_InternalArray__ICollection_Add_TisUInt16_t2177724958_m3981262878_gshared
eXe:__ZThn132_N5physx7profile8ZoneImplINS_28PxProfileNameProviderForwardEED1Ev
X6i:_HashSet_1_Contains_m3173358704_gshared
DDl:_ToggleEvent__ctor_m834619998
Y$g:_InternalEnumerator_1_Dispose_m436383441_AdjustorThunk
_Gg:_PKCS1_Encode_v15_m2077073129
V_i:_Dictionary_2_get_Values_m2682483593_gshared
KGh:_ContentInfo_get_Content_m1945593776
EIk:_Collection_1_set_Item_m4084225937_gshared
s_b:__ZZ23InitPlayerLoopCallbacksvEN39PostLateUpdateGUIClearEventsRegistrator7ForwardEv
rie:__ZN5physx7NpScene27setCCDContactModifyCallbackEPNS_26PxCCDContactModifyCallbackE
hhl:_WaypointProgressTracker_set_speedPoint_m1627538866
xCj:__Z51RuntimeInvoker_OrderBlock_t1585977831_RuntimeObjectPFvvEPK10MethodInfoPvPS4_
$Oe:__ZNK5physx17ConvexHullBuilder17ComputeGeomCenterERNS_6PxVec3E
Yei:_AnimationCurve_Evaluate_m2125563588
Mri:_Random_INTERNAL_get_insideUnitSphere_m2687634800
cfm:__ZNSt3__214__split_bufferIN6il2cpp8metadata18GenericArrayMethodERNS_9allocatorIS3_EEED2Ev
oxe:__ZN3MBPD0Ev
tNa:__ZN4gles14UseGLSLProgramER15DeviceStateGLESjbij
xqj:__Z59RuntimeInvoker_Boolean_t97287965_Int32_t2950945753_IntPtr_tPFvvEPK10MethodInfoPvPS4_
RSm:_glDeleteProgram__wrapper
qzc:__Z50Register_UnityEngine_Camera_INTERNAL_get_pixelRectv
WOj:__ZL101RemotingServices_t1401195504_CustomAttributesCacheGenerator_RemotingServices_GetRealProxy_m2081098851P21CustomAttributesCache
m0c:__ZN11ShapeModule18MultiModeParameterIN25IParticleSystemProperties8PropertyIfNS1_11ClampRadiusEEEE8TransferI24GenerateTypeTreeTransferEEvRT_
BLa:__ZN6prcoreL18BlitFloatToIntegerERK14ImageReferenceRS0_
Y4h:_DBNull_System_IConvertible_ToUInt32_m3784627971
AKg:_ClientSessionCache_Add_m964342678
xle:__ZNK5physx10PxsContext18getBounceThresholdEv
Tzl:_SkinChangedDelegate__ctor_m1270439727
DRa:__ZN13dynamic_arrayI15ComputeShaderCBLj4EE6assignEPKS0_S3_
Cid:__ZN7b2Timer5ResetEv
i4:__ZN11UnityEngine15CloudWebService14RestDownloader17OnCompleteContentEv
n5l:__ZN15dense_hashtableINSt3__24pairIK10KeyWrapperINS1_IPK14Il2CppAssemblyP11Il2CppClassEEEjEES9_17ReflectionMapHashIS8_EN14dense_hash_mapIS9_jSD_NS9_14EqualsComparerINS0_8equal_toIS8_EEEENS0_9allocatorISB_EEE9SelectKeyESI_SK_E15insert_noresizeERKSB_
sxi:_Transform_get_localScale_m129152068
t6h:_DivideByZeroException__ctor_m3496959969
HOa:__ZN26SinglePassStereoSupportExt19AfterDrawCallStereoEv
Age:__ZN5physx6shdfnd5ArrayIPvNS0_15InlineAllocatorILj256ENS0_19ReflectionAllocatorINS_2Gu31SpherePersistentContactManifoldEEEEEE15growAndPushBackERKS2_
GJe:__ZN5physx2Cm18DelegateFanoutTaskINS_2Sc5SceneEXadL_ZNS3_17finalizationPhaseEPNS_10PxBaseTaskEEEE11runInternalEv
CJ:__ZN17AnimationPlayable28UpdateInternalStateRecursiveILi1ELb0EEEvPK35AnimationPlayableEvaluationConstant
Vnm:__ZN6il2cpp2gcL10CleanupCCWEPvS1_
hb:invoke_vifff
wAc:__Z41Register_UnityEngine_GameObject_set_layerv
F7d:__ZN5physx15NpParticleFluid15exportExtraDataERNS_22PxSerializationContextE
sRm:_glGetVertexAttribiv__wrapper
nVd:__ZN5physx6shdfnd15atomicDecrementEPVi
If:_emscripten_request_fullscreen
ZUk:_Predicate_1_Invoke_m851618236_gshared
AJe:__ZN5physx2Cm12DelegateTaskINS_2Sc5SceneEXadL_ZNS3_11postCCDPassEPNS_10PxBaseTaskEEEED0Ev
iVb:__ZN20LocalFileSystemWebGL6DeleteER13FileEntryDatab
Kf:_emscripten_glDisableVertexAttribArray
kCi:_Array_InternalArray__ICollection_Remove_TisSingle_t1397266774_m3361324455_gshared
Eo:FUNCTION_TABLE_iiiifiiii
psa:__ZN4core8hash_mapINS_12basic_stringIcNS_20StringStorageDefaultIcEEEE13dynamic_arrayI4PPtrI6SpriteELj4EENS_4hashIS4_EENSt3__28equal_toIS4_EEE12delete_nodesEv
Tzk:_Collection_1_set_Item_m839097518_gshared
KTg:_InternalEnumerator_1__ctor_m3456047704_gshared
Kc:invoke_fifffi
qHk:_Collection_1_System_Collections_IList_Add_m2969482770_gshared
RDh:_BitConverterLE_GetBytes_m4130646282
PHa:__ZN4gles23ClearCurrentFramebufferEP7ApiGLESbbbRK10ColorRGBAffi
$H:__ZN7mecanim12statemachine20CreateStateWorkspaceEjjjRNS_6memory9AllocatorE
z8l:__ZNK10KeyWrapperINSt3__24pairIPK12PropertyInfoP11Il2CppClassEEE14EqualsComparerINS0_8equal_toIS7_EEEclERKS8_SE_
zvl:_UnityEvent_1_Invoke_m3604335408_gshared
RUj:__ZL79Convert_t2465617642_CustomAttributesCacheGenerator_Convert_ToUInt64_m2652538228P21CustomAttributesCache
HOe:__ZN5physx2Gu11HeightField13releaseMemoryEb
Vf:_emscripten_glDeleteObjectARB
Gxf:_EventSystem_RaycastComparer_m3685368675
fNa:__Z14DecompressDXT3iiiPKjPj
Egj:__Z131RuntimeInvoker_Void_t1185182177_RuntimeObject_RuntimeObject_Int64_t3736567304_ObjectU26_t2146539884_SerializationInfoU26_t419328957PFvvEPK10MethodInfoPvPS4_
RMa:__ZN6prcoreL27StretchGenericFloatBilinearI18TexFormatARGBFloatEEvPKNS_9InnerInfoE
zUc:__ZN12LightsModule5StartER23ParticleSystemParticlesjj
GEh:_DSAManaged_CreateSignature_m2233977444
khk:__ZL87U3CDelayedDestroyDropdownListU3Ec__Iterator0_t3853912249_CustomAttributesCacheGeneratorP21CustomAttributesCache
rHh:_PKCS12_RemoveCertificate_m1421555398
EEg:_Kernel_MinusEq_m2152832554
CMa:__ZN6prcoreL17RemapGenericFloatI17TexFormatRGBAHalf18TexFormatARGBFloatEEvPKNS_9InnerInfoE
t_j:__ZL103Component_t1923634451_CustomAttributesCacheGenerator_Component_BroadcastMessage_m1122836454____options2P21CustomAttributesCache
Jhd:__ZNSt3__27__sort4IRN18Overlap2DQueryBase29ColliderHitsByDepthComparitorEPP10Collider2DEEjT0_S7_S7_S7_T_
pJc:__Z14GetBuiltinSkini
ehh:_MethodDictionary_get_Item_m1201458851
xBf:_StandaloneInputModule_ProcessMouseEvent_m2923582521
V9i:__Z60RuntimeInvoker_SByte_t1669577662_RuntimeObject_RuntimeObjectPFvvEPK10MethodInfoPvPS4_
JYh:_Single_System_IConvertible_ToSingle_m1939829239_AdjustorThunk
qja:___cxx_global_var_init_18
tqm:__ZN6il2cpp2os10ThreadImpl13SetWaitObjectEPNS0_5posix15PosixWaitObjectE
cm:_JS_SystemInfo_GetBrowserVersionString
bzb:__ZN2UI13RectTransform23VirtualRedirectTransferER14SafeBinaryRead
xvb:__ZN24GenerateTypeTreeTransfer8TransferINSt3__26vectorIN4core12basic_stringIcNS3_20StringStorageDefaultIcEEEE13stl_allocatorIS7_L18MemLabelIdentifier13ELi16EEEEEEvRT_PKc17TransferMetaFlags
aje:__ZN5physx7NpScene17flushQueryUpdatesEv
Gah:_Enumerator_MoveNext_m3045873697_gshared
Jmj:__Z31RuntimeInvoker_Rect_t2360479859PFvvEPK10MethodInfoPvPS4_
Pva:__ZNSt3__26vectorIN9ShaderLab20SerializedSubProgramENS_9allocatorIS2_EEE6assignIPS2_EENS_9enable_ifIXaasr21__is_forward_iteratorIT_EE5valuesr16is_constructibleIS2_NS_15iterator_traitsIS9_E9referenceEEE5valueEvE4typeES9_S9_
aQc:__Z18Transfer_BlittableI8JSONReadLb0E8BitFieldEvRK29SerializationCommandArgumentsR31RuntimeSerializationCommandInfo
e9f:_Char_ToString_m3588025615_AdjustorThunk
R6i:_HashSet_1_CopyTo_m2849056227_gshared
tOb:__ZL17Transfer_GUIStyleI18StreamedBinaryReadILb1EELb0EEvRK29SerializationCommandArgumentsR31RuntimeSerializationCommandInfo
QCh:_ModulusRing_Multiply_m343333088
g_e:__ZN12PhysXRaycast15InitializeClassEv
sje:__ZN5physx7NpScene10unlockReadEv
Eta:__ZN9ShaderLab14SerializedPass8TransferI14SafeBinaryReadEEvRT_
hKc:__Z71Register_UnityEngine_GUILayoutUtility_INTERNAL_CALL_Internal_MoveWindowv
w_:__ZN12AudioManager16SetListenerPauseEb
Vjd:__ZNSt3__26__sortIRN10ClipperLib12LocMinSorterEPNS1_12LocalMinimumEEEvT0_S6_T_
Bcl:_VirtualButton_Remove_m2283809840
aDi:_SetPropertyUtility_SetStruct_TisSingle_t1397266774_m2805350785_gshared
QLi:_StringBuilder_get_Length_m3238060835
qim:__ZN6il2cpp2vm9Exception25RaiseOutOfMemoryExceptionERKNS_5utils10StringViewIDsEE
k7i:_KeyValuePair_2_set_Value_m2953914627_AdjustorThunk
ga:invoke_viiiiiiiiiii
iDm:___syscall_ret
Pjl:_DeriveBytes_set_Salt_m1400945044
Pzf:_PointerEventData_set_worldNormal_m1888481930
cDf:_CanvasScaler_set_referencePixelsPerUnit_m1768965301
Epl:_AnchorInfo__ctor_m46784903
yYl:__ZN15dense_hashtableI10KeyWrapperIPK17Il2CppGenericInstES4_N6il2cpp8metadata21Il2CppGenericInstHashEN14dense_hash_setIS4_S7_NS4_14EqualsComparerINS6_24Il2CppGenericInstCompareEEENSt3__29allocatorIS4_EEE8IdentityESB_SE_E6insertERKS4_
gJg:_CipherSuiteCollection_get_Item_m4188309062
QOg:_SslHandshakeHash_HashFinal_m2573455475
Veh:_SynchronizationAttribute_ReleaseLock_m1030353464
Shc:__ZN14qsort_internal30FindAndMovePivotToLastPositionIP8Vector2fi26PointDistanceSortPredicateEEvT_S4_T0_T1_
Jof:__Z56Register_UnityEngine_Analytics_CustomEventData_AddDoublev
fkb:__ZN11ChannelInfo8TransferI19StreamedBinaryWriteILb0EEEEvRT_
stm:__ZN4utf88internal13validate_nextIPKcEENS0_9utf_errorERT_S5_Rj
skk:__ZL53ToggleGroup_t123837990_CustomAttributesCacheGeneratorP21CustomAttributesCache
W4d:__ZN5physx2Sc9ClothCore22setFrictionCoefficientEf
GTh:_SHA1Internal_AddLength_m2737455899
D1b:__ZN14qsort_internal13Partition3WayIP17RODataReplacementi19ROSorterReplacementEENSt3__24pairIT_S6_EES6_S6_T0_T1_
U_d:__ZNK5physx9NpPhysics17getNbConvexMeshesEv
Pie:__ZNK5physx7NpScene29getContactCorrelationDistanceEv
t_i:_KeyValuePair_2_get_Value_m755756747_gshared
OAc:__Z34Register_UnityEngine_Gradient_Initv
Rrc:__Z15WriteLineVertexILb0EEvRPhRKN4math8float4x4ERKNS2_7_float3ERK11ColorRGBA32RKffRKNS2_7_float2E
r0c:__ZN13InitialModule8TransferI17RemapPPtrTransferEEvRT_
BRf:_GenericTypeParameterBuilder_IsArrayImpl_m67259334
heh:_Context_ToString_m1073616138
oOf:_DefaultMemberAttribute_get_MemberName_m3384235354
v1c:__ZN25IParticleSystemProperties8PropertyI8Vector3fNS_3MinILi0EEEE8TransferI18StreamedBinaryReadILb0EEEEvRT_PKc
iHl:__ZL24UnresolvedVirtualCall_57P12Il2CppObjectiPK10MethodInfo
tmh:_InputField_EnforceTextHOverflow_m3400115777
Uw:__ZN9Animation13AwakeFromLoadE17AwakeFromLoadMode
o1k:_List_1_System_Collections_IEnumerable_GetEnumerator_m1225415523_gshared
T6h:_Decimal_op_Increment_m2045993911
L0e:__Z39Register_UnityEngine_Rigidbody_get_dragv
Xrb:__ZN9InputAxis8TransferI19StreamedBinaryWriteILb0EEEEvRT_
okg:__Z33il2cpp_codegen_check_sub_overflowxx
tJm:dynCall_viififiii
gnh:_InputField_get_caretColor_m2973283772
qxl:_ListPool_1_Release_m591299672_gshared
dDd:__ZN5physx6shdfnd8SyncImpl4waitEj
oUj:__ZL79Convert_t2465617642_CustomAttributesCacheGenerator_Convert_ToUInt16_m3116648921P21CustomAttributesCache
q_g:_InternalEnumerator_1_MoveNext_m1096095130_AdjustorThunk
OHk:_Collection_1_RemoveAt_m226266097_gshared
Pvl:_UnityEvent_1_AddListener_m1590149461_gshared
I$c:__Z32TransferEnumWithNameForceIntSizeI14SafeBinaryRead25ParticleSystemScalingModeEvRT_RT0_PKc17TransferMetaFlags
$9j:__ZL63GUISkin_t1244372282_CustomAttributesCacheGenerator_m_ScrollViewP21CustomAttributesCache
D8h:_Double_System_IConvertible_ToInt16_m3591921965_AdjustorThunk
cTk:_Comparison_1_Invoke_m2925518770_gshared
X4c:__ZN33SizeBySpeedModulePropertyBindings13GetFloatValueERK14ParticleSystemi
q0a:__ZN10GameObject23VirtualRedirectTransferER18StreamedBinaryReadILb0EE
GAl:_SymmetricTransform__ctor_m2693628991
JLf:_ObjectDisposedException__ctor_m1034312941
RPl:_Rigidbody_INTERNAL_set_angularVelocity_m4188482450
Aoj:__Z67RuntimeInvoker_Void_t1185182177_Scene_t2348375561_Scene_t2348375561PFvvEPK10MethodInfoPvPS4_
kh:_glFrontFace
n_l:__ZNK15dense_hashtableINSt3__24pairIK10KeyWrapperIPK11Il2CppClassEPKcEES6_N6il2cpp5utils11PointerHashIS3_EEN14dense_hash_mapIS6_S9_SE_NS6_14EqualsComparerINS0_8equal_toIS5_EEEENS0_9allocatorISA_EEE9SelectKeyESJ_SL_E13find_positionERS7_
Zak:__ZL104Physics2D_t1528932956_CustomAttributesCacheGenerator_Physics2D_OverlapCircleAll_m1634860779____maxDepth4P21CustomAttributesCache
cXc:__Z13DragUpdateTplIL27ParticleSystemCurveEvalMode4EEvRK11MinMaxCurvebbR23ParticleSystemParticlesjjRKN4math7_float4E
org:_FileSystemInfo_InternalRefresh_m1700260373
aHf:_Dropdown_OnSubmit_m1624226516
jti:_RectOffset__ctor_m3236153262
Z4i:_EqualityComparer_1_get_Default_m1390205541_gshared
o0c:__ZN14ParticleSystem8TransferI17RemapPPtrTransferEEvRT_
WQd:__ZN5physx21PxcArticulationHelper13applyImpulsesERKNS_9PxcFsDataEPNS_14PxcSIMDSpatialES5_
RZl:__ZNK15dense_hashtableINSt3__24pairIK10KeyWrapperIPK19Il2CppGenericMethodEPK26Il2CppGenericMethodIndicesEES6_N6il2cpp8metadata23Il2CppGenericMethodHashEN14dense_hash_mapIS6_SA_SE_NS6_14EqualsComparerINSD_26Il2CppGenericMethodCompareEEENS0_9allocatorISB_EEE9SelectKeyESI_SK_E12test_deletedEj
CYc:__Z11StartCircleILN11ShapeModule14MultiModeValueE3EEvRS0_R23ParticleSystemParticlesRK19ParticleSystemStateRK27ParticleSystemEmissionStateRKN4math8float3x3ERKNSB_8float4x4Ejbj
Ish:_MaskUtilities_IsDescendantOrSelf_m2247511982
Lij:__Z51RuntimeInvoker_UInt16_t2177724958_SByte_t1669577662PFvvEPK10MethodInfoPvPS4_
Hke:__ZN5physx13NpVolumeCache17getNbCachedShapesEv
z6b:__ZNSt3__26vectorI16ShadowCasterData13stl_allocatorIS1_L18MemLabelIdentifier2ELi16EEE21__push_back_slow_pathIKS1_EEvRT_
V8i:__Z46RuntimeInvoker_Double_t594665363_RuntimeObjectPFvvEPK10MethodInfoPvPS4_
lhf:__Z51Register_UnityEngine_TextGenerator_GetLinesInternalv
cah:_Enumerator_get_Current_m2250080680_AdjustorThunk
CXh:_SecurityElement__cctor_m3326869319
rBl:_AesManaged_set_Key_m767972181
qjg:_Int16_System_IConvertible_ToBoolean_m1656400658_AdjustorThunk
l7f:_Byte_System_IConvertible_ToInt64_m285584218
vlh:_ObjectManager__ctor_m1844334865
gFa:__ZN13GfxDeviceGLES22SetScissorRectPlatformERK5RectTIiE
TLa:__ZN6prcoreL17RemapGenericFloatI17TexFormatRGBFloat18TexFormatRGBAFloatEEvPKNS_9InnerInfoE
Scg:_DictionaryEntry_t3123975638_marshal_pinvoke_cleanup
ime:__ZN5physx2Sc5Scene15getRenderBufferEv
fHi:_Array_InternalArray__ICollection_Add_TisDictionaryEntry_t3123975638_m665385049_gshared
B2l:_WritableAttribute__ctor_m1991076220
xvg:_MissingMemberException__ctor_m2707802176
jAb:__ZN12HandlerChain10ToAbsoluteEPKc
WLl:_Canvas_get_renderMode_m841659411
nhb:__ZN15SerializeTraitsI13dynamic_arrayI28EnlightenRendererInformationLj8EEE19ResizeSTLStyleArrayERS2_i
pod:__ZN16PhysicsManager2D12BeginContactEP9b2Contact
eTb:__ZN13MonoBehaviour23VirtualRedirectTransferER19StreamedBinaryWriteILb0EE
RR:__ZN9AudioClip11CreateSoundEv
Jnj:__Z98RuntimeInvoker_Void_t1185182177_Single_t1397266774_Vector3U26_t3464235976_QuaternionU26_t651104941PFvvEPK10MethodInfoPvPS4_
SZe:__Z19ExtractDataFromMeshR4MeshR13dynamic_arrayI8Vector3fLj4EERS1_IjLj4EES6_b
Mbm:__ZN14dense_hash_mapI10KeyWrapperINSt3__24pairIPK9FieldInfoP11Il2CppClassEEEj17ReflectionMapHashIS8_ENS9_14EqualsComparerINS1_8equal_toIS8_EEEENS1_9allocatorINS2_IKS9_jEEEEEC2EjRKSB_RKSF_
i7l:__ZNK15dense_hashtableINSt3__24pairIK10KeyWrapperINS1_IPK10MethodInfoP11Il2CppClassEEEjEES9_17ReflectionMapHashIS8_EN14dense_hash_mapIS9_jSD_NS9_14EqualsComparerINS0_8equal_toIS8_EEEENS0_9allocatorISB_EEE9SelectKeyESI_SK_E13find_positionERSA_
qdl:_StandaloneInput_SetAxisZero_m1656451625
sLb:__Z18Transfer_BlittableI19StreamedBinaryWriteILb0EELb0E8Vector2fEvRK29SerializationCommandArgumentsR31RuntimeSerializationCommandInfo
IFb:__Z19TransferField_ArrayI14SafeBinaryRead27Converter_SimpleNativeClassI10RectOffsetEEvRK23StaticTransferFieldInfoR31RuntimeSerializationCommandInfoRT0_
Qsf:__ZN11UnityEngine7Connect16PersistentValues13RestoreValuesER8JSONRead
WUe:__ZN14SphereCollider22FetchPoseFromTransformEv
Fei:_Guid_BaseToString_m3600006650
XZa:__ZN20ArchiveStorageReader31TryToReadDirectoryFromBlockDataEyPKvj
_wf:_PointerEventData_set_pointerEnter_m3256217464
TEe:__ZNK5physx2Gu11HeightField17getHeightInternalEff
uri:_Quaternion_get_identity_m3722672781
ykm:__ZN6il2cpp2vmL11GetIdentityEP14Il2CppIUnknown
O_l:__ZN6il2cpp2vm13MetadataCache26GetWindowsRuntimeClassNameEPK11Il2CppClass
Mwm:_GC_push_gc_structures
rMg:_TlsServerCertificate_ProcessAsTls1_m819212276
hie:__ZNK5physx7NpScene22getClientBehaviorFlagsEh
Evk:_Dictionary_2_Do_ICollectionCopyTo_TisRuntimeObject_m3942192587_gshared
z$d:__ZN5physx9NpFactory14createMaterialEfff
upd:__ZNK5physx3Cct13BoxController8getStatsERNS_17PxControllerStatsE
Fdk:__ZL139RectTransformUtility_t1743242446_CustomAttributesCacheGenerator_RectTransformUtility_INTERNAL_CALL_RectangleContainsScreenPoint_m1214874141P21CustomAttributesCache
M0:__ZN5physx5cloth11PhaseConfigC2Et
QOa:__Z22GetShaderCachePathGLESv
u7c:__Z19UpdateSingleRow2TplIL27ParticleSystemCurveEvalMode0ELS0_2EEvfRK11MinMaxCurveS3_RK23ParticleSystemParticlesPfbiii
EA:__ZNSt3__26vectorIN13AnimationClip10FloatCurveE13stl_allocatorIS2_L18MemLabelIdentifier26ELi16EEE6resizeEj
wpd:__ZN5physx3Cct13BoxControllerD2Ev
xEg:_Kernel_DwordDivMod_m1540317819
qtl:_CachedInvokableCall_1_Invoke_m931536002_gshared
o5c:__ZN22ParticleSystemRenderer23UpdateVertexInputLayoutEv
Tge:__ZThn8_N5physx2Sc19ShapeInstancePairLLD0Ev
Tze:__ZN5physx19PxcContactSphereBoxERKNS_2Gu13GeometryUnionES3_RKNS_11PxTransformES6_RKfRNS_10PxcNpCacheERNS0_13ContactBufferE
gyk:_Enumerator_System_Collections_IEnumerator_get_Current_m1399273671_gshared
vie:__ZNK5physx7NpScene21getBroadPhaseCallbackEh
VJd:__ZN5physx6shdfnd5ArrayIPNS_12PxConstraintENS0_19ReflectionAllocatorIS3_EEE15growAndPushBackERKS3_
SEd:__ZN5physx3Ext5JointINS_15PxDistanceJointENS_30PxDistanceJointGeneratedValuesEE10onComShiftEj
lck:__ZL106Rigidbody_t3916780224_CustomAttributesCacheGenerator_Rigidbody_INTERNAL_CALL_AddExplosionForce_m1231761721P21CustomAttributesCache
zkb:__ZNSt3__213__stable_sortIRNS_4lessI4PPtrI11SpriteAtlasEEENS_11__wrap_iterIPS4_EEEEvT0_SA_T_NS_15iterator_traitsISA_E15difference_typeEPNSD_10value_typeEi
Eng:_Int64_ToString_m2085073918_AdjustorThunk
o9g:_Transform_1_Invoke_m4084479750_gshared
aRd:__ZNK5physx2Sc15ArticulationSim11checkResizeEv
QUf:_FieldInfo_GetFieldOffset_m1356898082
yCj:__Z36RuntimeInvoker_Enumerator_t652329154PFvvEPK10MethodInfoPvPS4_
mGi:_Array_InternalArray__IndexOf_TisTypeTag_t3541821701_m2988972362_gshared
s3k:_List_1_System_Collections_IList_get_IsReadOnly_m521064213_gshared
Ika:__ZN8keywords6CreateEPKc
Mtd:__ZN5physx2Gu11gjkRelativeINS0_8CapsuleVENS0_11ConvexHullVEEEjRKT_RKT0_RKNS_6shdfnd3aos15PsMatTransformVERNSB_5Vec3VESG_SG_RNSB_6FloatVE
CQl:__ZL7log2_32j
S:Math_imul
HVk:_Enumerator_Dispose_m786980821_AdjustorThunk
qVe:__ZN5Unity5Joint22JointTransferPreNoAxisI14SafeBinaryReadEEvRT_
kwj:__Z49RuntimeInvoker_Boolean_t97287965_Byte_t1134296376PFvvEPK10MethodInfoPvPS4_
B7c:__Z17UpdateSprites2TplIL27ParticleSystemCurveEvalMode4ELS0_4EEvfRK11MinMaxCurveS3_RK23ParticleSystemParticlesPf
MMg:_TlsServerKeyExchange_Update_m453798279
qib:__ZN11PlayerPrefs6GetIntERKN4core12basic_stringIcNS0_20StringStorageDefaultIcEEEEi
nJg:_CipherSuiteCollection_System_Collections_IList_IndexOf_m1361500977
uzh:_Text_set_fontStyle_m648756124
Ugf:__Z45TextGenerator_CUSTOM_INTERNAL_get_rectExtentsP12Il2CppObjectP5RectTIfE
qnj:__Z50RuntimeInvoker_Touch_t1921856868_Int32_t2950945753PFvvEPK10MethodInfoPvPS4_
m1h:_DateTime__ctor_m2135476686_AdjustorThunk
kih:_SoapFieldAttribute_IsInteropXmlElement_m2819415462
j$:__ZN11AudioSource12SetAudioClipEP9AudioClip
Zti:_RectTransform_GetLocalCorners_m823861473
xYa:__Z18ReadStringFromFilePN4core17string_with_labelILi1EEERKNS_12basic_stringIcNS_20StringStorageDefaultIcEEEE
k5c:__ZN30VelocityModulePropertyBindings13GetFloatValueERK14ParticleSystemi
Y2i:_EqualityComparer_1__ctor_m3717935020_gshared
yTk:_Comparison_1_EndInvoke_m2734814639_gshared
caa:__ZN18ScriptingArguments9AddObjectE18ScriptingObjectPtr
hlf:__Z39CanvasGroup_Get_Custom_PropInteractableP12Il2CppObject
Ild:__ZN16CircleCollider2D23VirtualRedirectTransferER18StreamedBinaryReadILb0EE
_sf:__ZL38InitializeUnityConnectScriptingClassesv
Mac:__ZN13ProbeRenderer8ConvolveEbijjb
kAl:_GUIUtility_set_systemCopyBuffer_m608712289
hIa:__ZN17GenericDynamicVBOC2ER9GfxDevice13GfxBufferModejj
Yhd:__Z28GetPhysics2DScriptingClassesv
qIc:__ZZN10GUIManager14InitGUIManagerEvEN41PreUpdateIMGUISendQueuedEventsRegistrator7ForwardEv
NKh:_ServicePointManager_get_SecurityProtocol_m966397919
yee:__ZNK5physx2Sc5Scene7isValidEv
C2i:_EqualityComparer_1_System_Collections_IEqualityComparer_Equals_m2639327655_gshared
mbi:_CCGregorianCalendar_day_from_fixed_m1674702403
F2:__ZN11UnityEngine15CloudWebService17SessionEventQueue10PurgeItemsEj
yke:__ZN5physx2Sq17SceneQueryManager29setDynamicTreeRebuildRateHintEj
qbc:__ZN6Camera16StandaloneRenderENS_10RenderFlagEP6ShaderRKN4core12basic_stringIcNS3_20StringStorageDefaultIcEEEE
oNh:_X509Chain_PrepareForNextCertificate_m3691934993
veb:__ZNK12CubemapArray13GetIsReadableEv
cti:_Rect_Equals_m4169342960
NNb:__Z18Transfer_BlittableI18StreamedBinaryReadILb1EELb1EtEvRK29SerializationCommandArgumentsR31RuntimeSerializationCommandInfo
t9j:__ZL58EventType_t3528516131_CustomAttributesCacheGenerator_keyUpP21CustomAttributesCache
BPj:__ZL57X509Certificate_t713131622_CustomAttributesCacheGeneratorP21CustomAttributesCache
rnb:__ZN12BoneWeights48TransferI19StreamedBinaryWriteILb0EEEEvRT_
sCa:__ZN9GfxDevice20DeallocRenderSurfaceEP17RenderSurfaceBase
RPd:__ZN5physx6shdfnd5ArrayIPvNS0_19ReflectionAllocatorINS_18NpArticulationLinkEEEE4copyINS0_15InlineAllocatorILj256ES5_EEEEvRKNS1_IS2_T_EE
Lya:__ZN20GpuProgramParameters36UpdatePrepareValuesMaximumBufferSizeEv
dGl:_AudioSourceExtension_Stop_m387892536
Tpd:__ZNK5physx3Cct10Controller12getKineShapeEv
VYc:__Z15GetPositionMeshIL20MeshDistributionMode1ELb1E11ColorRGBA32EvRN4math8floatNx3ES4_RNS2_4pix4ERK13dynamic_arrayIS1_Lj4EERK14StrideIteratorI8Vector3fESF_RKSB_IT1_ERKS7_I16MeshTriangleDataLj4EERKS7_I11MeshAreaLUTLj4EERKfRKiST_R5RandNP12SkinMeshInfo
Uyi:_Vector3__ctor_m1719387948_AdjustorThunk
QMk:_ReadOnlyCollection_1_System_Collections_IList_get_IsReadOnly_m3888539454_gshared
kpa:__ZN13RuntimeStaticI10WatermarksLb0EE13StaticDestroyEPv
jId:__ZN5physx6shdfnd4sortIPvNS0_4LessIS2_EENS0_19ReflectionAllocatorINS_2Sc18TriggerInteractionEEEEEvPT_jRKT0_RKT1_j
zIi:_Array_InternalArray__ICollection_CopyTo_TisDecimal_t2948259380_m2749946216_gshared
JNg:_ReceiveRecordAsyncResult_get_ResultingBuffer_m1839161335
Q1a:__ZN12BaseRenderer23RendererBecameInvisibleEv
Jce:__ZNK5physx2Sc8BodyCore14getMaxAngVelSqEv
cfh:_EnvoyInfo__ctor_m276600651
odf:__ZN20TextRenderingPrivate8FontImpl13CharacterInfo8TransferI18StreamedBinaryReadILb0EEEEvRT_
H0j:__ZL78Mathf_t3464937446_CustomAttributesCacheGenerator_Mathf_PerlinNoise_m2335393878P21CustomAttributesCache
aLb:__Z29Transfer_Blittable_ArrayFieldI24GenerateTypeTreeTransferfEvRT_R9ArrayInfoRK23StaticTransferFieldInfo
kna:__ZNSt3__26__treeINS_12__value_typeIN4core12basic_stringIcNS2_20StringStorageDefaultIcEEEES6_EENS_19__map_value_compareIS6_S7_NS_4lessIS6_EELb1EEE13stl_allocatorIS7_L18MemLabelIdentifier13ELi16EEE7destroyEPNS_11__tree_nodeIS7_PvEE
Dki:_UnityEvent_FindMethod_Impl_m2312362624
Gcc:__ZN19CustomRenderTexture9AddParentE4PPtrIS_E
Gia:__ZN8Gradient8TransferI14SafeBinaryReadEEvRT_
JFf:_FloatTween_AddOnChangedCallback_m2814315272
Gol:_Parser_ParseSpecial_m1961501104
RYh:_Single_System_IConvertible_ToUInt64_m3299129161_AdjustorThunk
Ncb:__ZNSt3__26vectorIN4core12basic_stringIcNS1_20StringStorageDefaultIcEEEE13stl_allocatorIS5_L18MemLabelIdentifier1ELi16EEE7reserveEj
Cdk:__ZL93CanvasRenderer_t2598313366_CustomAttributesCacheGenerator_CanvasRenderer_set_cull_m4222419074P21CustomAttributesCache
WPi:_TimerCallback_BeginInvoke_m2250763656
OWi:_ValueCollection_System_Collections_Generic_ICollectionU3CTValueU3E_Contains_m3110959791_gshared
sKh:_IPv6Address_AsIPv4Int_m844941024
ixb:__ZN18IDCollectorFunctorD0Ev
SAe:__ZN5physx2Gu32PCMConvexVsMeshContactGeneration15processTriangleEPKNS_6PxVec3EjhPKj
_eg:_SortedList_GetEnumerator_m772783392
J_f:_Marshal__cctor_m4007734770
Gvm:_GC_new_free_list_inner
zGh:_SymmetricTransform_Random_m2004892672
jlj:__Z79RuntimeInvoker_Void_t1185182177_RuntimeObject_Byte_t1134296376_Byte_t1134296376PFvvEPK10MethodInfoPvPS4_
hHg:_EncryptedPrivateKeyInfo_get_IterationCount_m2912222740
lvm:_GC_err_printf
bKj:__ZL63PathTooLongException_t2919094560_CustomAttributesCacheGeneratorP21CustomAttributesCache
uEe:__ZN5physx6shdfnd5ArrayINS_2Cm8Matrix34ENS0_19ReflectionAllocatorIS3_EEE15growAndPushBackERKS3_
AHg:_RSAManaged_DecryptValue_m1804388365
ZAe:__ZN5physx2Gu32PCMConvexVsMeshContactGeneration31generatePolyDataContactManifoldERNS0_9TriangleVEjjhPNS0_21MeshPersistentContactERjRKNS_6shdfnd3aos6FloatVERNS8_5Vec3VE
$Qg:_InternalEnumerator_1_System_Collections_IEnumerator_get_Current_m2980550840_AdjustorThunk
CQe:__ZN5physx10SubSortSAH5splitEPjj
_kh:_ObjectReader_ReadArrayOfPrimitiveType_m3374303005
et:__ZN25RuntimeAnimatorController8TransferI14SafeBinaryReadEEvRT_
QQc:__ZN8JSONRead8TransferI10RectOffsetEEvRT_PKc17TransferMetaFlagsb
wlm:__ZNK15dense_hashtableINSt3__24pairIK10KeyWrapperINS1_IPKcS4_EEEiEES6_24NamespaceAndNamePairHashN14dense_hash_mapIS6_iS9_NS6_14EqualsComparerI26NamespaceAndNamePairEqualsEENS0_9allocatorIS8_EEE9SelectKeyESD_SF_E12test_deletedERK24dense_hashtable_iteratorIS8_S6_S9_SH_SD_SF_E
n2:__ZN9JSONWrite8TransferIN11UnityEngine15CloudWebService14DataErrorEvent15FileErrorDetailEEEvRT_PKc17TransferMetaFlags
XDk:_Collection_1_ClearItems_m2728738230_gshared
pmg:_Int32_Parse_m2087562008
E4a:__Z21ClearFenceWithoutSyncR8JobFence
mvd:__ZN5physx2Gu3EPA8addFacetEjjjRKNS_6shdfnd3aos6FloatVES6_
v0c:__ZN14RotationModule8TransferI17RemapPPtrTransferEEvRT_
GXf:_MonoProperty_GetAccessors_m412928203
Xwl:_TweenRunner_1_Start_m3757154622_gshared
XU:__ZN12SoundManager20RegisterModifiedClipEP10SampleClip
_ih:_RemotingServices_GetClientChannelSinkChain_m1499550585
BMf:_Assembly_FillName_m1660001542
lob:__ZN12MeshRenderer15AddAsRenderNodeER15RenderNodeQueueRK20DeprecatedSourceData
iNj:__ZL56_EventBuilder_t2558055199_CustomAttributesCacheGeneratorP21CustomAttributesCache
Gvh:_ScrollRect_get_decelerationRate_m74583805
eUh:_SHA384Managed_processBlock_m1272529332
BX:__ZN11AudioSource4PlayEd
f1j:__ZL88Random_t635017412_CustomAttributesCacheGenerator_Random_INTERNAL_get_rotation_m546796512P21CustomAttributesCache
g9f:_Char_ToString_m278452217_AdjustorThunk
WCd:__ZN5physx3Cct9CCTParamsC2Ev
KXl:__ZN15dense_hashtableI10KeyWrapperIPK17Il2CppGenericInstES4_N6il2cpp8metadata21Il2CppGenericInstHashEN14dense_hash_setIS4_S7_NS4_14EqualsComparerINS6_24Il2CppGenericInstCompareEEENSt3__29allocatorIS4_EEE8IdentityESB_SE_E13set_empty_keyERKS4_
laj:__Z63RuntimeInvoker_Char_t3634460470_Int16_t2552820387_RuntimeObjectPFvvEPK10MethodInfoPvPS4_
ahg:_Convert_ToDouble_m2924063577
v2d:__ZN5physx7NpCloth21setStiffnessFrequencyEf
iBb:__ZNK20LocalFileSystemPosix8IsHiddenERK13FileEntryData
ute:__ZN5physx17PxcSweepBoxConvexERKNS_11PxsCCDShapeES2_PKNS_12PxsRigidBodyES5_RKNS_11PxTransformES8_S8_S8_fRNS_6PxVec3ESA_RNS_10PxcNpCacheERNS_18PxcNpThreadContextEf
OMe:__ZThn8_N5physx2Gu11HeightField14onRefCountZeroEv
DHd:__ZN5physx2Sc5Actor9setActiveEbj
A$g:_InternalEnumerator_1_System_Collections_IEnumerator_Reset_m1601477281_AdjustorThunk
Btd:__ZN12_GLOBAL__N_127SphereMeshContactGeneration15processTriangleEjRKN5physx6PxVec3ES4_S4_PKj
lbh:_ValueCollection_System_Collections_Generic_ICollectionU3CTValueU3E_Remove_m3673494156_gshared
ydk:__ZL113CanvasRenderer_t2598313366_CustomAttributesCacheGenerator_CanvasRenderer_SplitUIVertexStreamsInternal_m3280623346P21CustomAttributesCache
ofb:__ZN7Cubemap23VirtualRedirectTransferER18StreamedBinaryReadILb0EE
x6g:_Enumerator_MoveNext_m76191888_AdjustorThunk
e$g:_InternalEnumerator_1__ctor_m1739091604_gshared
wCc:__ZNSt3__27__sort4IRNS_6__lessI11KeyframeTplIfES3_EEPS3_EEjT0_S7_S7_S7_T_
R9e:_Read_CVT
ZHd:__ZN5physx2Sc10NPhaseCore28reserveContactReportPairDataEjjRj
Std:__ZN5physx2Gu22barycentricCoordinatesERKNS_6shdfnd3aos5Vec3VES5_S5_RNS2_6FloatVE
i_a:__ZN12FileAccessor4SeekEx10FileOrigin
QJb:__ZL26Transfer_SimpleNativeClassI24GenerateTypeTreeTransfer17AnimationCurveTplIfELb0EEvRK29SerializationCommandArgumentsR31RuntimeSerializationCommandInfo
Ngg:_Convert_ToDecimal_m1783778724
QRc:__ZN8JSONRead21TransferSTLStyleArrayI13dynamic_arrayI9BoundsIntLj4EEEEvRT_17TransferMetaFlags
vhb:__ZN24GenerateTypeTreeTransfer8TransferI13dynamic_arrayI33EnlightenTerrainChunksInformationLj4EEEEvRT_PKc17TransferMetaFlags
c2h:_DateTimeFormatInfo__ctor_m3106345035
dKg:_TlsServerKeyExchange_verifySignature_m3412856769
c2i:_EqualityComparer_1_System_Collections_IEqualityComparer_GetHashCode_m4137147946_gshared
WOe:__ZL18TestUnifiedNormalsjPKN5physx6PxVec3EjPNS_2Gu9TriangleTIjEEb
Hoa:__ZN16LightmapSettings20DidChangeActiveSceneEP10UnitySceneS1_
qLb:__Z18Transfer_BlittableI19StreamedBinaryWriteILb0EELb0EN4math12int3_storageEEvRK29SerializationCommandArgumentsR31RuntimeSerializationCommandInfo
Fnk:__ZL59g_AssemblyU2DCSharp_Assembly_CustomAttributesCacheGeneratorP21CustomAttributesCache
H2l:__ZN6il2cpp5utils9PathUtils8BasenameIcEENSt3__212basic_stringIT_NS3_11char_traitsIS5_EENS3_9allocatorIS5_EEEERKSA_
ojh:_RemotingProxy__cctor_m4096951805
VJc:__Z35Register_UnityEngine_Event_get_typev
Bim:__ZN6il2cpp2vm9Exception23GetInvalidCastExceptionERKNS_5utils10StringViewIDsEE
gjk:__ZL64Scrollbar_t1494447233_CustomAttributesCacheGenerator_m_DirectionP21CustomAttributesCache
xLe:__ZNK5physx13GuMeshFactory17getNbConvexMeshesEv
fOj:__ZL48Header_t549724581_CustomAttributesCacheGeneratorP21CustomAttributesCache
fdk:__ZL88CanvasGroup_t4083511760_CustomAttributesCacheGenerator_CanvasGroup_get_alpha_m2918269489P21CustomAttributesCache
k9c:__ZN14ParticleSystem15InitializeClassEv
L8:__Z63ThreadAndSerializationSafeCheckGetMonoBehaviourBeingTransferredv
b8h:_StackTrace__ctor_m206492268
k0k:_List_1_set_Item_m4224739467_gshared
ocj:__Z74RuntimeInvoker_Int32_t2950945753_RuntimeObject_RuntimeObject_RuntimeObjectPFvvEPK10MethodInfoPvPS4_
$Ef:_ColorTween_set_startColor_m2562993758_AdjustorThunk
WOf:_ConstructorBuilder_get_Name_m2426555260
RBc:__Z37Register_UnityEngine_Input_GetAxisRawv
RWj:__ZL80ModulusRing_t596511505_CustomAttributesCacheGenerator_ModulusRing_Pow_m729002192P21CustomAttributesCache
Hol:_Parser_ParseCharacterClass_m4285351396
wWk:_Enumerator_System_Collections_IEnumerator_get_Current_m1643543708_AdjustorThunk
_hg:_Convert_ToSByte_m2653418303
leg:_SyncHashtable__ctor_m2449935938
nX:__ZN11AudioSource5ResetEv
qTh:_RSAPKCS1SignatureFormatter_SetKey_m2935054088
bJl:__ZL25UnresolvedVirtualCall_158P12Il2CppObject39CustomAttributeNamedArgument_t287865710PK10MethodInfo
b1b:__ZN12ImageFilters27SetSurfaceUseResolvedBufferEP13RenderTextureb
Okb:__ZN14Texture2DArray23VirtualRedirectTransferER18StreamedBinaryReadILb0EE
pNi:_UTF7Encoding_GetByteCount_m209415911
Uyb:__ZN2UI13RectTransform13AwakeFromLoadE17AwakeFromLoadMode
nrl:_RegularExpression_Compile_m2385682508
CGc:__Z30Light_Set_Custom_PropIntensityP12Il2CppObjectf
eGe:__ZN5physx23PxsSolverSetupSolveTaskD2Ev
Z5b:__ZN14qsort_internal30FindAndMovePivotToLastPositionIP20ShadowCasterSortDatai26ShadowCasterSortDataSorterEEvT_S4_T0_T1_
KOj:__ZL60IRemotingTypeInfo_t2222593263_CustomAttributesCacheGeneratorP21CustomAttributesCache
mDb:__Z18Transfer_BlittableI14SafeBinaryReadLb1EiEvRK29SerializationCommandArgumentsR31RuntimeSerializationCommandInfo
uNh:_X509ExtensionEnumerator_get_Current_m256207749
Lja:__GLOBAL__sub_I_modules_profiler_public_0_cpp
Zsl:_Predicate_1__ctor_m3829092036_gshared
uxb:__ZN17PersistentManager13GetAllFileIDsERKN4core12basic_stringIcNS0_20StringStorageDefaultIcEEEER13dynamic_arrayIxLj8EE
TRj:__ZL83StringBuilder_t_CustomAttributesCacheGenerator_StringBuilder_AppendLine_m1438862993P21CustomAttributesCache
B4f:_Array_Sort_m182264525
Aqh:_LayoutGroup_set_padding_m282562135
kAk:_Collection_1_System_Collections_IList_get_IsReadOnly_m773226719_gshared
yNf:_Default_IsArrayAssignable_m953489228
JN:__ZNK4PPtrI8RendererEcvPS0_Ev
$cm:_il2cpp_field_get_offset
QTi:_UInt16_ToString_m355311020_AdjustorThunk
Bbl:_VirtualInput_UnRegisterVirtualAxis_m3725553202
DYd:__ZN18MultiQueryCallbackIN5physx12PxOverlapHitEE6invokeERfPKNS0_2Sq13PrunerPayloadEj
ful:_InvokableCall_1_remove_Delegate_m667188944_gshared
IUe:__ZN14SphereColliderD0Ev
Axd:__ZN5physx2Gu18gjkRelativeRayCastINS0_4BoxVES2_NS0_10ShrunkBoxVES3_EEbRT_RT0_RKNS_6shdfnd3aos15PsMatTransformVERKNS9_6FloatVERKNS9_5Vec3VESI_RSD_RSG_SK_fb
Yeh:_SynchronizedClientContextSink__ctor_m4129963630
zl:_glGetStringi
c0h:_DecoderExceptionFallback_CreateFallbackBuffer_m1133375601
smm:__ZNK15dense_hashtableI10KeyWrapperIP18Il2CppGenericClassES3_N6il2cpp8metadata22Il2CppGenericClassHashEN14dense_hash_setIS3_S6_NS3_14EqualsComparerINS5_25Il2CppGenericClassCompareEEENSt3__29allocatorIS3_EEE8IdentityESA_SD_E10test_emptyERK30dense_hashtable_const_iteratorIS3_S3_S6_SF_SA_SD_E
M4g:_Enumerator_get_CurrentKey_m889650866_gshared
c7d:__ZN5physx22NpParticleBaseTemplateINS_15PxParticleFluidENS_15NpParticleFluidEE14setRestitutionEf
Ilb:__ZN18StreamedBinaryReadILb0EE21TransferSTLStyleArrayI13dynamic_arrayI8Vector4fLj4EEEEvRT_17TransferMetaFlags
P2g:_Comparer_1_get_Default_m1513846993_gshared
iPl:_Physics_Raycast_m3133704280
dMe:__ZThn8_N5physx2Gu10ConvexMeshD0Ev
QGh:_EncryptedData_get_EncryptionAlgorithm_m1297902161
ihk:__ZL67OptionDataList_t1438173104_CustomAttributesCacheGenerator_m_OptionsP21CustomAttributesCache
Cqe:__ZNK5physx2Sq12BucketPruner7raycastERKNS_6PxVec3ES4_RfRNS0_14PrunerCallbackE
VK:__ZN8Animator9WriteStepEy
kd:invoke_viiiiifffi
$2:__ZN11UnityEngine15CloudWebService20WebRequestRestClient18GetResponseHeadersEv
mqc:__ZN16PropertyAccessorC2Ev
zib:__ZNSt3__23mapIN4core12basic_stringIcNS1_20StringStorageDefaultIcEEEE9PrefValueNS_4lessIS5_EENS_9allocatorINS_4pairIKS5_S6_EEEEEixERSB_
jOb:__Z35Transfer_Blittable_FixedBufferFieldI18StreamedBinaryReadILb1EEaEvRK29SerializationCommandArgumentsR31RuntimeSerializationCommandInfo
Ipc:__ZN15DirectorManager22ConstructPlayableGraphEv
fjk:__ZL65Scrollbar_t1494447233_CustomAttributesCacheGenerator_m_HandleRectP21CustomAttributesCache
Rib:__ZN13ScreenManager16SetScreenTimeoutEi
rIb:__Z18Transfer_BlittableI17RemapPPtrTransferLb0EdEvRK29SerializationCommandArgumentsR31RuntimeSerializationCommandInfo
qBk:_Collection_1_ConvertItem_m1743542180_gshared
$Se:__ZN4PPtrI9RigidbodyE8TransferI18StreamedBinaryReadILb0EEEEvRT_
ahf:__Z38Register_UnityEngine_Font_HasCharacterv
bCj:__Z68RuntimeInvoker_Boolean_t97287965_Int16_t2552820387_Int16_t2552820387PFvvEPK10MethodInfoPvPS4_
W9b:__Z35IntersectSpherePlaneBoundsOptimizedRKN4math7_float4EPS1_i
xSh:_RNGCryptoServiceProvider__cctor_m3587754670
VFd:__ZN5physx2Sc8ShapeSim20createLowLevelVolumeEjRKNS_9PxBounds3EjNS_9AABBMgrIdE
KVg:_InternalEnumerator_1_MoveNext_m1728532725_AdjustorThunk
Pll:_X509Crl_get_IssuerName_m1792797338
l$k:_List_1_get_Count_m241572196_gshared
x4c:__ZN37InheritVelocityModulePropertyBindings13GetFloatValueERK14ParticleSystemi
gpm:__ZN6il2cpp2os5posix15PosixWaitObject13InterruptWaitEv
A2d:__ZNK5physx7NpCloth22getAngularInertiaScaleEv
Aw:__ZN7mecanim6memory16ChainedAllocator10DeallocateEPv
nzd:__ZN26IntersectAnyVsMeshCallbackILi1ELb1EE10processHitERKN5physx12PxRaycastHitERKNS1_6PxVec3ES7_S7_RfPKj
eoa:__Z22CleanupLODGroupManagerPv
RJc:__Z21Event_CUSTOM_PopEventP12Il2CppObject
im:_glUniform3fv
ABm:__ZNK6il2cpp8metadata24Il2CppGenericInstCompareclERK10KeyWrapperIPK17Il2CppGenericInstES8_
sub:__ZNSt3__218__insertion_sort_3IRN15ResourceManager10Dependency6SorterEPS2_EEvT0_S6_T_
PNh:_X509ChainElement_Set_m655180762
aSl:_CustomEventData_AddInt32_m548429697
nuc:__ZNK8Gradient19InitializeOptimizedER17OptimizedGradient
Voi:_MonoBehaviour_StopCoroutine_m615723318
Ari:_Quaternion_GetHashCode_m2636680144
K4b:__ZNK16LightmapSettings31GetRealtimeLightmapDecodeValuesEv
pW:__ZN5audio5mixer12SetSuspendedERNS0_16AudioMixerMemoryEb
myb:__ZN17PersistentManager21UnloadNonDirtyStreamsEv
CSe:__ZN8Collider12ScaleChangedEv
Rok:__ZL177U3CFOVKickDownU3Ec__Iterator1_t1440840980_CustomAttributesCacheGenerator_U3CFOVKickDownU3Ec__Iterator1_System_Collections_Generic_IEnumeratorU3CobjectU3E_get_Current_m4278037742P21CustomAttributesCache
b3j:__ZL81Transform_t3600365921_CustomAttributesCacheGenerator_Transform_LookAt_m3649447396P21CustomAttributesCache
ohj:__Z96RuntimeInvoker_Int32_t2950945753_RuntimeObject_Int32_t2950945753_RuntimeObject_Int32_t2950945753PFvvEPK10MethodInfoPvPS4_
eCl:_AnalyticsEventTracker_OnEnable_m1121905268
Prl:_Uri_get_Parser_m3737125102
dMl:_Canvas_get_overrideSorting_m2740418462
Nii:_Debug_LogFormat_m309087137
Ksi:_Rect_set_xMin_m2413290617_AdjustorThunk
Plb:__ZN12ImageFilters4BlitER17ShaderPassContextP7TextureP13RenderTextureiPK18SharedMaterialDataPKcP6ShaderiNS_9BlitFlagsE11CubemapFaceRK8Vector2fSH_
mYe:__ZN5physx6shdfnd8PoolBaseINS_24NpPtrTableStorageManager8PtrBlockILi4EEENS0_19ReflectionAllocatorIS4_EEE12allocateSlabEv
Dml:_Mark_get_Index_m3048692661
Lkk:__ZL69CanvasScaler_t2767979955_CustomAttributesCacheGenerator_m_ScaleFactorP21CustomAttributesCache
pYi:_Dictionary_2_ToTValue_m692436965_gshared
P2:__ZN11UnityEngine15CloudWebService10RestClientINS0_23WebRequestRestHeaderMapEED2Ev
eJe:__ZN5physx2Sc5Scene13ccdBroadPhaseEPNS_10PxBaseTaskE
Fm:_emscripten_glDepthMask
UAe:__ZN5physx2Gu24PCMMeshContactGeneration15processContactsEhb
Ejh:_RemotingServices_CreateClientProxy_m3886727610
wJa:__ZN4crnd25static_huffman_data_model22prepare_decoder_tablesEv
l2d:__ZN5physx7NpCloth12setParticlesEPKNS_15PxClothParticleES3_
ogb:__ZN9Texture2D23VirtualRedirectTransferER17RemapPPtrTransfer
glc:__ZN16ReflectionProbesD2Ev
eii:_Component_BroadcastMessage_m2662892479
xfi:_AssetBundleRequest_t699759206_marshal_pinvoke
k0i:_DefaultComparer__ctor_m1292755885_gshared
mNg:_RecordProtocol_GetMessage_m2086135164
QIc:__Z23GUIStatePopDisplayIndexv
sQb:__Z18Transfer_BlittableI18StreamedBinaryReadILb0EELb0E10ColorRGBAfEvRK29SerializationCommandArgumentsR31RuntimeSerializationCommandInfo
Moa:__Znaj
pTm:_emscripten_glEnableClientState__wrapper
N5j:__ZL60PlayableBehaviour_t4203540982_CustomAttributesCacheGeneratorP21CustomAttributesCache
ula:__ZN17MessageIdentifierC2EPKcNS_7OptionsEPKN5Unity4TypeES1_
naj:__Z45RuntimeInvoker_Void_t1185182177_RuntimeObjectPFvvEPK10MethodInfoPvPS4_
tkb:__ZN13dynamic_arrayI4PPtrI6SpriteELj4EE9push_backERKS2_
Koi:_Mesh_SetTriangles_m1523451247
GYh:_Single_System_IConvertible_ToSByte_m1208276900
esk:_Array_InternalArray__set_Item_TisVector4_t3319028937_m757305038_gshared
N1a:__ZN11GameManager15ThreadedCleanupEv
Hfj:__Z105RuntimeInvoker_Void_t1185182177_RuntimeObject_RuntimeObject_RuntimeObject_RuntimeObject_Int32_t2950945753PFvvEPK10MethodInfoPvPS4_
hve:__ZN5physxL26solveFriction4_StaticBlockEPKNS_23PxcSolverConstraintDescERNS_16PxcSolverContextE
Iaj:__Z64RuntimeInvoker_RuntimeObject_Int16_t2552820387_Int16_t2552820387PFvvEPK10MethodInfoPvPS4_
Z$:__Z55Register_UnityEngine_AudioSource_get_spatializeInternalv
Ank:__ZL71TrackableTrigger_t621205209_CustomAttributesCacheGenerator_m_MethodPathP21CustomAttributesCache
MWa:__ZN14SafeBinaryRead8TransferI14ConstantStringEEvRT_PKc17TransferMetaFlags
Nze:__ZN5physx30PxcGetMaterialShapeHeightFieldEPKNS_12PxsShapeCoreES2_RNS_18PxcNpThreadContextEPNS_15PxsMaterialInfoE
o$b:__ZNK6Camera16GetStereoEnabledEv
IXj:__ZL90HttpWebRequest_t1669436515_CustomAttributesCacheGenerator_HttpWebRequest__ctor_m1789065007P21CustomAttributesCache
pkj:__Z72RuntimeInvoker_Int32_t2950945753_TimeSpan_t881159249_TimeSpan_t881159249PFvvEPK10MethodInfoPvPS4_
NNg:_SendRecordAsyncResult_SetComplete_m153213906
sA:__ZN13AnimationClip9PPtrCurveaSERKS0_
pza:__ZL24FindBelongingStructParamRPKcRNSt3__26vectorIN9ShaderLab20SerializedSubProgram14ConstantBufferENS2_9allocatorIS6_EEEE
Slc:__ZN12LightManager15InitializeClassEv
PJe:__ZN5physx6shdfnd8PoolBaseINS_2Sc19ParticlePacketShapeENS0_19ReflectionAllocatorIS3_EEE12allocateSlabEv
Mbb:__ZN9ShaderLab11shaderprops16GetComputeBufferEPK19ShaderPropertySheetS3_NS_16FastPropertyNameE
Dtm:__ZN6il2cpp6icalls8mscorlib6System10Reflection10MethodBase31GetMethodFromHandleInternalTypeEii
saa:__ZN18ScriptingArgumentsC2Ev
vgi:_Vector3_op_Equality_m4231250055
xYi:_Dictionary_2_System_Collections_IDictionary_get_Item_m1524611028_gshared
tbe:__ZNK5physx15NpActorTemplateINS_14PxRigidDynamicEE14getOwnerClientEv
pOm:_emscripten_glBlendFuncSeparate__wrapper
L8j:__ZL68GUISettings_t1774757634_CustomAttributesCacheGenerator_m_CursorColorP21CustomAttributesCache
Apg:_FileSystemInfo__ctor_m3769019897
mxk:_Array_InternalArray__get_Item_TisContentType_t1787303396_m421427711_gshared
Jsi:_Rect_get_xMin_m581135837_AdjustorThunk
zGa:__Z17HasSampledTexture14GraphicsFormat13formatSupport
D0b:__ZNK25CameraStackRenderingState27GetStereoImageEffectTextureEb
tCg:_HMACSHA384__ctor_m1677515580
tSh:_RIPEMD160Managed_J_m1336489154
fr:__ZN8Vector3f8TransferI14SafeBinaryReadEEvRT_
T$l:__ZN6il2cpp6icalls6System6System3Net7Sockets6Socket7ReceiveEiP11Il2CppArrayiiNS4_11SocketFlagsEPi
Kuc:__ZN13BuildSettings13GetSceneIndexERKN4core12basic_stringIcNS0_20StringStorageDefaultIcEEEE
_p:FUNCTION_TABLE_ii
G1a:__ZN10TagManager8TransferI18StreamedBinaryReadILb0EEEEvRT_
DEk:_Collection_1_System_Collections_IList_get_IsReadOnly_m2202364665_gshared
qNc:__Z18Transfer_BlittableI9JSONWriteLb0E8BitFieldEvRK29SerializationCommandArgumentsR31RuntimeSerializationCommandInfo
yrg:_MemoryStream_set_Capacity_m1773624579
kem:__ZNK15dense_hashtableINSt3__24pairIK10KeyWrapperINS1_IP11Il2CppClassjEEES4_EES6_N6il2cpp8metadata14ArrayClassHashEN14dense_hash_mapIS6_S4_SB_NS6_14EqualsComparerINSA_17ArrayClassCompareEEENS0_9allocatorIS8_EEE9SelectKeyESF_SH_E10test_emptyEj
Oyh:_SpriteState_set_pressedSprite_m3368686500_AdjustorThunk
zua:__ZNSt3__26vectorIN9ShaderLab20SerializedSubProgram15StructParameterENS_9allocatorIS3_EEE8__appendEj
Ub:invoke_diiii
N1h:_DateTime_ToString_m2992030064
syd:__ZL17sweepVolumeVsMeshPKN5physx3Cct9SweepTestEPKNS0_11TouchedMeshERNS0_12SweptContactERKNS_6PxVec3ERKNS_10PxGeometryERKNS_11PxTransformEjPKNS_10PxTriangleEj
BMm:b46
umj:__Z95RuntimeInvoker_Void_t1185182177_RuntimeObject_RuntimeObject_SByte_t1669577662_SByte_t1669577662PFvvEPK10MethodInfoPvPS4_
QXd:__ZNK5physx12NpBatchQuery19getFilterShaderDataEv
gEe:__ZN5physx2Gu31checkOverlapOBB_heightFieldGeomERKNS_10PxGeometryERKNS_11PxTransformERKNS0_3BoxE
kYa:__Z24CreateDirectoryRecursiveRKN4core12basic_stringIcNS_20StringStorageDefaultIcEEEE
wMm:b41
Vwa:__ZN9ShaderLab20SerializedSubProgram8TransferI18StreamedBinaryReadILb0EEEEvRT_
EOg:_SslClientStream_get_HaveRemoteValidation2Callback_m2858953511
vMm:b40
Rra:__ZN19ThreadSpecificValueIP14StackAllocatorE15ReinitializeTLSEPv
ird:__ZN5physx2Gu23findRotationMatrixFromZERKNS_6PxVec3E
D8b:__Z9EndJobSetR8JobFence11JobPriority
CD:__ZN26AnimatorControllerPlayable13GenerateGraphEv
Wka:__ZN13RuntimeStaticI21ScalableBufferManagerLb0EE13StaticDestroyEPv
Ihf:__ZN2UI13CanvasManager9AddCanvasEPNS_6CanvasE
Glb:__ZN9Texture3D8TransferI19StreamedBinaryWriteILb0EEEEvRT_
g1b:__ZNK6Camera22CalculateRenderingPathEv
KOc:__ZN9JSONWrite8TransferI5RectTIfEEEvRT_PKc17TransferMetaFlags
s2f:_Hashtable_TestPrime_m3839319309
Fke:__ZN5physx13NpVolumeCache10invalidateEv
EM:__ZN11UnityEngine9Animation37SetGenericRootTransformPropertyValuesERKNS0_30AnimatorGenericBindingConstantERKN7mecanim10ValueArrayER9Transformbb
JPa:__Z13ConvertMipmap14GraphicsFormatPKvS_Pviiii
kxf:_BaseRaycaster_get_renderOrderPriority_m1110184610
lHh:_PKCS12_get_IterationCount_m626423090
Jt:__ZN15SerializeTraitsIKN4math7_float4EE8TransferI14SafeBinaryReadEEvRS2_RT_
wIb:__ZL12InvokeMethodI17RemapPPtrTransferEvRK29SerializationCommandArgumentsR31RuntimeSerializationCommandInfo
wJh:_RemoteCertificateValidationCallback_Invoke_m3086073466
xfl:_U3CFOVKickUpU3Ec__Iterator0_System_Collections_Generic_IEnumeratorU3CobjectU3E_get_Current_m940165189
C$h:_StringComparer_Compare_m991165676
y7e:_tt_sbit_decoder_load_image
MSg:_InternalEnumerator_1_MoveNext_m3299696349_AdjustorThunk
_dd:__ZN15b2DistanceJointD0Ev
Sem:__ZN15dense_hashtableINSt3__24pairIK10KeyWrapperIP11Il2CppClassES4_EES5_N6il2cpp8metadata16SZArrayClassHashEN14dense_hash_mapIS5_S4_SA_NS5_14EqualsComparerINS9_19SZArrayClassCompareEEENS0_9allocatorIS7_EEE9SelectKeyESE_SG_EC2EjRKSA_RKSE_RKSI_
R6d:__ZN5physx22NpParticleBaseTemplateINS_15PxParticleFluidENS_15NpParticleFluidEE12setPositionsEjRKNS_16PxStrideIteratorIKjEERKNS4_IKNS_6PxVec3EEE
Jwl:_U3CStartU3Ec__Iterator0_Dispose_m261027331_gshared
IQa:__ZN4core8hash_mapIPK17RenderSurfaceBaseP13RenderTexture19PointerHashFunctionIS3_ENSt3__28equal_toIS3_EEE6insertERKNS8_4pairIKS3_S5_EE
KIc:__ZNSt3__24listIN10GUIManager12SortedScriptE11memory_poolIS2_EE6__sortI13OldSortScriptEENS_15__list_iteratorIS2_PvEESA_SA_jRT_
y4i:_EqualityComparer_1_System_Collections_IEqualityComparer_GetHashCode_m2588073987_gshared
uGd:__ZN5physx6shdfnd5ArrayIPvNS0_19ReflectionAllocatorINS_2Sc10NPhaseCore16ClothListElementEEEE15growAndPushBackERKS2_
wkj:__Z67RuntimeInvoker_Boolean_t97287965_DateTime_t3738529785_RuntimeObjectPFvvEPK10MethodInfoPvPS4_
H0k:_List_1_AddEnumerable_m3500350831_gshared
R_l:__ZN24dense_hashtable_iteratorINSt3__24pairIK10KeyWrapperIPK11Il2CppClassEPKcEES6_N6il2cpp5utils11PointerHashIS3_EEN14dense_hash_mapIS6_S9_SE_NS6_14EqualsComparerINS0_8equal_toIS5_EEEENS0_9allocatorISA_EEE9SelectKeyESJ_SL_E30advance_past_empty_and_deletedEv
lHg:_PrivateKeyInfo_get_PrivateKey_m3647771102
frf:__ZN18UnityConnectClient12CloseServiceEv
VB:__ZN13AnimationClip8TransferI17RemapPPtrTransferEEvRT_
$Hb:__Z18Transfer_BlittableI17RemapPPtrTransferLb1E8BitFieldEvRK29SerializationCommandArgumentsR31RuntimeSerializationCommandInfo
hhm:__ZN6il2cpp6icalls8mscorlib6System9ThreadingL11ThreadStartEPv
Xak:__ZL105Physics2D_t1528932956_CustomAttributesCacheGenerator_Physics2D_OverlapCircleAll_m1634860779____layerMask2P21CustomAttributesCache
Eqa:__ZN15DirectorManager12OnSampleTimeEv
qGi:_Array_InternalArray__IndexOf_TisMark_t3471605523_m2905388260_gshared
dTf:_TypeBuilder_check_not_created_m3652863637
jBf:_StandaloneInputModule_UpdateModule_m450861257
UKl:_Font_add_textureRebuilt_m2164317336
KRk:_ReadOnlyCollection_1_System_Collections_IList_Insert_m2928873627_gshared
FW:__ZNK4PPtrI10AudioMixerEptEv
Q3i:_EqualityComparer_1__cctor_m314889309_gshared
Rha:__ZN12CachedReader10Align4ReadEv
afd:__ZN15b2WorldManifold10InitializeEPK10b2ManifoldRK11b2TransformfS5_f
V0i:_DefaultComparer_GetHashCode_m556015105_gshared
Bkl:_X501__cctor_m2428304915
cMl:_Canvas_get_renderOrder_m1489855841
uA:__Z14resize_trimmedINSt3__26vectorIN13AnimationClip10FloatCurveE13stl_allocatorIS3_L18MemLabelIdentifier26ELi16EEEEEvRT_j
fbj:__Z50RuntimeInvoker_Void_t1185182177_Single_t1397266774PFvvEPK10MethodInfoPvPS4_
wek:__ZL77ExecuteEvents_t3484638744_CustomAttributesCacheGenerator_U3CU3Ef__mgU24cache1P21CustomAttributesCache
fyl:_Event_ToString_m1688862299
qlj:__Z70RuntimeInvoker_Boolean_t97287965_RuntimeObject_IPAddressU26_t589322682PFvvEPK10MethodInfoPvPS4_
Prj:__Z105RuntimeInvoker_Void_t1185182177_Vector2U26_t2376273893_RuntimeObject_RuntimeObject_Vector2U26_t2376273893PFvvEPK10MethodInfoPvPS4_
NVa:__ZNK9Behaviour22GetTypeVirtualInternalEv
jZd:__ZN5physx2Sc14ConstraintCore13setBreakForceEff
lbi:_CCGregorianCalendar_month_from_fixed_m4268992710
ZEi:_Array_compare_TisUICharInfo_t75501106_m1310495481_gshared
Jjc:__ZNK28MonoBehaviourPropertyBinding12SetPPtrValueERKN11UnityEngine9Animation10BoundCurveEi
Gac:__Z21GetScriptingArraySize17ScriptingArrayPtr
Mcf:__ZN20TextRenderingPrivate8FontImpl8TransferI14SafeBinaryReadEEvRT_
w9c:__ZNSt3__27__sort4IRN10vector_mapIi22ParticleModulePropertyNS_4lessIiEENS_9allocatorINS_4pairIiS2_EEEEE13value_compareEPS7_EEjT0_SD_SD_SD_T_
D6j:__ZL49GUIText_t402233326_CustomAttributesCacheGeneratorP21CustomAttributesCache
WIj:__ZL55ISymbolWriter_t780458634_CustomAttributesCacheGeneratorP21CustomAttributesCache
Rhe:__ZN5physx7NpScene15removeAggregateERNS_11PxAggregateEb
AJc:__ZN11IMGUIModule21ClearDeveloperConsoleEv
o6j:__ZL81MessageTypeSubscribers_t1684935770_CustomAttributesCacheGenerator_m_messageTypeIdP21CustomAttributesCache
ZPk:_ReadOnlyCollection_1_System_Collections_IList_Clear_m4022532825_gshared
RKi:_Encoding_get_ASCII_m3595602635
k_e:__ZZN14PhysicsManager15InitializeClassEvEN63EarlyUpdatePhysicsResetInterpolatedTransformPositionRegistrator7ForwardEv
B$c:__ZN11ShapeModule18MultiModeParameterIN25IParticleSystemProperties8PropertyIfNS1_11ClampRadiusEEEE8TransferI14SafeBinaryReadEEvRT_
oDa:__ZN9GfxDevice17ImmediateTexCoordEifff
Dxi:_Transform_Translate_m1990195114
bcf:_ft_black_new
ykd:__ZN10ClipperLib7Clipper13AppendPolygonEPNS_5TEdgeES2_
UPf:_DerivedType_GetCustomAttributes_m3536779709
xHl:__ZL24UnresolvedVirtualCall_72P12Il2CppObjectPK10MethodInfo
hEd:__ZNK5physx3Ext5JointINS_15PxDistanceJointENS_30PxDistanceJointGeneratedValuesEE12getLocalPoseENS_17PxJointActorIndex4EnumE
tSj:__ZL93Interlocked_t2273387594_CustomAttributesCacheGenerator_Interlocked_CompareExchange_m388540288P21CustomAttributesCache
fUf:_MethodBase_get_IsAbstract_m428833029
S4f:_AssemblyLoadEventHandler__ctor_m896828968
ZIb:__Z35Transfer_Blittable_FixedBufferFieldI24GenerateTypeTreeTransferhEvRK29SerializationCommandArgumentsR31RuntimeSerializationCommandInfo
F_l:__ZN6il2cpp2vm13MetadataCache25GetMethodGenericContainerEPK10MethodInfo
iMm:_emscripten_glUniform4f__wrapper
b0k:_List_1_Reverse_m4144036584_gshared
RWf:_MonoMethod_GetBaseDefinition_m2844667474
fXk:_Enumerator_MoveNext_m2595190390_AdjustorThunk
_wj:__Z117RuntimeInvoker_Int32_t2950945753_RuntimeObject_ParticleCollisionEvent_t4055032941_Int32_t2950945753_Int32_t2950945753PFvvEPK10MethodInfoPvPS4_
hHe:__ZN5physx6shdfnd5ArrayINS_25PxcThresholdStreamElementENS0_19ReflectionAllocatorIS2_EEE8recreateEj
xGi:_Array_InternalArray__IndexOf_TisColor32_t2600501292_m3783551884_gshared
Y7:__ZNK6Camera16GetProjectionFarEv
Bs:__Z24InverseTransformRotationRK23TransformAccessReadOnlyRKN4math7_float4E
Bll:_X509Chain_Build_m2469702749
KWh:_Evidence_get_IsSynchronized_m3446368195
b9k:_List_1_System_Collections_IList_get_Item_m2010200267_gshared
uX:__ZN11AudioSource6UpdateEv
cvl:_UnityAction_2_BeginInvoke_m1733258791_gshared
Fxh:_Selectable_OnPointerEnter_m3378734298
Vtf:__Z31GetPerformanceReportingSettingsv
Qdb:__ZNK14PlayableOutput11DerivesFromE17ScriptingClassPtr
bfb:__ZN7Texture34CreateFileTextureUploadInstructionE18TextureUploadFlagsj
wRa:__ZN13ComputeShader14SetBufferParamEjRKN9ShaderLab16FastPropertyNameE15ComputeBufferID
O6a:__ZThn280_N31CanvasBatchIntermediateRenderer20OnAssetBoundsChangedEv
B3d:__ZN5physx7NpCloth21setCollisionMassScaleEf
vEe:__ZN5physx6shdfnd5ArrayINS_7PxPlaneENS0_19ReflectionAllocatorIS2_EEE8recreateEj
V_e:__ZN13PhysicsModule17GetRigidBodyStateERK9RigidbodyPN8IPhysics14RigidBodyStateE
bTf:_TypeBuilder_DefineConstructor_m2989882735
R_a:__ZN25SingleBlockMemoryFileDataC2E10MemLabelIdPvjb
K9j:__ZL59GUISkin_t1244372282_CustomAttributesCacheGenerator_m_toggleP21CustomAttributesCache
ojc:__ZN19LowerResBlitTexture13ApplySettingsEv
rbm:__ZN15dense_hashtableINSt3__24pairIK10KeyWrapperINS1_IPK11Il2CppImageP11Il2CppClassEEEjEES9_17ReflectionMapHashIS8_EN14dense_hash_mapIS9_jSD_NS9_14EqualsComparerINS0_8equal_toIS8_EEEENS0_9allocatorISB_EEE9SelectKeyESI_SK_E15set_deleted_keyERKSB_
pdf:__ZN18StreamedBinaryReadILb0EE21TransferSTLStyleArrayI10vector_mapINSt3__24pairIttEEfN20TextRenderingPrivate8FontImpl14KerningCompareENS3_9allocatorINS4_IS5_fEEEEEEEvRT_17TransferMetaFlags
Cem:__ZN15dense_hashtableINSt3__24pairIK10KeyWrapperIP11Il2CppClassES4_EES5_N6il2cpp8metadata16SZArrayClassHashEN14dense_hash_mapIS5_S4_SA_NS5_14EqualsComparerINS9_19SZArrayClassCompareEEENS0_9allocatorIS7_EEE9SelectKeyESE_SG_E4swapERSJ_
c0a:__ZN17GlobalGameManager23VirtualRedirectTransferER18StreamedBinaryReadILb0EE
z8d:__ZN5physx2Sc17ParticleSystemSim7releaseEb
Tfd:__ZNK14b2CapsuleShape5CloneEP16b2BlockAllocator
rE:__ZN17AnimationPlayable34CollectAnimatorControllerPlayablesER13dynamic_arrayIP26AnimatorControllerPlayableLj4EE
u6j:__ZL120RenderPipelineManager_t4036911426_CustomAttributesCacheGenerator_RenderPipelineManager_DoRenderLoop_Internal_m3799666479P21CustomAttributesCache
o_:__ZN16BaseVideoTexture19UpdateVideoTexturesEv
FWf:_MonoField_GetValue_m3124733531
W5a:__Z28BuildSingleStreamChannelInfo17ShaderChannelMaskRK20VertexChannelsLayoutS_S2_P11ChannelInfo
hEi:_Array_InternalArray__IEnumerable_GetEnumerator_TisOrderBlock_t1585977831_m2414028303_gshared
qha:__ZNK16LightmapSettings23HasLightProbeTetrahedraEv
KVc:__ZNK18ColorBySpeedModule12UpdateSingleERK22ParticleSystemParticleR11ColorRGBA32
kjb:__ZN6Sprite23VirtualRedirectTransferER19StreamedBinaryWriteILb0EE
nai:_Enum_GetHashCode_m2848082716
gFc:__Z38Transform_CUSTOM_INTERNAL_set_positionP12Il2CppObjectRK8Vector3f
Wxf:_EventTrigger_Execute_m2453060771
SSk:_Comparison_1_Invoke_m517083441_gshared
mqi:_PlayableBehaviour__ctor_m3891915003
ehl:_WaypointProgressTracker_get_targetPoint_m2274041596
Cza:__ZNK9ShaderLab7Program19HasMatchingVariantsERK13dynamic_arrayI16ShaderKeywordSetLj4EE
rNk:_ReadOnlyCollection_1_System_Collections_IList_get_IsFixedSize_m3402868227_gshared
IL:__ZN15SerializeTraitsIN4math4trsXEE8TransferI8BlobSizeEEvRS1_RT_
iHa:__ZN14DataBufferGLES11CopySubDataEPKS_jjj
$e:_emscripten_glVertexPointer
Kjf:__ZN2UI13PrepareOutputERNS_7BatchesEjjNS_30AdditionalCanvasShaderChannelsE
U2l:__ZN6il2cpp2vm7Runtime47RaiseExecutionEngineExceptionIfMethodIsNotFoundEPK10MethodInfo
jnl:_PatternCompiler_GetMachineFactory_m3758869886
C6b:__Z17GetFrustumPortionPK8Vector3fffPS_
iJd:__ZNK5physx2Gu22SupportMapRelativeImplINS0_4BoxVEE18doWarmStartSupportEiRNS_6shdfnd3aos5Vec3VE
q3j:__ZL105RectTransform_t3704657025_CustomAttributesCacheGenerator_RectTransform_INTERNAL_get_anchorMin_m1735215721P21CustomAttributesCache
Vjm:__ZN15dense_hashtableINSt3__24pairIK10KeyWrapperIP14Il2CppIUnknownEjEES5_N6il2cpp5utils11PointerHashIS3_EEN14dense_hash_mapIS5_jSB_NS5_14EqualsComparerINS0_8equal_toIS4_EEEENS0_9allocatorIS7_EEE9SelectKeyESG_SI_E14squash_deletedEv
e7a:__ZN5Light13AwakeFromLoadE17AwakeFromLoadMode
lRj:__ZL107CodeAccessPermission_t2681295399_CustomAttributesCacheGenerator_CodeAccessPermission_GetHashCode_m880096813P21CustomAttributesCache
rzl:_GUILayoutEntry_ApplyOptions_m1741659338
uNf:_Default_check_arguments_m3882727959
egh:_MethodDictionary_set_MethodKeys_m1451825752
Zyg:_RuntimeTypeHandle_Equals_m2857439487_AdjustorThunk
BEk:_Collection_1_System_Collections_ICollection_get_SyncRoot_m1659213062_gshared
fBa:__ZNK9GfxDevice27GetPlatformAdjustedViewportEv
CMk:_ReadOnlyCollection_1_System_Collections_Generic_IListU3CTU3E_set_Item_m88350439_gshared
y4c:__ZN37InheritVelocityModulePropertyBindings13SetFloatValueER14ParticleSystemif
OBj:__Z73RuntimeInvoker_KeyValuePair_2_t3842366416_RuntimeObject_SByte_t1669577662PFvvEPK10MethodInfoPvPS4_
eUk:_Func_3_Invoke_m1194147890_gshared
Upl:_Reference_Compile_m4195878675
sPk:_ReadOnlyCollection_1_System_Collections_ICollection_CopyTo_m2672196987_gshared
qqc:__ZN16StreamedResource8TransferI24GenerateTypeTreeTransferEEvRT_
ddd:__ZN11b2GearJoint4DumpEv
Bti:_RectTransform_get_anchorMin_m2928307238
FBd:__ZN5physx3Cct10Controller13onOriginShiftERKNS_6PxVec3E
r9f:_ArrayList__ctor_m3828927650
qFa:__ZThn9568_N13GfxDeviceGLES26EnableScissorRectsPlatformEv
rSa:__ZN10Matrix3x3f15InvertTransposeEv
Dzl:_GUILayoutGroup_SetHorizontal_m996475327
MXh:_SecurityException_get_Demanded_m2500043391
uzl:_GUILayoutEntry__cctor_m663865902
UPh:_CaptureCollection_GetEnumerator_m732412500
F1c:__ZN14EmissionModule8TransferI19StreamedBinaryWriteILb0EEEEvRT_
K_b:__Z11IsBatchmodev
Rte:__ZN5physx2Gu19_gjkRelativeRayCastINS0_9TriangleVENS0_11ConvexHullVEEEbRT_RT0_RKNS_6shdfnd3aos15PsMatTransformVERKNS9_6FloatVERKNS9_5Vec3VESI_RSD_RSG_SK_f
YGb:__Z29Transfer_Blittable_ArrayFieldI14SafeBinaryRead8Vector3fEvRT_R9ArrayInfoRK23StaticTransferFieldInfo
d7j:__ZL87Animation_t3648466861_CustomAttributesCacheGenerator_Animation_Play_m577412913____mode0P21CustomAttributesCache
po:FUNCTION_TABLE_vfii
kPj:__ZL62IFormatterConverter_t2171992254_CustomAttributesCacheGeneratorP21CustomAttributesCache
fUj:__ZL78Convert_t2465617642_CustomAttributesCacheGenerator_Convert_ToSByte_m4075629912P21CustomAttributesCache
Mob:__ZN26SkinnedMeshRendererManager31HandlePreparationBreakingChangeER19SkinnedMeshRenderer
Bdf:__ZN20TextRenderingPrivate8FontImpl18ResetCachedTextureEv
G3k:_List_1_CheckMatch_m3178190260_gshared
k1l:__ZN6il2cpp6icalls8mscorlib6SystemL16GetFieldFromTypeINS_5utils10functional6FilterINSt3__212basic_stringIcNS7_11char_traitsIcEENS7_9allocatorIcEEEENS4_13VmStringUtils21CaseSensitiveComparerEEEEEP21Il2CppReflectionFieldP11Il2CppClassSK_iRKT_
cze:__ZNK5physx19ActorAABBUpdateTask7getNameEv
NLh:_X509KeyUsageExtension_Decode_m3150759625
owm:_GC_print_finalization_stats
x7g:_KeyCollection_System_Collections_ICollection_get_IsSynchronized_m2596089789_gshared
Vza:__ZN11NamedObject15ThreadedCleanupEv
Tcd:__ZNK12b2WheelJoint10GetAnchorBEv
iAl:_GUITargetAttribute_GetGUITargetAttrValue_m2954410352
Ryc:__Z53Register_UnityEngine_Behaviour_get_isActiveAndEnabledv
J4f:_SimpleEnumerator_get_Current_m72361444
Wr:__ZNSt3__26vectorIN4core12basic_stringIcNS1_20StringStorageDefaultIcEEEENS_9allocatorIS5_EEE8__appendEj
D_:__ZN13ProduceHelperI10SampleClipLb0EE7ProduceE10MemLabelId18ObjectCreationMode
Htb:__ZN26PlayerSettingsSplashScreen8TransferI17RemapPPtrTransferEEvRT_
JDh:_ASN1_set_Value_m2803403806
r1l:__ZN6il2cpp6icalls8mscorlib6SystemL17CollectTypeFieldsINS_5utils10functional10TrueFilterEEEvP11Il2CppClassPKS7_iRNSt3__26vectorIP9FieldInfoNSB_9allocatorISE_EEEERKT_
Ebj:__Z52RuntimeInvoker_Int16_t2552820387_Decimal_t2948259380PFvvEPK10MethodInfoPvPS4_
KJd:__ZN5physx3Scb5Scene20addArticulationJointERNS0_17ArticulationJointE
Bie:__ZN5physx7NpScene14resetFilteringERNS_12PxRigidActorEPKPNS_7PxShapeEj
whc:__Z13GetTagManagerv
l2f:_Hashtable__ctor_m1815022027
MNi:_UTF8Encoding_GetChars_m1433288684
tQl:__ZL10roundUp128PyS_
Y0:__ZN11UnityEngine15CloudWebService17CloudJobSchedulerD0Ev
P9i:__Z50RuntimeInvoker_Boolean_t97287965_SByte_t1669577662PFvvEPK10MethodInfoPvPS4_
Nvb:__ZN18LoadSceneOperation7PerformEv
boe:__ZN5physx2Sc5Scene26setSimulationEventCallbackEPNS_25PxSimulationEventCallbackEh
Xwj:__Z105RuntimeInvoker_Int32_t2950945753_RuntimeObject_OrderBlock_t1585977831_Int32_t2950945753_Int32_t2950945753PFvvEPK10MethodInfoPvPS4_
uRi:_TimeZone_ToUniversalTime_m2789507578
bbj:__Z96RuntimeInvoker_Boolean_t97287965_RuntimeObject_RuntimeObject_Int32_t2950945753_Int32_t2950945753PFvvEPK10MethodInfoPvPS4_
BFi:_Array_IndexOf_TisUICharInfo_t75501106_m3198896198_gshared
eif:__ZNK2UI11CanvasGroup22GetTypeVirtualInternalEv
FLg:_Context_get_Current_m2853615040
Lqd:__ZL30GeomMTDCallback_CapsuleCapsuleRN5physx6PxVec3ERfRKNS_10PxGeometryERKNS_11PxTransformES5_S8_
fje:__ZN5physx7NpScene23forceDynamicTreeRebuildEbb
wkd:__ZN10ClipperLib7Clipper14IntersectEdgesEPNS_5TEdgeES2_RNS_8IntPointE
azd:__ZL18intersectAnyVsMeshILi0EEbPKN5physx2Gu6SphereEPKNS1_7CapsuleEPKNS1_3BoxERKNS1_13RTreeMidphaseERKNS0_11PxTransformERKNS0_11PxMeshScaleEP14LimitedResults
Kci:_CultureInfo_construct_internal_locale_from_lcid_m2668301444
mDh:_PrimeGeneratorBase__ctor_m2973488305
cJc:__Z21CleanupGlobalGUIStatev
ySi:_Type_IsContextfulImpl_m3693603908
LFj:__ZL81RuntimeArray_CustomAttributesCacheGenerator_Array_GetValue_m120423883____indices0P21CustomAttributesCache
v8j:__ZL79Event_t2956885303_CustomAttributesCacheGenerator_Event_get_modifiers_m995073384P21CustomAttributesCache
LC:__ZN19StreamedBinaryWriteILb0EE21TransferSTLStyleArrayI22OffsetPtrArrayTransferIN7mecanim9animation10ValueDeltaEEEEvRT_17TransferMetaFlags
AQd:__ZN5physx14NpArticulation6wakeUpEv
Prc:__ZNSt3__26vectorI14SubstanceInputNS_9allocatorIS1_EEE6assignIPS1_EENS_9enable_ifIXaasr21__is_forward_iteratorIT_EE5valuesr16is_constructibleIS1_NS_15iterator_traitsIS8_E9referenceEEE5valueEvE4typeES8_S8_
O8i:__Z56RuntimeInvoker_RuntimeObject_RuntimeObject_RuntimeObjectPFvvEPK10MethodInfoPvPS4_
QTa:__ZN22VertexDeclarationCache5ClearEv
EAg:_CspParameters__ctor_m3852972821
x2f:_AppDomainInitializer_EndInvoke_m2095010821
Hdc:__ZN17PersistentManager12SetPathRemapERKN4core12basic_stringIcNS0_20StringStorageDefaultIcEEEES6_
WG:__Z27ProcessRootMotionEmptyMixerP35AnimationPlayableEvaluationConstantP32AnimationPlayableEvaluationInputP33AnimationPlayableEvaluationOutput
d8b:__ZN6Camera24PrepareCullingParametersERK23CameraCullingParameters13RenderingPathR11CullResults
Qtc:__Z12SetIUISystemP9IUISystem
_vb:__ZN19RuntimeSceneManager22EndIntegrateMainThreadEP10UnitySceneNS_11LoadingModeE
Xtk:_Array_Sort_TisUICharInfo_t75501106_m3474449559_gshared
mpi:__ZN21InterfaceFuncInvoker0IP34MessageTypeSubscribers_t1684935770E6InvokeEjP11Il2CppClassP12Il2CppObject
yIb:__Z26Transfer_UnityEngineObjectI17RemapPPtrTransferLb0EEvRK29SerializationCommandArgumentsR31RuntimeSerializationCommandInfo
Szb:__ZN17WeakPtrSharedDataD0Ev
gol:_QuickSearch_GetShiftDistance_m2542665852
bFa:__ZN13GfxDeviceGLES15OnDeviceCreatedEb
vmb:__Z32TransferEnumWithNameForceIntSizeI14SafeBinaryRead11IndexFormatEvRT_RT0_PKc17TransferMetaFlags
pck:__ZL85Joint_t1358886274_CustomAttributesCacheGenerator_Joint_INTERNAL_set_anchor_m762722954P21CustomAttributesCache
Jwk:_Array_InternalArray__get_Item_TisCustomAttributeTypedArgument_t2723150157_m2639399822_gshared
_Bh:_BigInteger_GenerateRandom_m3141592944
TKb:__Z29Transfer_Blittable_ArrayFieldI24GenerateTypeTreeTransfer4AABBEvRT_R9ArrayInfoRK23StaticTransferFieldInfo
oEd:__ZN5physx3Ext5JointINS_15PxDistanceJointENS_30PxDistanceJointGeneratedValuesEE17setConstraintFlagENS_16PxConstraintFlag4EnumEb
DRh:_Interval_Contains_m1454846757
CIf:_Graphic_CacheCanvas_m1120385152
r0g:_InternalEnumerator_1_MoveNext_m1262906009_gshared
xHf:_U3CDelayedDestroyDropdownListU3Ec__Iterator0_Dispose_m100123149
cNe:__ZN5physx20InternalTriangleMesh16allocateVerticesEj
bne:__ZN5physx2Sc16InteractionScene18releaseConstraintsEb
WYc:__Z15GetPositionMeshIL20MeshDistributionMode1ELb0E11ColorRGBA32EvRN4math8floatNx3ES4_RNS2_4pix4ERK13dynamic_arrayIS1_Lj4EERK14StrideIteratorI8Vector3fESF_RKSB_IT1_ERKS7_I16MeshTriangleDataLj4EERKS7_I11MeshAreaLUTLj4EERKfRKiST_R5RandNP12SkinMeshInfo
qdd:__ZN13b2PulleyJoint24SolveVelocityConstraintsERK12b2SolverData
kxe:__ZN5physx6shdfnd5ArrayINS_17PxcBroadPhasePairENS0_19ReflectionAllocatorIS2_EEE8recreateEj
eDm:_emscripten_GetProcAddress
DYk:_List_1_System_Collections_Generic_IEnumerableU3CTU3E_GetEnumerator_m944444416_gshared
Oa:invoke_fiiifii
AEm:_modff
mxd:__ZThn4_N16RayRTreeCallbackILi1ELb0EED1Ev
vXe:__ZN5physx7profile11EventBufferINS_24PxDefaultContextProviderENS_6shdfnd6MutexTINS0_26WrapperReflectionAllocatorIhEEEENS0_14ScopedLockImplIS7_EENS_24PxProfileNullEventFilterEE9sendEventINS0_10StartEventEEEvRNS0_11EventHeaderERT_
b9a:__ZN20SphericalHarmonicsL219AddDirectionalLightERKN4math7_float3ERKNS0_7_float4E
MLe:__ZN5physx13BigConvexDataD2Ev
vqa:__Z26ScheduleJobForEachInternalR8JobFencePFvPvjES1_iPFvS1_E11JobPriority
v_b:__ZZ23InitPlayerLoopCallbacksvEN41PostLateUpdateProfilerEndFrameRegistrator7ForwardEv
Yuc:__ZN9Scripting18RaiseMonoExceptionEPKcz
Ghf:__ZN2UI13UIInstruction19ClearSharedMeshDataER8JobFence
Zoc:__ZN10GameObject17WillHandleMessageERK17MessageIdentifier
AWh:_StrongNamePublicKeyBlob_Equals_m3655422942
xXh:_SecurityContext__ctor_m1730177197
nNl:_RectTransformUtility_GetTransposed_m3952754222
pmc:__ZN9ShaderLab16FastPropertyName15InitBy28BitHashEj
mVl:__ZN6il2cpp2vm5Class7GetNameEP11Il2CppClass
G$k:_List_1_System_Collections_IList_set_Item_m4182383657_gshared
d3i:_EqualityComparer_1_System_Collections_IEqualityComparer_GetHashCode_m3723747923_gshared
